

HI-TECH Software PIC LITE Macro Assembler V9.83 build 10920 
                                                                                               Sat Jul 21 10:14:24 2018

HI-TECH Software Omniscient Code Generator (Lite mode) build 10920
     1  0000                     opt subtitle "HI-TECH Software Omniscient Code Generator (Lite mode) build 10920"
     2                           
     3                           opt pagewidth 120
     4                           
     5                           	opt lm
     6                           
     7                           	processor	16F887
     8                           clrc	macro
     9                           	bcf	3,0
    10  0000                     	endm
    11                           clrz	macro
    12                           	bcf	3,2
    13  0000                     	endm
    14                           setc	macro
    15                           	bsf	3,0
    16  0000                     	endm
    17                           setz	macro
    18                           	bsf	3,2
    19  0000                     	endm
    20                           skipc	macro
    21                           	btfss	3,0
    22  0000                     	endm
    23                           skipz	macro
    24                           	btfss	3,2
    25  0000                     	endm
    26                           skipnc	macro
    27                           	btfsc	3,0
    28  0000                     	endm
    29                           skipnz	macro
    30                           	btfsc	3,2
    31  0000                     	endm
    32  0000                     indf	equ	0
    33  0000                     indf0	equ	0
    34  0002                     pc	equ	2
    35  0002                     pcl	equ	2
    36  0003                     status	equ	3
    37  0004                     fsr	equ	4
    38  0004                     fsr0	equ	4
    39  0001                     c	equ	1
    40  0000                     z	equ	0
    41  000A                     pclath	equ	10
    42                           # 3 "main.c"
    43                           	psect config,class=CONFIG,delta=2 ;#
    44                           # 3 "main.c"
    45  2007  20E2               	dw 0x20E2 ;#
    46                           # 4 "main.c"
    47                           	psect config,class=CONFIG,delta=2 ;#
    48                           # 4 "main.c"
    49  2008  3FFF               	dw 0x3FFF ;#
    50                           	FNCALL	_main,_system1
    51                           	FNCALL	_main,_lcd_init
    52                           	FNCALL	_main,_lcd_gotoxy
    53                           	FNCALL	_main,_lcd_puts
    54                           	FNCALL	_main,_lcd_putc
    55                           	FNCALL	_main,_scan_key_matrix
    56                           	FNCALL	_main,_printf
    57                           	FNCALL	_main,_ServoOn
    58                           	FNCALL	_main,_isButtonMode
    59                           	FNCALL	_main,_ButtonEnter
    60                           	FNCALL	_main,_MotorON
    61                           	FNCALL	_main,_Len
    62                           	FNCALL	_main,_motorX
    63                           	FNCALL	_main,_Xuong
    64                           	FNCALL	_main,_Vao
    65                           	FNCALL	_main,_motorY
    66                           	FNCALL	_main,_Ra
    67                           	FNCALL	_main,_ChuyenLuoiTrai
    68                           	FNCALL	_main,___awdiv
    69                           	FNCALL	_main,_ChuyenLuoiPhai
    70                           	FNCALL	_main,_Cap2kXungXuong
    71                           	FNCALL	_main,_Cap2kXungLen
    72                           	FNCALL	_main,_isButtonNumber
    73                           	FNCALL	_main,_Number
    74                           	FNCALL	_main,_TinhGiaTri
    75                           	FNCALL	_main,_isButtonCancel
    76                           	FNCALL	_main,_isButtonUp
    77                           	FNCALL	_main,_Delay
    78                           	FNCALL	_main,_MotorEpTruc
    79                           	FNCALL	_main,_CuaStart
    80                           	FNCALL	_CuaStart,_motorX
    81                           	FNCALL	_CuaStart,_MotorEpTruc
    82                           	FNCALL	_CuaStart,_lcd_gotoxy
    83                           	FNCALL	_CuaStart,_lcd_puts
    84                           	FNCALL	_CuaStart,_printf
    85                           	FNCALL	_CuaStart,_ChuTrinhMaiTho
    86                           	FNCALL	_CuaStart,_lcd_putc
    87                           	FNCALL	_CuaStart,_maidao
    88                           	FNCALL	_CuaStart,_Delay
    89                           	FNCALL	_CuaStart,_motorY
    90                           	FNCALL	_CuaStart,_chuyenluoi
    91                           	FNCALL	_printf,_putch
    92                           	FNCALL	_printf,___lwdiv
    93                           	FNCALL	_printf,___lwmod
    94                           	FNCALL	_putch,_lcd_putc
    95                           	FNCALL	_lcd_puts,_lcd_putc
    96                           	FNCALL	_ChuTrinhMaiTho,_MotorEpTruc
    97                           	FNCALL	_ChuTrinhMaiTho,_maidao
    98                           	FNCALL	_ChuTrinhMaiTho,_Delay
    99                           	FNCALL	_lcd_putc,_lcd_put_byte
   100                           	FNCALL	_lcd_putc,_lcd_busy
   101                           	FNCALL	_lcd_putc,_lcd_gotoxy
   102                           	FNCALL	_maidao,___wmul
   103                           	FNCALL	_maidao,_motorX
   104                           	FNCALL	_lcd_gotoxy,_lcd_put_byte
   105                           	FNCALL	_lcd_gotoxy,_lcd_busy
   106                           	FNCALL	_lcd_init,_lcd_put_byte
   107                           	FNCALL	_lcd_init,_lcd_busy
   108                           	FNCALL	_chuyenluoi,___awdiv
   109                           	FNCALL	_TinhGiaTri,___wmul
   110                           	FNROOT	_main
   111                           	FNCALL	intlevel1,_isr
   112                           	global	intlevel1
   113                           	FNROOT	intlevel1
   114                           	global	_arrayMapOfNumber
   115                           	global	_arrayMaskInputOfKey
   116                           	global	_arrayMaskOutputOfKey
   117                           	global	_xung1
   118                           	global	_statusMachine
   119                           psect	idataBANK3,class=CODE,space=0,delta=2
   120                           global __pidataBANK3
   121  1DAC                     __pidataBANK3:
   122                           	file	"main.h"
   123                           	line	35
   124                           
   125                           ;initializer for _arrayMapOfNumber
   126  1DAC  3401               	retlw	01h
   127  1DAD  3402               	retlw	02h
   128  1DAE  3403               	retlw	03h
   129  1DAF  3441               	retlw	041h
   130  1DB0  3404               	retlw	04h
   131  1DB1  3405               	retlw	05h
   132  1DB2  3406               	retlw	06h
   133  1DB3  3442               	retlw	042h
   134  1DB4  3407               	retlw	07h
   135  1DB5  3408               	retlw	08h
   136  1DB6  3409               	retlw	09h
   137  1DB7  3443               	retlw	043h
   138  1DB8  342A               	retlw	02Ah
   139  1DB9  3400               	retlw	0
   140  1DBA  3445               	retlw	045h
   141  1DBB  3430               	retlw	030h
   142                           psect	idataBANK1,class=CODE,space=0,delta=2
   143                           global __pidataBANK1
   144  0802                     __pidataBANK1:
   145                           	file	"button.c"
   146                           	line	7
   147                           
   148                           ;initializer for _arrayMaskInputOfKey
   149  0802  3401               	retlw	01h
   150  0803  3402               	retlw	02h
   151  0804  3404               	retlw	04h
   152  0805  3408               	retlw	08h
   153                           	line	6
   154                           
   155                           ;initializer for _arrayMaskOutputOfKey
   156  0806  3410               	retlw	010h
   157  0807  3420               	retlw	020h
   158  0808  3440               	retlw	040h
   159  0809  3480               	retlw	080h
   160                           	file	"main.c"
   161                           	line	33
   162                           
   163                           ;initializer for _xung1
   164  080A  3464               	retlw	064h
   165  080B  3400               	retlw	0
   166                           
   167                           	file	"main.h"
   168                           	line	34
   169                           
   170                           ;initializer for _statusMachine
   171  080C  3465               	retlw	065h
   172                           	global	_dpowers
   173                           psect	strings,class=STRING,delta=2
   174                           global __pstrings
   175  1000                     __pstrings:
   176                           ;	global	stringdir,stringtab,__stringbase
   177  1000                     stringtab:
   178                           ;	String table - string pointers are 1 byte each
   179  1000                     stringcode:stringdir:
      + 1000                     stringdir:	
   180  1000  3010               movlw high(stringdir)
   181  1001  008A               movwf pclath
   182  1002  0804               movf fsr,w
   183  1003  0A84               incf fsr
   184  1004  0782               	addwf pc
   185  1005                     __stringbase:
   186  1005  3400               	retlw	0
   187                           psect	strings
   188                           	file	"C:\Program Files (x86)\HI-TECH Software\PICC\9.83\lib\doprnt.c"
   189                           	line	350
   190  1006                     _dpowers:
   191  1006  3401               	retlw	01h
   192  1007  3400               	retlw	0
   193                           
   194  1008  340A               	retlw	0Ah
   195  1009  3400               	retlw	0
   196                           
   197  100A  3464               	retlw	064h
   198  100B  3400               	retlw	0
   199                           
   200  100C  34E8               	retlw	0E8h
   201  100D  3403               	retlw	03h
   202                           
   203  100E  3410               	retlw	010h
   204  100F  3427               	retlw	027h
   205                           
   206                           	global	_dpowers
   207                           	global	_DoEp
   208                           	global	_LanMai
   209                           	global	_STOP
   210                           	global	_ChieuDai
   211                           	global	_biennho2
   212                           	global	_key_code
   213                           	global	_GiaTri
   214                           	global	_DoEpDao
   215                           	global	_biennho1
   216                           	global	_Luoi
   217                           	global	_MaiTho
   218                           	global	_SLMaiTho
   219                           	global	_SoLan
   220                           	global	_SoLanMaiTinh
   221                           	global	_cb
   222                           	global	_cb1
   223                           	global	_cb2
   224                           	global	_countSV
   225                           	global	_demdao
   226                           	global	_demgiatri
   227                           	global	_dk1
   228                           	global	_dk2
   229                           	global	_dk3
   230                           	global	_indexOfNumber
   231                           	global	_numberValue
   232                           	global	_press
   233                           	global	_SoLuoi
   234                           	global	_PORTB
   235  0006                     _PORTB	set	6
   236                           	global	_PORTC
   237  0007                     _PORTC	set	7
   238                           	global	_PORTD
   239  0008                     _PORTD	set	8
   240                           	global	_TMR0
   241  0001                     _TMR0	set	1
   242                           	global	_CARRY
   243  0018                     _CARRY	set	24
   244                           	global	_GIE
   245  005F                     _GIE	set	95
   246                           	global	_INTE
   247  005C                     _INTE	set	92
   248                           	global	_INTF
   249  0059                     _INTF	set	89
   250                           	global	_RA0
   251  0028                     _RA0	set	40
   252                           	global	_RA1
   253  0029                     _RA1	set	41
   254                           	global	_RA2
   255  002A                     _RA2	set	42
   256                           	global	_RA3
   257  002B                     _RA3	set	43
   258                           	global	_RA4
   259  002C                     _RA4	set	44
   260                           	global	_RA5
   261  002D                     _RA5	set	45
   262                           	global	_RB1
   263  0031                     _RB1	set	49
   264                           	global	_RB3
   265  0033                     _RB3	set	51
   266                           	global	_RB6
   267  0036                     _RB6	set	54
   268                           	global	_RB7
   269  0037                     _RB7	set	55
   270                           	global	_RBIE
   271  005B                     _RBIE	set	91
   272                           	global	_RBIF
   273  0058                     _RBIF	set	88
   274                           	global	_RC1
   275  0039                     _RC1	set	57
   276                           	global	_RC2
   277  003A                     _RC2	set	58
   278                           	global	_RC3
   279  003B                     _RC3	set	59
   280                           	global	_RC4
   281  003C                     _RC4	set	60
   282                           	global	_RC5
   283  003D                     _RC5	set	61
   284                           	global	_RC6
   285  003E                     _RC6	set	62
   286                           	global	_RC7
   287  003F                     _RC7	set	63
   288                           	global	_RE0
   289  0048                     _RE0	set	72
   290                           	global	_RE1
   291  0049                     _RE1	set	73
   292                           	global	_RE2
   293  004A                     _RE2	set	74
   294                           	global	_T0IE
   295  005D                     _T0IE	set	93
   296                           	global	_T0IF
   297  005A                     _T0IF	set	90
   298                           	global	_TMR2IF
   299  0061                     _TMR2IF	set	97
   300                           	global	_IOCB
   301  0096                     _IOCB	set	150
   302                           	global	_TRISB
   303  0086                     _TRISB	set	134
   304                           	global	_TRISC
   305  0087                     _TRISC	set	135
   306                           	global	_TRISD
   307  0088                     _TRISD	set	136
   308                           	global	_WPUB
   309  0095                     _WPUB	set	149
   310                           	global	_INTEDG
   311  040E                     _INTEDG	set	1038
   312                           	global	_PS0
   313  0408                     _PS0	set	1032
   314                           	global	_PS1
   315  0409                     _PS1	set	1033
   316                           	global	_PS2
   317  040A                     _PS2	set	1034
   318                           	global	_PSA
   319  040B                     _PSA	set	1035
   320                           	global	_T0CS
   321  040D                     _T0CS	set	1037
   322                           	global	_TMR2IE
   323  0461                     _TMR2IE	set	1121
   324                           	global	_TRISA0
   325  0428                     _TRISA0	set	1064
   326                           	global	_TRISA1
   327  0429                     _TRISA1	set	1065
   328                           	global	_TRISA2
   329  042A                     _TRISA2	set	1066
   330                           	global	_TRISA3
   331  042B                     _TRISA3	set	1067
   332                           	global	_TRISA4
   333  042C                     _TRISA4	set	1068
   334                           	global	_TRISA5
   335  042D                     _TRISA5	set	1069
   336                           	global	_TRISE0
   337  0448                     _TRISE0	set	1096
   338                           	global	_TRISE1
   339  0449                     _TRISE1	set	1097
   340                           	global	_TRISE2
   341  044A                     _TRISE2	set	1098
   342                           	global	_nRBPU
   343  040F                     _nRBPU	set	1039
   344                           	global	_EEADR
   345  010D                     _EEADR	set	269
   346                           	global	_EEDATA
   347  010C                     _EEDATA	set	268
   348                           	global	_ANSEL
   349  0188                     _ANSEL	set	392
   350                           	global	_ANSELH
   351  0189                     _ANSELH	set	393
   352                           	global	_EECON1
   353  018C                     _EECON1	set	396
   354                           	global	_EECON2
   355  018D                     _EECON2	set	397
   356                           	global	_RD
   357  0C60                     _RD	set	3168
   358                           	global	_WR
   359  0C61                     _WR	set	3169
   360                           	global	_WREN
   361  0C62                     _WREN	set	3170
   362                           	
   363  1010                     STR_46:	
   364  1010  3443               	retlw	67	;'C'
   365  1011  3468               	retlw	104	;'h'
   366  1012  346F               	retlw	111	;'o'
   367  1013  346E               	retlw	110	;'n'
   368  1014  3420               	retlw	32	;' '
   369  1015  344D               	retlw	77	;'M'
   370  1016  344F               	retlw	79	;'O'
   371  1017  3444               	retlw	68	;'D'
   372  1018  3445               	retlw	69	;'E'
   373  1019  3420               	retlw	32	;' '
   374  101A  346D               	retlw	109	;'m'
   375  101B  3461               	retlw	97	;'a'
   376  101C  3469               	retlw	105	;'i'
   377  101D  3420               	retlw	32	;' '
   378  101E  3464               	retlw	100	;'d'
   379  101F  3461               	retlw	97	;'a'
   380  1020  346F               	retlw	111	;'o'
   381  1021  343A               	retlw	58	;':'
   382  1022  3400               	retlw	0
   383                           psect	strings
   384                           	
   385  1023                     STR_59:	
   386  1023  344B               	retlw	75	;'K'
   387  1024  3465               	retlw	101	;'e'
   388  1025  3474               	retlw	116	;'t'
   389  1026  3420               	retlw	32	;' '
   390  1027  3474               	retlw	116	;'t'
   391  1028  3468               	retlw	104	;'h'
   392  1029  3475               	retlw	117	;'u'
   393  102A  3463               	retlw	99	;'c'
   394  102B  3420               	retlw	32	;' '
   395  102C  346D               	retlw	109	;'m'
   396  102D  3461               	retlw	97	;'a'
   397  102E  3469               	retlw	105	;'i'
   398  102F  3420               	retlw	32	;' '
   399  1030  3474               	retlw	116	;'t'
   400  1031  3468               	retlw	104	;'h'
   401  1032  346F               	retlw	111	;'o'
   402  1033  3400               	retlw	0
   403                           psect	strings
   404                           	
   405  1034                     STR_1:	
   406  1034  3444               	retlw	68	;'D'
   407  1035  346F               	retlw	111	;'o'
   408  1036  3420               	retlw	32	;' '
   409  1037  3441               	retlw	65	;'A'
   410  1038  346E               	retlw	110	;'n'
   411  1039  3420               	retlw	32	;' '
   412  103A  3454               	retlw	84	;'T'
   413  103B  346F               	retlw	111	;'o'
   414  103C  3474               	retlw	116	;'t'
   415  103D  3420               	retlw	32	;' '
   416  103E  344E               	retlw	78	;'N'
   417  103F  3467               	retlw	103	;'g'
   418  1040  3468               	retlw	104	;'h'
   419  1041  3469               	retlw	105	;'i'
   420  1042  3465               	retlw	101	;'e'
   421  1043  3470               	retlw	112	;'p'
   422  1044  3400               	retlw	0
   423                           psect	strings
   424                           	
   425  1045                     STR_7:	
   426  1045  3453               	retlw	83	;'S'
   427  1046  344F               	retlw	79	;'O'
   428  1047  3420               	retlw	32	;' '
   429  1048  344C               	retlw	76	;'L'
   430  1049  3441               	retlw	65	;'A'
   431  104A  344E               	retlw	78	;'N'
   432  104B  3420               	retlw	32	;' '
   433  104C  344D               	retlw	77	;'M'
   434  104D  3441               	retlw	65	;'A'
   435  104E  3449               	retlw	73	;'I'
   436  104F  343A               	retlw	58	;':'
   437  1050  3400               	retlw	0
   438                           psect	strings
   439                           	
   440  1051                     STR_49:	
   441  1051  3453               	retlw	83	;'S'
   442  1052  346F               	retlw	111	;'o'
   443  1053  3420               	retlw	32	;' '
   444  1054  344C               	retlw	76	;'L'
   445  1055  3461               	retlw	97	;'a'
   446  1056  346E               	retlw	110	;'n'
   447  1057  3420               	retlw	32	;' '
   448  1058  344D               	retlw	77	;'M'
   449  1059  3461               	retlw	97	;'a'
   450  105A  3469               	retlw	105	;'i'
   451  105B  343A               	retlw	58	;':'
   452  105C  3400               	retlw	0
   453                           psect	strings
   454                           	
   455  105D                     STR_34:	
   456  105D  3444               	retlw	68	;'D'
   457  105E  3461               	retlw	97	;'a'
   458  105F  3420               	retlw	32	;' '
   459  1060  3473               	retlw	115	;'s'
   460  1061  3465               	retlw	101	;'e'
   461  1062  3474               	retlw	116	;'t'
   462  1063  3420               	retlw	32	;' '
   463  1064  3478               	retlw	120	;'x'
   464  1065  346F               	retlw	111	;'o'
   465  1066  346E               	retlw	110	;'n'
   466  1067  3467               	retlw	103	;'g'
   467  1068  3400               	retlw	0
   468                           psect	strings
   469                           	
   470  1069                     STR_4:	
   471  1069  3443               	retlw	67	;'C'
   472  106A  3448               	retlw	72	;'H'
   473  106B  3449               	retlw	73	;'I'
   474  106C  3445               	retlw	69	;'E'
   475  106D  3455               	retlw	85	;'U'
   476  106E  3420               	retlw	32	;' '
   477  106F  3444               	retlw	68	;'D'
   478  1070  3441               	retlw	65	;'A'
   479  1071  3449               	retlw	73	;'I'
   480  1072  343A               	retlw	58	;':'
   481  1073  3400               	retlw	0
   482                           psect	strings
   483                           	
   484  1074                     STR_47:	
   485  1074  3431               	retlw	49	;'1'
   486  1075  342E               	retlw	46	;'.'
   487  1076  344D               	retlw	77	;'M'
   488  1077  346F               	retlw	111	;'o'
   489  1078  3464               	retlw	100	;'d'
   490  1079  3465               	retlw	101	;'e'
   491  107A  345F               	retlw	95	;'_'
   492  107B  3431               	retlw	49	;'1'
   493  107C  3400               	retlw	0
   494                           psect	strings
   495                           	
   496  107D                     STR_48:	
   497  107D  3432               	retlw	50	;'2'
   498  107E  342E               	retlw	46	;'.'
   499  107F  344D               	retlw	77	;'M'
   500  1080  346F               	retlw	111	;'o'
   501  1081  3464               	retlw	100	;'d'
   502  1082  3465               	retlw	101	;'e'
   503  1083  345F               	retlw	95	;'_'
   504  1084  3432               	retlw	50	;'2'
   505  1085  3400               	retlw	0
   506                           psect	strings
   507                           	
   508  1086                     STR_2:	
   509  1086  3453               	retlw	83	;'S'
   510  1087  344F               	retlw	79	;'O'
   511  1088  3420               	retlw	32	;' '
   512  1089  344C               	retlw	76	;'L'
   513  108A  3455               	retlw	85	;'U'
   514  108B  344F               	retlw	79	;'O'
   515  108C  3449               	retlw	73	;'I'
   516  108D  343A               	retlw	58	;':'
   517  108E  3400               	retlw	0
   518                           psect	strings
   519                           	
   520  108F                     STR_55:	
   521  108F  3453               	retlw	83	;'S'
   522  1090  346F               	retlw	111	;'o'
   523  1091  3420               	retlw	32	;' '
   524  1092  344C               	retlw	76	;'L'
   525  1093  3475               	retlw	117	;'u'
   526  1094  346F               	retlw	111	;'o'
   527  1095  3469               	retlw	105	;'i'
   528  1096  343A               	retlw	58	;':'
   529  1097  3400               	retlw	0
   530                           psect	strings
   531                           	
   532  1098                     STR_32:	
   533  1098  3445               	retlw	69	;'E'
   534  1099  3450               	retlw	80	;'P'
   535  109A  3420               	retlw	32	;' '
   536  109B  3454               	retlw	84	;'T'
   537  109C  3448               	retlw	72	;'H'
   538  109D  344F               	retlw	79	;'O'
   539  109E  343A               	retlw	58	;':'
   540  109F  3400               	retlw	0
   541                           psect	strings
   542                           	
   543  10A0                     STR_53:	
   544  10A0  3453               	retlw	83	;'S'
   545  10A1  346F               	retlw	111	;'o'
   546  10A2  3420               	retlw	32	;' '
   547  10A3  344C               	retlw	76	;'L'
   548  10A4  3461               	retlw	97	;'a'
   549  10A5  346E               	retlw	110	;'n'
   550  10A6  343A               	retlw	58	;':'
   551  10A7  3400               	retlw	0
   552                           psect	strings
   553                           	
   554  10A8                     STR_9:	
   555  10A8  3444               	retlw	68	;'D'
   556  10A9  344F               	retlw	79	;'O'
   557  10AA  3420               	retlw	32	;' '
   558  10AB  3445               	retlw	69	;'E'
   559  10AC  3450               	retlw	80	;'P'
   560  10AD  343A               	retlw	58	;':'
   561  10AE  3400               	retlw	0
   562                           psect	strings
   563                           	
   564  10AF                     STR_14:	
   565  10AF  3420               	retlw	32	;' '
   566  10B0  3420               	retlw	32	;' '
   567  10B1  3420               	retlw	32	;' '
   568  10B2  3420               	retlw	32	;' '
   569  10B3  3420               	retlw	32	;' '
   570  10B4  3400               	retlw	0
   571                           psect	strings
   572                           	
   573  10B5                     STR_33:	
   574  10B5  344C               	retlw	76	;'L'
   575  10B6  3441               	retlw	65	;'A'
   576  10B7  344E               	retlw	78	;'N'
   577  10B8  3400               	retlw	0
   578                           psect	strings
   579                           	
   580  10B9                     STR_5:	
   581  10B9  344D               	retlw	77	;'M'
   582  10BA  344D               	retlw	77	;'M'
   583  10BB  3400               	retlw	0
   584                           psect	strings
   585                           	
   586  10BC                     STR_10:	
   587  10BC  3455               	retlw	85	;'U'
   588  10BD  344D               	retlw	77	;'M'
   589  10BE  3400               	retlw	0
   590                           psect	strings
   591                           	
   592  10BF                     STR_3:	
   593  10BF  3425               	retlw	37	;'%'
   594  10C0  3464               	retlw	100	;'d'
   595  10C1  3400               	retlw	0
   596                           psect	strings
   597                           	
   598  10C2                     STR_12:	
   599  10C2  342D               	retlw	45	;'-'
   600  10C3  3400               	retlw	0
   601                           psect	strings
   602  10BF                     STR_6	equ	STR_3+0
   603  10BF                     STR_8	equ	STR_3+0
   604  10BF                     STR_11	equ	STR_3+0
   605  10BF                     STR_13	equ	STR_3+0
   606  10BF                     STR_17	equ	STR_3+0
   607  10BF                     STR_22	equ	STR_3+0
   608  10BF                     STR_27	equ	STR_3+0
   609  10BF                     STR_31	equ	STR_3+0
   610  10BF                     STR_36	equ	STR_3+0
   611  10BF                     STR_39	equ	STR_3+0
   612  10BF                     STR_41	equ	STR_3+0
   613  10BF                     STR_44	equ	STR_3+0
   614  10BF                     STR_50	equ	STR_3+0
   615  10BF                     STR_52	equ	STR_3+0
   616  10BF                     STR_54	equ	STR_3+0
   617  10BF                     STR_56	equ	STR_3+0
   618  10BF                     STR_58	equ	STR_3+0
   619  10BF                     STR_61	equ	STR_3+0
   620  10BF                     STR_63	equ	STR_3+0
   621  10BC                     STR_43	equ	STR_10+0
   622  10B9                     STR_38	equ	STR_5+0
   623  10A0                     STR_60	equ	STR_53+0
   624  108F                     STR_62	equ	STR_55+0
   625  1051                     STR_51	equ	STR_49+0
   626  1051                     STR_57	equ	STR_49+0
   627  10A8                     STR_42	equ	STR_9+0
   628  1086                     STR_35	equ	STR_2+0
   629  1045                     STR_40	equ	STR_7+0
   630  1069                     STR_37	equ	STR_4+0
   631  10C2                     STR_16	equ	STR_12+0
   632  10C2                     STR_21	equ	STR_12+0
   633  10C2                     STR_26	equ	STR_12+0
   634  10C2                     STR_30	equ	STR_12+0
   635  10B1                     STR_19	equ	STR_14+2
   636  10B1                     STR_24	equ	STR_14+2
   637  10B1                     STR_29	equ	STR_14+2
   638  10B1                     STR_45	equ	STR_14+2
   639  10B3                     STR_15	equ	STR_14+4
   640  10B3                     STR_18	equ	STR_14+4
   641  10B3                     STR_20	equ	STR_14+4
   642  10B3                     STR_23	equ	STR_14+4
   643  10B3                     STR_25	equ	STR_14+4
   644  10B3                     STR_28	equ	STR_14+4
   645                           	file	"C:\Users\DELL\AppData\Local\Temp\scq8."
   646                           	line	#
   647                           psect cinit,class=CODE,delta=2
   648                           global start_initialization
   649  07CF                     start_initialization:
   650                           
   651                           psect	bssCOMMON,class=COMMON,space=1
   652                           global __pbssCOMMON
   653  0076                     __pbssCOMMON:
   654  0076                     _ChieuDai:
   655  0076                            ds      2
   656                           
   657  0078                     _biennho2:
   658  0078                            ds      2
   659                           
   660                           psect	bssBANK0,class=BANK0,space=1
   661                           global __pbssBANK0
   662  005A                     __pbssBANK0:
   663  005A                     _DoEp:
   664  005A                            ds      1
   665                           
   666  005B                     _LanMai:
   667  005B                            ds      1
   668                           
   669  005C                     _STOP:
   670  005C                            ds      1
   671                           
   672  005D                     _SoLuoi:
   673  005D                            ds      1
   674                           
   675                           psect	bssBANK1,class=BANK1,space=1
   676                           global __pbssBANK1
   677  00A0                     __pbssBANK1:
   678  00A0                     _key_code:
   679  00A0                            ds      32
   680                           
   681  00C0                     _GiaTri:
   682  00C0                            ds      4
   683                           
   684  00C4                     _DoEpDao:
   685  00C4                            ds      2
   686                           
   687  00C6                     _biennho1:
   688  00C6                            ds      2
   689                           
   690  00C8                     _Luoi:
   691  00C8                            ds      1
   692                           
   693  00C9                     _MaiTho:
   694  00C9                            ds      1
   695                           
   696  00CA                     _SLMaiTho:
   697  00CA                            ds      1
   698                           
   699  00CB                     _SoLan:
   700  00CB                            ds      1
   701                           
   702  00CC                     _SoLanMaiTinh:
   703  00CC                            ds      1
   704                           
   705  00CD                     _cb:
   706  00CD                            ds      1
   707                           
   708  00CE                     _cb1:
   709  00CE                            ds      1
   710                           
   711  00CF                     _cb2:
   712  00CF                            ds      1
   713                           
   714  00D0                     _countSV:
   715  00D0                            ds      1
   716                           
   717  00D1                     _demdao:
   718  00D1                            ds      1
   719                           
   720  00D2                     _demgiatri:
   721  00D2                            ds      1
   722                           
   723  00D3                     _dk1:
   724  00D3                            ds      1
   725                           
   726  00D4                     _dk2:
   727  00D4                            ds      1
   728                           
   729  00D5                     _dk3:
   730  00D5                            ds      1
   731                           
   732  00D6                     _indexOfNumber:
   733  00D6                            ds      1
   734                           
   735  00D7                     _numberValue:
   736  00D7                            ds      1
   737                           
   738  00D8                     _press:
   739  00D8                            ds      1
   740                           
   741                           psect	dataBANK1,class=BANK1,space=1
   742                           global __pdataBANK1
   743  00D9                     __pdataBANK1:
   744                           	file	"button.c"
   745                           	line	7
   746  00D9                     _arrayMaskInputOfKey:
   747  00D9                            ds      4
   748                           
   749                           psect	dataBANK1
   750                           	file	"button.c"
   751                           	line	6
   752  00DD                     _arrayMaskOutputOfKey:
   753  00DD                            ds      4
   754                           
   755                           psect	dataBANK1
   756                           	file	"main.c"
   757                           	line	33
   758  00E1                     _xung1:
   759  00E1                            ds      2
   760                           
   761                           psect	dataBANK1
   762                           	file	"main.h"
   763                           	line	34
   764  00E3                     _statusMachine:
   765  00E3                            ds      1
   766                           
   767                           psect	dataBANK3,class=BANK3,space=1
   768                           global __pdataBANK3
   769  01A6                     __pdataBANK3:
   770                           	file	"main.h"
   771                           	line	35
   772  01A6                     _arrayMapOfNumber:
   773  01A6                            ds      16
   774                           
   775                           psect clrtext,class=CODE,delta=2
   776                           global clear_ram
   777                           ;	Called with FSR containing the base address, and
   778                           ;	W with the last address+1
   779  1D9A                     clear_ram:
   780  1D9A  0064               	clrwdt			;clear the watchdog before getting into this loop
   781  1D9B                     clrloop:
   782  1D9B  0180               	clrf	indf		;clear RAM location pointed to by FSR
   783  1D9C  0A84               	incf	fsr,f		;increment pointer
   784  1D9D  0604               	xorwf	fsr,w		;XOR with final address
   785  1D9E  1903               	btfsc	status,2	;have we reached the end yet?
   786  1D9F  3400               	retlw	0		;all done for this memory range, return
   787  1DA0  0604               	xorwf	fsr,w		;XOR again to restore value
   788  1DA1  2D9B               	goto	clrloop		;do the next byte
   789                           
   790                           ; Clear objects allocated to COMMON
   791                           psect cinit,class=CODE,delta=2
   792  07CF  01F6               	clrf	((__pbssCOMMON)+0)&07Fh
   793  07D0  01F7               	clrf	((__pbssCOMMON)+1)&07Fh
   794  07D1  01F8               	clrf	((__pbssCOMMON)+2)&07Fh
   795  07D2  01F9               	clrf	((__pbssCOMMON)+3)&07Fh
   796                           ; Clear objects allocated to BANK0
   797                           psect cinit,class=CODE,delta=2
   798  07D3  01DA               	clrf	((__pbssBANK0)+0)&07Fh
   799  07D4  01DB               	clrf	((__pbssBANK0)+1)&07Fh
   800  07D5  01DC               	clrf	((__pbssBANK0)+2)&07Fh
   801  07D6  01DD               	clrf	((__pbssBANK0)+3)&07Fh
   802                           ; Clear objects allocated to BANK1
   803                           psect cinit,class=CODE,delta=2
   804  07D7  1383               	bcf	status, 7	;select IRP bank0
   805  07D8  30A0               	movlw	low(__pbssBANK1)
   806  07D9  0084               	movwf	fsr
   807  07DA  30D9               	movlw	low((__pbssBANK1)+039h)
   808  07DB  160A  158A  259A   	fcall	clear_ram
              120A  118A         
   809                           global btemp
   810                           psect inittext,class=CODE,delta=2
   811                           global init_fetch,btemp
   812                           ;	Called with low address in FSR and high address in W
   813  1E00                     init_fetch:
   814  1E00  087E               	movf btemp,w
   815  1E01  008A               	movwf pclath
   816  1E02  087F               	movf btemp+1,w
   817  1E03  0082               	movwf pc
   818                           global init_ram
   819                           ;Called with:
   820                           ;	high address of idata address in btemp 
   821                           ;	low address of idata address in btemp+1 
   822                           ;	low address of data in FSR
   823                           ;	high address + 1 of data in btemp-1
   824  1E04                     init_ram:
   825  1E04  160A  158A  2600   	fcall init_fetch
              160A  158A         
   826  1E09  0080               	movwf indf,f
   827  1E0A  0A84               	incf fsr,f
   828  1E0B  0804               	movf fsr,w
   829  1E0C  067D               	xorwf btemp-1,w
   830  1E0D  1903               	btfsc status,2
   831  1E0E  3400               	retlw 0
   832  1E0F  0AFF               	incf btemp+1,f
   833  1E10  1903               	btfsc status,2
   834  1E11  0AFE               	incf btemp,f
   835  1E12  2E04               	goto init_ram
   836                           ; Initialize objects allocated to BANK3
   837                           psect cinit,class=CODE,delta=2
   838                           global init_ram, __pidataBANK3
   839  07E0  1783               	bsf	status, 7	;select IRP bank2
   840  07E1  30B6               	movlw low(__pdataBANK3+16)
   841  07E2  00FD               	movwf btemp-1,f
   842  07E3  301D               	movlw high(__pidataBANK3)
   843  07E4  00FE               	movwf btemp,f
   844  07E5  30AC               	movlw low(__pidataBANK3)
   845  07E6  00FF               	movwf btemp+1,f
   846  07E7  30A6               	movlw low(__pdataBANK3)
   847  07E8  0084               	movwf fsr,f
   848  07E9  160A  158A  2604   	fcall init_ram
              120A  118A         
   849                           ; Initialize objects allocated to BANK1
   850                           psect cinit,class=CODE,delta=2
   851                           global init_ram, __pidataBANK1
   852  07EE  1383               	bcf	status, 7	;select IRP bank0
   853  07EF  30E4               	movlw low(__pdataBANK1+11)
   854  07F0  00FD               	movwf btemp-1,f
   855  07F1  3008               	movlw high(__pidataBANK1)
   856  07F2  00FE               	movwf btemp,f
   857  07F3  3002               	movlw low(__pidataBANK1)
   858  07F4  00FF               	movwf btemp+1,f
   859  07F5  30D9               	movlw low(__pdataBANK1)
   860  07F6  0084               	movwf fsr,f
   861  07F7  160A  158A  2604   	fcall init_ram
              120A  118A         
   862                           psect cinit,class=CODE,delta=2
   863                           global end_of_initialization
   864                           
   865                           ;End of C runtime variable initialization code
   866                           
   867  07FC                     end_of_initialization:
   868  07FC  0183               clrf status
   869  07FD  120A  158A  2A55   ljmp _main	;jump to C main() function
   870                           psect	cstackBANK3,class=BANK3,space=1
   871                           global __pcstackBANK3
   872  0190                     __pcstackBANK3:
   873                           	global	main@tong
   874  0190                     main@tong:	; 2 bytes @ 0x0
   875  0190                     	ds	2
   876                           	global	main@count
   877  0192                     main@count:	; 2 bytes @ 0x2
   878  0192                     	ds	2
   879                           	global	main@tong_1976
   880  0194                     main@tong_1976:	; 2 bytes @ 0x4
   881  0194                     	ds	2
   882                           	global	main@count_1977
   883  0196                     main@count_1977:	; 2 bytes @ 0x6
   884  0196                     	ds	2
   885                           	global	main@pulse
   886  0198                     main@pulse:	; 2 bytes @ 0x8
   887  0198                     	ds	2
   888                           	global	main@i
   889  019A                     main@i:	; 2 bytes @ 0xA
   890  019A                     	ds	2
   891                           	global	main@pulse_1975
   892  019C                     main@pulse_1975:	; 2 bytes @ 0xC
   893  019C                     	ds	2
   894                           	global	main@i_1978
   895  019E                     main@i_1978:	; 2 bytes @ 0xE
   896  019E                     	ds	2
   897                           	global	main@po
   898  01A0                     main@po:	; 2 bytes @ 0x10
   899  01A0                     	ds	2
   900                           	global	main@po_1980
   901  01A2                     main@po_1980:	; 2 bytes @ 0x12
   902  01A2                     	ds	2
   903                           	global	main@i_2018
   904  01A4                     main@i_2018:	; 2 bytes @ 0x14
   905  01A4                     	ds	2
   906                           psect	cstackCOMMON,class=COMMON,space=1
   907                           global __pcstackCOMMON
   908  0070                     __pcstackCOMMON:
   909                           	global	?_system1
   910  0070                     ?_system1:	; 0 bytes @ 0x0
   911                           	global	?_lcd_init
   912  0070                     ?_lcd_init:	; 0 bytes @ 0x0
   913                           	global	?_lcd_puts
   914  0070                     ?_lcd_puts:	; 0 bytes @ 0x0
   915                           	global	?_lcd_putc
   916  0070                     ?_lcd_putc:	; 0 bytes @ 0x0
   917                           	global	?_scan_key_matrix
   918  0070                     ?_scan_key_matrix:	; 0 bytes @ 0x0
   919                           	global	?_motorX
   920  0070                     ?_motorX:	; 0 bytes @ 0x0
   921                           	global	?_motorY
   922  0070                     ?_motorY:	; 0 bytes @ 0x0
   923                           	global	?_Delay
   924  0070                     ?_Delay:	; 0 bytes @ 0x0
   925                           	global	?_MotorEpTruc
   926  0070                     ?_MotorEpTruc:	; 0 bytes @ 0x0
   927                           	global	?_CuaStart
   928  0070                     ?_CuaStart:	; 0 bytes @ 0x0
   929                           	global	?_ChuTrinhMaiTho
   930  0070                     ?_ChuTrinhMaiTho:	; 0 bytes @ 0x0
   931                           	global	?_maidao
   932  0070                     ?_maidao:	; 0 bytes @ 0x0
   933                           	global	?_chuyenluoi
   934  0070                     ?_chuyenluoi:	; 0 bytes @ 0x0
   935                           	global	?_main
   936  0070                     ?_main:	; 0 bytes @ 0x0
   937                           	global	?_putch
   938  0070                     ?_putch:	; 0 bytes @ 0x0
   939                           	global	?_isr
   940  0070                     ?_isr:	; 0 bytes @ 0x0
   941                           	global	??_isr
   942  0070                     ??_isr:	; 0 bytes @ 0x0
   943                           	global	?_ServoOn
   944  0070                     ?_ServoOn:	; 1 bytes @ 0x0
   945                           	global	?_isButtonMode
   946  0070                     ?_isButtonMode:	; 1 bytes @ 0x0
   947                           	global	?_ButtonEnter
   948  0070                     ?_ButtonEnter:	; 1 bytes @ 0x0
   949                           	global	?_MotorON
   950  0070                     ?_MotorON:	; 1 bytes @ 0x0
   951                           	global	?_Len
   952  0070                     ?_Len:	; 1 bytes @ 0x0
   953                           	global	?_Xuong
   954  0070                     ?_Xuong:	; 1 bytes @ 0x0
   955                           	global	?_Vao
   956  0070                     ?_Vao:	; 1 bytes @ 0x0
   957                           	global	?_Ra
   958  0070                     ?_Ra:	; 1 bytes @ 0x0
   959                           	global	?_ChuyenLuoiTrai
   960  0070                     ?_ChuyenLuoiTrai:	; 1 bytes @ 0x0
   961                           	global	?_ChuyenLuoiPhai
   962  0070                     ?_ChuyenLuoiPhai:	; 1 bytes @ 0x0
   963                           	global	?_Cap2kXungXuong
   964  0070                     ?_Cap2kXungXuong:	; 1 bytes @ 0x0
   965                           	global	?_Cap2kXungLen
   966  0070                     ?_Cap2kXungLen:	; 1 bytes @ 0x0
   967                           	global	?_isButtonNumber
   968  0070                     ?_isButtonNumber:	; 1 bytes @ 0x0
   969                           	global	?_isButtonCancel
   970  0070                     ?_isButtonCancel:	; 1 bytes @ 0x0
   971                           	global	?_isButtonUp
   972  0070                     ?_isButtonUp:	; 1 bytes @ 0x0
   973                           	global	?_lcd_busy
   974  0070                     ?_lcd_busy:	; 1 bytes @ 0x0
   975  0070                     	ds	4
   976                           	global	??_system1
   977  0074                     ??_system1:	; 0 bytes @ 0x4
   978                           	global	??_ServoOn
   979  0074                     ??_ServoOn:	; 0 bytes @ 0x4
   980                           	global	??_isButtonMode
   981  0074                     ??_isButtonMode:	; 0 bytes @ 0x4
   982                           	global	??_ButtonEnter
   983  0074                     ??_ButtonEnter:	; 0 bytes @ 0x4
   984                           	global	??_MotorON
   985  0074                     ??_MotorON:	; 0 bytes @ 0x4
   986                           	global	??_Len
   987  0074                     ??_Len:	; 0 bytes @ 0x4
   988                           	global	??_motorX
   989  0074                     ??_motorX:	; 0 bytes @ 0x4
   990                           	global	??_Xuong
   991  0074                     ??_Xuong:	; 0 bytes @ 0x4
   992                           	global	??_Vao
   993  0074                     ??_Vao:	; 0 bytes @ 0x4
   994                           	global	??_motorY
   995  0074                     ??_motorY:	; 0 bytes @ 0x4
   996                           	global	??_Ra
   997  0074                     ??_Ra:	; 0 bytes @ 0x4
   998                           	global	??_ChuyenLuoiTrai
   999  0074                     ??_ChuyenLuoiTrai:	; 0 bytes @ 0x4
  1000                           	global	??_ChuyenLuoiPhai
  1001  0074                     ??_ChuyenLuoiPhai:	; 0 bytes @ 0x4
  1002                           	global	??_Cap2kXungXuong
  1003  0074                     ??_Cap2kXungXuong:	; 0 bytes @ 0x4
  1004                           	global	??_Cap2kXungLen
  1005  0074                     ??_Cap2kXungLen:	; 0 bytes @ 0x4
  1006                           	global	??_isButtonCancel
  1007  0074                     ??_isButtonCancel:	; 0 bytes @ 0x4
  1008                           	global	??_isButtonUp
  1009  0074                     ??_isButtonUp:	; 0 bytes @ 0x4
  1010                           	global	??_MotorEpTruc
  1011  0074                     ??_MotorEpTruc:	; 0 bytes @ 0x4
  1012                           	global	?_lcd_put_byte
  1013  0074                     ?_lcd_put_byte:	; 0 bytes @ 0x4
  1014                           	global	??_lcd_busy
  1015  0074                     ??_lcd_busy:	; 0 bytes @ 0x4
  1016                           	global	??___wmul
  1017  0074                     ??___wmul:	; 0 bytes @ 0x4
  1018                           	global	??___lwdiv
  1019  0074                     ??___lwdiv:	; 0 bytes @ 0x4
  1020                           	global	??___awdiv
  1021  0074                     ??___awdiv:	; 0 bytes @ 0x4
  1022                           	global	?_Number
  1023  0074                     ?_Number:	; 2 bytes @ 0x4
  1024                           	global	isButtonNumber@i
  1025  0074                     isButtonNumber@i:	; 1 bytes @ 0x4
  1026                           	global	lcd_put_byte@b
  1027  0074                     lcd_put_byte@b:	; 1 bytes @ 0x4
  1028                           	global	___wmul@product
  1029  0074                     ___wmul@product:	; 2 bytes @ 0x4
  1030  0074                     	ds	1
  1031                           	global	??___lwmod
  1032  0075                     ??___lwmod:	; 0 bytes @ 0x5
  1033                           	global	lcd_busy@busy
  1034  0075                     lcd_busy@busy:	; 1 bytes @ 0x5
  1035  0075                     	ds	1
  1036                           	global	??_Number
  1037  0076                     ??_Number:	; 0 bytes @ 0x6
  1038                           	global	??_putch
  1039  0076                     ??_putch:	; 0 bytes @ 0x6
  1040                           psect	cstackBANK0,class=BANK0,space=1
  1041                           global __pcstackBANK0
  1042  0020                     __pcstackBANK0:
  1043                           	global	??_scan_key_matrix
  1044  0020                     ??_scan_key_matrix:	; 0 bytes @ 0x0
  1045                           	global	??_isButtonNumber
  1046  0020                     ??_isButtonNumber:	; 0 bytes @ 0x0
  1047                           	global	??_Delay
  1048  0020                     ??_Delay:	; 0 bytes @ 0x0
  1049                           	global	??_lcd_put_byte
  1050  0020                     ??_lcd_put_byte:	; 0 bytes @ 0x0
  1051                           	global	?___wmul
  1052  0020                     ?___wmul:	; 2 bytes @ 0x0
  1053                           	global	?___lwdiv
  1054  0020                     ?___lwdiv:	; 2 bytes @ 0x0
  1055                           	global	?___awdiv
  1056  0020                     ?___awdiv:	; 2 bytes @ 0x0
  1057                           	global	___wmul@multiplier
  1058  0020                     ___wmul@multiplier:	; 2 bytes @ 0x0
  1059                           	global	___lwdiv@divisor
  1060  0020                     ___lwdiv@divisor:	; 2 bytes @ 0x0
  1061                           	global	___awdiv@divisor
  1062  0020                     ___awdiv@divisor:	; 2 bytes @ 0x0
  1063  0020                     	ds	2
  1064                           	global	lcd_put_byte@rs
  1065  0022                     lcd_put_byte@rs:	; 1 bytes @ 0x2
  1066                           	global	___wmul@multiplicand
  1067  0022                     ___wmul@multiplicand:	; 2 bytes @ 0x2
  1068                           	global	___lwdiv@dividend
  1069  0022                     ___lwdiv@dividend:	; 2 bytes @ 0x2
  1070                           	global	___awdiv@dividend
  1071  0022                     ___awdiv@dividend:	; 2 bytes @ 0x2
  1072  0022                     	ds	1
  1073                           	global	Delay@time
  1074  0023                     Delay@time:	; 1 bytes @ 0x3
  1075                           	global	lcd_put_byte@temp
  1076  0023                     lcd_put_byte@temp:	; 1 bytes @ 0x3
  1077  0023                     	ds	1
  1078                           	global	??_lcd_init
  1079  0024                     ??_lcd_init:	; 0 bytes @ 0x4
  1080                           	global	?_lcd_gotoxy
  1081  0024                     ?_lcd_gotoxy:	; 0 bytes @ 0x4
  1082                           	global	??_maidao
  1083  0024                     ??_maidao:	; 0 bytes @ 0x4
  1084                           	global	?_TinhGiaTri
  1085  0024                     ?_TinhGiaTri:	; 2 bytes @ 0x4
  1086                           	global	lcd_gotoxy@row
  1087  0024                     lcd_gotoxy@row:	; 1 bytes @ 0x4
  1088                           	global	___lwdiv@counter
  1089  0024                     ___lwdiv@counter:	; 1 bytes @ 0x4
  1090                           	global	___awdiv@counter
  1091  0024                     ___awdiv@counter:	; 1 bytes @ 0x4
  1092                           	global	Delay@i
  1093  0024                     Delay@i:	; 2 bytes @ 0x4
  1094  0024                     	ds	1
  1095                           	global	??_lcd_gotoxy
  1096  0025                     ??_lcd_gotoxy:	; 0 bytes @ 0x5
  1097                           	global	___awdiv@sign
  1098  0025                     ___awdiv@sign:	; 1 bytes @ 0x5
  1099                           	global	___lwdiv@quotient
  1100  0025                     ___lwdiv@quotient:	; 2 bytes @ 0x5
  1101  0025                     	ds	1
  1102                           	global	??_TinhGiaTri
  1103  0026                     ??_TinhGiaTri:	; 0 bytes @ 0x6
  1104                           	global	lcd_gotoxy@col
  1105  0026                     lcd_gotoxy@col:	; 1 bytes @ 0x6
  1106                           	global	maidao@domaiy
  1107  0026                     maidao@domaiy:	; 2 bytes @ 0x6
  1108                           	global	___awdiv@quotient
  1109  0026                     ___awdiv@quotient:	; 2 bytes @ 0x6
  1110  0026                     	ds	1
  1111                           	global	?___lwmod
  1112  0027                     ?___lwmod:	; 2 bytes @ 0x7
  1113                           	global	lcd_gotoxy@address
  1114  0027                     lcd_gotoxy@address:	; 1 bytes @ 0x7
  1115                           	global	___lwmod@divisor
  1116  0027                     ___lwmod@divisor:	; 2 bytes @ 0x7
  1117  0027                     	ds	1
  1118                           	global	??_lcd_putc
  1119  0028                     ??_lcd_putc:	; 0 bytes @ 0x8
  1120                           	global	??_chuyenluoi
  1121  0028                     ??_chuyenluoi:	; 0 bytes @ 0x8
  1122                           	global	maidao@domaix
  1123  0028                     maidao@domaix:	; 2 bytes @ 0x8
  1124                           	global	scan_key_matrix@i
  1125  0028                     scan_key_matrix@i:	; 2 bytes @ 0x8
  1126  0028                     	ds	1
  1127                           	global	lcd_putc@c
  1128  0029                     lcd_putc@c:	; 1 bytes @ 0x9
  1129                           	global	___lwmod@dividend
  1130  0029                     ___lwmod@dividend:	; 2 bytes @ 0x9
  1131  0029                     	ds	1
  1132                           	global	??_lcd_puts
  1133  002A                     ??_lcd_puts:	; 0 bytes @ 0xA
  1134                           	global	putch@c
  1135  002A                     putch@c:	; 1 bytes @ 0xA
  1136                           	global	maidao@i
  1137  002A                     maidao@i:	; 2 bytes @ 0xA
  1138                           	global	chuyenluoi@tong
  1139  002A                     chuyenluoi@tong:	; 2 bytes @ 0xA
  1140                           	global	scan_key_matrix@j
  1141  002A                     scan_key_matrix@j:	; 2 bytes @ 0xA
  1142  002A                     	ds	1
  1143                           	global	lcd_puts@s
  1144  002B                     lcd_puts@s:	; 1 bytes @ 0xB
  1145                           	global	___lwmod@counter
  1146  002B                     ___lwmod@counter:	; 1 bytes @ 0xB
  1147  002B                     	ds	1
  1148                           	global	??_ChuTrinhMaiTho
  1149  002C                     ??_ChuTrinhMaiTho:	; 0 bytes @ 0xC
  1150                           	global	?_printf
  1151  002C                     ?_printf:	; 2 bytes @ 0xC
  1152                           	global	chuyenluoi@count
  1153  002C                     chuyenluoi@count:	; 2 bytes @ 0xC
  1154  002C                     	ds	2
  1155                           	global	??_printf
  1156  002E                     ??_printf:	; 0 bytes @ 0xE
  1157                           	global	TinhGiaTri@Tong
  1158  002E                     TinhGiaTri@Tong:	; 2 bytes @ 0xE
  1159                           	global	chuyenluoi@pulse
  1160  002E                     chuyenluoi@pulse:	; 2 bytes @ 0xE
  1161  002E                     	ds	1
  1162                           	global	ChuTrinhMaiTho@tong2
  1163  002F                     ChuTrinhMaiTho@tong2:	; 2 bytes @ 0xF
  1164  002F                     	ds	1
  1165                           	global	chuyenluoi@i
  1166  0030                     chuyenluoi@i:	; 2 bytes @ 0x10
  1167  0030                     	ds	1
  1168                           	global	printf@ap
  1169  0031                     printf@ap:	; 1 bytes @ 0x11
  1170                           	global	ChuTrinhMaiTho@pulse2
  1171  0031                     ChuTrinhMaiTho@pulse2:	; 2 bytes @ 0x11
  1172  0031                     	ds	1
  1173                           	global	printf@flag
  1174  0032                     printf@flag:	; 1 bytes @ 0x12
  1175  0032                     	ds	1
  1176                           	global	printf@f
  1177  0033                     printf@f:	; 1 bytes @ 0x13
  1178                           	global	ChuTrinhMaiTho@i
  1179  0033                     ChuTrinhMaiTho@i:	; 2 bytes @ 0x13
  1180  0033                     	ds	1
  1181                           	global	printf@prec
  1182  0034                     printf@prec:	; 1 bytes @ 0x14
  1183  0034                     	ds	1
  1184                           	global	printf@_val
  1185  0035                     printf@_val:	; 4 bytes @ 0x15
  1186  0035                     	ds	4
  1187                           	global	printf@c
  1188  0039                     printf@c:	; 1 bytes @ 0x19
  1189  0039                     	ds	1
  1190                           	global	??_CuaStart
  1191  003A                     ??_CuaStart:	; 0 bytes @ 0x1A
  1192  003A                     	ds	5
  1193                           	global	CuaStart@i
  1194  003F                     CuaStart@i:	; 2 bytes @ 0x1F
  1195  003F                     	ds	2
  1196                           	global	CuaStart@j
  1197  0041                     CuaStart@j:	; 2 bytes @ 0x21
  1198  0041                     	ds	2
  1199                           	global	CuaStart@k
  1200  0043                     CuaStart@k:	; 2 bytes @ 0x23
  1201  0043                     	ds	2
  1202                           	global	CuaStart@k1
  1203  0045                     CuaStart@k1:	; 2 bytes @ 0x25
  1204  0045                     	ds	2
  1205                           	global	CuaStart@i_2058
  1206  0047                     CuaStart@i_2058:	; 2 bytes @ 0x27
  1207  0047                     	ds	2
  1208                           	global	CuaStart@i1
  1209  0049                     CuaStart@i1:	; 2 bytes @ 0x29
  1210  0049                     	ds	2
  1211                           	global	CuaStart@i2
  1212  004B                     CuaStart@i2:	; 2 bytes @ 0x2B
  1213  004B                     	ds	2
  1214                           	global	CuaStart@i_2061
  1215  004D                     CuaStart@i_2061:	; 2 bytes @ 0x2D
  1216  004D                     	ds	2
  1217                           	global	CuaStart@pulse3
  1218  004F                     CuaStart@pulse3:	; 2 bytes @ 0x2F
  1219  004F                     	ds	2
  1220                           	global	CuaStart@i_2048
  1221  0051                     CuaStart@i_2048:	; 2 bytes @ 0x31
  1222  0051                     	ds	2
  1223                           	global	CuaStart@i_2062
  1224  0053                     CuaStart@i_2062:	; 2 bytes @ 0x33
  1225  0053                     	ds	2
  1226                           	global	CuaStart@pulse1
  1227  0055                     CuaStart@pulse1:	; 2 bytes @ 0x35
  1228  0055                     	ds	2
  1229                           	global	??_main
  1230  0057                     ??_main:	; 0 bytes @ 0x37
  1231  0057                     	ds	3
  1232 ;;Data sizes: Strings 180, constant 10, data 27, bss 65, persistent 0 stack 0
  1233 ;;Auto spaces:   Size  Autos    Used
  1234 ;; COMMON          14      6      10
  1235 ;; BANK0           80     58      62
  1236 ;; BANK1           80      0      68
  1237 ;; BANK3           96     22      38
  1238 ;; BANK2           96      0       0
  1239                           
  1240 ;;
  1241 ;; Pointer list with targets:
  1242                           
  1243 ;; ?___lwdiv	unsigned int  size(1) Largest target is 0
  1244 ;;
  1245 ;; ?___lwmod	unsigned int  size(1) Largest target is 0
  1246 ;;
  1247 ;; ?_TinhGiaTri	int  size(1) Largest target is 0
  1248 ;;
  1249 ;; ?___wmul	unsigned int  size(1) Largest target is 0
  1250 ;;
  1251 ;; ?___awdiv	int  size(1) Largest target is 0
  1252 ;;
  1253 ;; printf@f	PTR const unsigned char  size(1) Largest target is 3
  1254 ;;		 -> STR_63(CODE[3]), STR_61(CODE[3]), STR_58(CODE[3]), STR_56(CODE[3]), 
  1255 ;;		 -> STR_54(CODE[3]), STR_52(CODE[3]), STR_50(CODE[3]), STR_44(CODE[3]), 
  1256 ;;		 -> STR_41(CODE[3]), STR_39(CODE[3]), STR_36(CODE[3]), STR_31(CODE[3]), 
  1257 ;;		 -> STR_27(CODE[3]), STR_22(CODE[3]), STR_17(CODE[3]), STR_13(CODE[3]), 
  1258 ;;		 -> STR_11(CODE[3]), STR_8(CODE[3]), STR_6(CODE[3]), STR_3(CODE[3]), 
  1259 ;;
  1260 ;; ?_printf	int  size(1) Largest target is 0
  1261 ;;
  1262 ;; printf@ap	PTR void [1] size(1) Largest target is 2
  1263 ;;		 -> ?_printf(BANK0[2]), 
  1264 ;;
  1265 ;; S7116$_cp	PTR const unsigned char  size(1) Largest target is 0
  1266 ;;
  1267 ;; _val._str._cp	PTR const unsigned char  size(1) Largest target is 0
  1268 ;;
  1269 ;; lcd_puts@s	PTR const unsigned char  size(1) Largest target is 19
  1270 ;;		 -> STR_62(CODE[9]), STR_60(CODE[8]), STR_59(CODE[17]), STR_57(CODE[12]), 
  1271 ;;		 -> STR_55(CODE[9]), STR_53(CODE[8]), STR_51(CODE[12]), STR_49(CODE[12]), 
  1272 ;;		 -> STR_48(CODE[9]), STR_47(CODE[9]), STR_46(CODE[19]), STR_45(CODE[4]), 
  1273 ;;		 -> STR_43(CODE[3]), STR_42(CODE[7]), STR_40(CODE[12]), STR_38(CODE[3]), 
  1274 ;;		 -> STR_37(CODE[11]), STR_35(CODE[9]), STR_34(CODE[12]), STR_33(CODE[4]), 
  1275 ;;		 -> STR_32(CODE[8]), STR_30(CODE[2]), STR_29(CODE[4]), STR_28(CODE[2]), 
  1276 ;;		 -> STR_26(CODE[2]), STR_25(CODE[2]), STR_24(CODE[4]), STR_23(CODE[2]), 
  1277 ;;		 -> STR_21(CODE[2]), STR_20(CODE[2]), STR_19(CODE[4]), STR_18(CODE[2]), 
  1278 ;;		 -> STR_16(CODE[2]), STR_15(CODE[2]), STR_14(CODE[6]), STR_12(CODE[2]), 
  1279 ;;		 -> STR_10(CODE[3]), STR_9(CODE[7]), STR_7(CODE[12]), STR_5(CODE[3]), 
  1280 ;;		 -> STR_4(CODE[11]), STR_2(CODE[9]), STR_1(CODE[17]), 
  1281 ;;
  1282                           
  1283                           
  1284 ;;
  1285 ;; Critical Paths under _main in COMMON
  1286 ;;
  1287 ;;   _main->_motorX
  1288 ;;   _main->_motorY
  1289 ;;   _main->_Number
  1290 ;;   _main->_MotorEpTruc
  1291 ;;   _CuaStart->_motorX
  1292 ;;   _CuaStart->_MotorEpTruc
  1293 ;;   _CuaStart->_motorY
  1294 ;;   _printf->___lwmod
  1295 ;;   _ChuTrinhMaiTho->_MotorEpTruc
  1296 ;;   _lcd_putc->_lcd_busy
  1297 ;;   _maidao->___wmul
  1298 ;;   _maidao->_motorX
  1299 ;;   _lcd_gotoxy->_lcd_busy
  1300 ;;   _lcd_init->_lcd_busy
  1301 ;;   _chuyenluoi->___awdiv
  1302 ;;   _TinhGiaTri->___wmul
  1303 ;;   ___lwmod->___lwdiv
  1304 ;;
  1305 ;; Critical Paths under _isr in COMMON
  1306 ;;
  1307 ;;   None.
  1308 ;;
  1309 ;; Critical Paths under _main in BANK0
  1310 ;;
  1311 ;;   _main->_CuaStart
  1312 ;;   _CuaStart->_printf
  1313 ;;   _printf->___lwmod
  1314 ;;   _putch->_lcd_putc
  1315 ;;   _lcd_puts->_lcd_putc
  1316 ;;   _ChuTrinhMaiTho->_maidao
  1317 ;;   _lcd_putc->_lcd_gotoxy
  1318 ;;   _maidao->___wmul
  1319 ;;   _lcd_gotoxy->_lcd_put_byte
  1320 ;;   _lcd_init->_lcd_put_byte
  1321 ;;   _chuyenluoi->___awdiv
  1322 ;;   _TinhGiaTri->___wmul
  1323 ;;   ___lwmod->___lwdiv
  1324 ;;
  1325 ;; Critical Paths under _isr in BANK0
  1326 ;;
  1327 ;;   None.
  1328 ;;
  1329 ;; Critical Paths under _main in BANK1
  1330 ;;
  1331 ;;   None.
  1332 ;;
  1333 ;; Critical Paths under _isr in BANK1
  1334 ;;
  1335 ;;   None.
  1336 ;;
  1337 ;; Critical Paths under _main in BANK3
  1338 ;;
  1339 ;;   None.
  1340 ;;
  1341 ;; Critical Paths under _isr in BANK3
  1342 ;;
  1343 ;;   None.
  1344 ;;
  1345 ;; Critical Paths under _main in BANK2
  1346 ;;
  1347 ;;   None.
  1348 ;;
  1349 ;; Critical Paths under _isr in BANK2
  1350 ;;
  1351 ;;   None.
  1352                           
  1353 ;;
  1354 ;;Main: autosize = 0, tempsize = 3, incstack = 0, save=0
  1355 ;;
  1356                           
  1357 ;;
  1358 ;;Call Graph Tables:
  1359 ;;
  1360 ;; ---------------------------------------------------------------------------------
  1361 ;; (Depth) Function   	        Calls       Base Space   Used Autos Params    Refs
  1362 ;; ---------------------------------------------------------------------------------
  1363 ;; (0) _main                                                25    25      0   12088
  1364 ;;                                             55 BANK0      3     3      0
  1365 ;;                                              0 BANK3     22    22      0
  1366 ;;                            _system1
  1367 ;;                           _lcd_init
  1368 ;;                         _lcd_gotoxy
  1369 ;;                           _lcd_puts
  1370 ;;                           _lcd_putc
  1371 ;;                    _scan_key_matrix
  1372 ;;                             _printf
  1373 ;;                            _ServoOn
  1374 ;;                       _isButtonMode
  1375 ;;                        _ButtonEnter
  1376 ;;                            _MotorON
  1377 ;;                                _Len
  1378 ;;                             _motorX
  1379 ;;                              _Xuong
  1380 ;;                                _Vao
  1381 ;;                             _motorY
  1382 ;;                                 _Ra
  1383 ;;                     _ChuyenLuoiTrai
  1384 ;;                            ___awdiv
  1385 ;;                     _ChuyenLuoiPhai
  1386 ;;                     _Cap2kXungXuong
  1387 ;;                       _Cap2kXungLen
  1388 ;;                     _isButtonNumber
  1389 ;;                             _Number
  1390 ;;                         _TinhGiaTri
  1391 ;;                     _isButtonCancel
  1392 ;;                         _isButtonUp
  1393 ;;                              _Delay
  1394 ;;                        _MotorEpTruc
  1395 ;;                           _CuaStart
  1396 ;; ---------------------------------------------------------------------------------
  1397 ;; (1) _CuaStart                                            29    29      0    5933
  1398 ;;                                             26 BANK0     29    29      0
  1399 ;;                             _motorX
  1400 ;;                        _MotorEpTruc
  1401 ;;                         _lcd_gotoxy
  1402 ;;                           _lcd_puts
  1403 ;;                             _printf
  1404 ;;                     _ChuTrinhMaiTho
  1405 ;;                           _lcd_putc
  1406 ;;                             _maidao
  1407 ;;                              _Delay
  1408 ;;                             _motorY
  1409 ;;                         _chuyenluoi
  1410 ;; ---------------------------------------------------------------------------------
  1411 ;; (2) _printf                                              14    12      2    1931
  1412 ;;                                             12 BANK0     14    12      2
  1413 ;;                              _putch
  1414 ;;                            ___lwdiv
  1415 ;;                            ___lwmod
  1416 ;; ---------------------------------------------------------------------------------
  1417 ;; (3) _putch                                                1     1      0     895
  1418 ;;                                             10 BANK0      1     1      0
  1419 ;;                           _lcd_putc
  1420 ;; ---------------------------------------------------------------------------------
  1421 ;; (2) _lcd_puts                                             2     2      0     929
  1422 ;;                                             10 BANK0      2     2      0
  1423 ;;                           _lcd_putc
  1424 ;; ---------------------------------------------------------------------------------
  1425 ;; (2) _ChuTrinhMaiTho                                       9     9      0     355
  1426 ;;                                             12 BANK0      9     9      0
  1427 ;;                        _MotorEpTruc
  1428 ;;                             _maidao
  1429 ;;                              _Delay
  1430 ;; ---------------------------------------------------------------------------------
  1431 ;; (2) _lcd_putc                                             2     2      0     864
  1432 ;;                                              8 BANK0      2     2      0
  1433 ;;                       _lcd_put_byte
  1434 ;;                           _lcd_busy
  1435 ;;                         _lcd_gotoxy
  1436 ;; ---------------------------------------------------------------------------------
  1437 ;; (2) _maidao                                               8     8      0     213
  1438 ;;                                              4 BANK0      8     8      0
  1439 ;;                             ___wmul
  1440 ;;                             _motorX
  1441 ;; ---------------------------------------------------------------------------------
  1442 ;; (3) _lcd_gotoxy                                           4     3      1     455
  1443 ;;                                              4 BANK0      4     3      1
  1444 ;;                       _lcd_put_byte
  1445 ;;                           _lcd_busy
  1446 ;; ---------------------------------------------------------------------------------
  1447 ;; (1) _lcd_init                                             4     4      0     347
  1448 ;;                                              4 BANK0      3     3      0
  1449 ;;                       _lcd_put_byte
  1450 ;;                           _lcd_busy
  1451 ;; ---------------------------------------------------------------------------------
  1452 ;; (4) _lcd_busy                                             2     2      0      34
  1453 ;;                                              4 COMMON     2     2      0
  1454 ;; ---------------------------------------------------------------------------------
  1455 ;; (4) _lcd_put_byte                                         5     4      1     313
  1456 ;;                                              4 COMMON     1     0      1
  1457 ;;                                              0 BANK0      4     4      0
  1458 ;; ---------------------------------------------------------------------------------
  1459 ;; (2) _chuyenluoi                                          10    10      0     525
  1460 ;;                                              8 BANK0     10    10      0
  1461 ;;                            ___awdiv
  1462 ;; ---------------------------------------------------------------------------------
  1463 ;; (3) _MotorEpTruc                                          2     2      0       0
  1464 ;;                                              4 COMMON     2     2      0
  1465 ;; ---------------------------------------------------------------------------------
  1466 ;; (2) _Delay                                                6     6      0      68
  1467 ;;                                              0 BANK0      6     6      0
  1468 ;; ---------------------------------------------------------------------------------
  1469 ;; (1) _TinhGiaTri                                          12    10      2     238
  1470 ;;                                              4 BANK0     12    10      2
  1471 ;;                             ___wmul
  1472 ;; ---------------------------------------------------------------------------------
  1473 ;; (2) _motorY                                               2     2      0       0
  1474 ;;                                              4 COMMON     2     2      0
  1475 ;; ---------------------------------------------------------------------------------
  1476 ;; (3) _motorX                                               2     2      0       0
  1477 ;;                                              4 COMMON     2     2      0
  1478 ;; ---------------------------------------------------------------------------------
  1479 ;; (3) ___awdiv                                              9     5      4     445
  1480 ;;                                              4 COMMON     1     1      0
  1481 ;;                                              0 BANK0      8     4      4
  1482 ;; ---------------------------------------------------------------------------------
  1483 ;; (3) ___lwmod                                              6     2      4     232
  1484 ;;                                              5 COMMON     1     1      0
  1485 ;;                                              7 BANK0      5     1      4
  1486 ;;                            ___lwdiv (ARG)
  1487 ;; ---------------------------------------------------------------------------------
  1488 ;; (3) ___lwdiv                                              8     4      4     241
  1489 ;;                                              4 COMMON     1     1      0
  1490 ;;                                              0 BANK0      7     3      4
  1491 ;; ---------------------------------------------------------------------------------
  1492 ;; (3) ___wmul                                               6     2      4     136
  1493 ;;                                              4 COMMON     2     2      0
  1494 ;;                                              0 BANK0      4     0      4
  1495 ;; ---------------------------------------------------------------------------------
  1496 ;; (1) _isButtonUp                                           0     0      0       0
  1497 ;; ---------------------------------------------------------------------------------
  1498 ;; (1) _isButtonCancel                                       0     0      0       0
  1499 ;; ---------------------------------------------------------------------------------
  1500 ;; (1) _Number                                               2     0      2       0
  1501 ;;                                              4 COMMON     2     0      2
  1502 ;; ---------------------------------------------------------------------------------
  1503 ;; (1) _isButtonNumber                                       4     4      0     130
  1504 ;;                                              4 COMMON     1     1      0
  1505 ;;                                              0 BANK0      3     3      0
  1506 ;; ---------------------------------------------------------------------------------
  1507 ;; (1) _Cap2kXungLen                                         0     0      0       0
  1508 ;; ---------------------------------------------------------------------------------
  1509 ;; (1) _Cap2kXungXuong                                       0     0      0       0
  1510 ;; ---------------------------------------------------------------------------------
  1511 ;; (1) _ChuyenLuoiPhai                                       0     0      0       0
  1512 ;; ---------------------------------------------------------------------------------
  1513 ;; (1) _ChuyenLuoiTrai                                       0     0      0       0
  1514 ;; ---------------------------------------------------------------------------------
  1515 ;; (1) _Ra                                                   0     0      0       0
  1516 ;; ---------------------------------------------------------------------------------
  1517 ;; (1) _Vao                                                  0     0      0       0
  1518 ;; ---------------------------------------------------------------------------------
  1519 ;; (1) _Xuong                                                0     0      0       0
  1520 ;; ---------------------------------------------------------------------------------
  1521 ;; (1) _Len                                                  0     0      0       0
  1522 ;; ---------------------------------------------------------------------------------
  1523 ;; (1) _MotorON                                              0     0      0       0
  1524 ;; ---------------------------------------------------------------------------------
  1525 ;; (1) _ButtonEnter                                          0     0      0       0
  1526 ;; ---------------------------------------------------------------------------------
  1527 ;; (1) _isButtonMode                                         0     0      0       0
  1528 ;; ---------------------------------------------------------------------------------
  1529 ;; (1) _ServoOn                                              0     0      0       0
  1530 ;; ---------------------------------------------------------------------------------
  1531 ;; (1) _scan_key_matrix                                     12    12      0     384
  1532 ;;                                              0 BANK0     12    12      0
  1533 ;; ---------------------------------------------------------------------------------
  1534 ;; (1) _system1                                              0     0      0       0
  1535 ;; ---------------------------------------------------------------------------------
  1536 ;; Estimated maximum stack depth 4
  1537 ;; ---------------------------------------------------------------------------------
  1538 ;; (Depth) Function   	        Calls       Base Space   Used Autos Params    Refs
  1539 ;; ---------------------------------------------------------------------------------
  1540 ;; (7) _isr                                                  4     4      0       0
  1541 ;;                                              0 COMMON     4     4      0
  1542 ;; ---------------------------------------------------------------------------------
  1543 ;; Estimated maximum stack depth 7
  1544 ;; ---------------------------------------------------------------------------------
  1545                           
  1546 ;; Call Graph Graphs:
  1547                           
  1548 ;; _main (ROOT)
  1549 ;;   _system1
  1550 ;;   _lcd_init
  1551 ;;     _lcd_put_byte
  1552 ;;     _lcd_busy
  1553 ;;   _lcd_gotoxy
  1554 ;;     _lcd_put_byte
  1555 ;;     _lcd_busy
  1556 ;;   _lcd_puts
  1557 ;;     _lcd_putc
  1558 ;;       _lcd_put_byte
  1559 ;;       _lcd_busy
  1560 ;;       _lcd_gotoxy
  1561 ;;         _lcd_put_byte
  1562 ;;         _lcd_busy
  1563 ;;   _lcd_putc
  1564 ;;     _lcd_put_byte
  1565 ;;     _lcd_busy
  1566 ;;     _lcd_gotoxy
  1567 ;;       _lcd_put_byte
  1568 ;;       _lcd_busy
  1569 ;;   _scan_key_matrix
  1570 ;;   _printf
  1571 ;;     _putch
  1572 ;;       _lcd_putc
  1573 ;;         _lcd_put_byte
  1574 ;;         _lcd_busy
  1575 ;;         _lcd_gotoxy
  1576 ;;           _lcd_put_byte
  1577 ;;           _lcd_busy
  1578 ;;     ___lwdiv
  1579 ;;     ___lwmod
  1580 ;;       ___lwdiv (ARG)
  1581 ;;   _ServoOn
  1582 ;;   _isButtonMode
  1583 ;;   _ButtonEnter
  1584 ;;   _MotorON
  1585 ;;   _Len
  1586 ;;   _motorX
  1587 ;;   _Xuong
  1588 ;;   _Vao
  1589 ;;   _motorY
  1590 ;;   _Ra
  1591 ;;   _ChuyenLuoiTrai
  1592 ;;   ___awdiv
  1593 ;;   _ChuyenLuoiPhai
  1594 ;;   _Cap2kXungXuong
  1595 ;;   _Cap2kXungLen
  1596 ;;   _isButtonNumber
  1597 ;;   _Number
  1598 ;;   _TinhGiaTri
  1599 ;;     ___wmul
  1600 ;;   _isButtonCancel
  1601 ;;   _isButtonUp
  1602 ;;   _Delay
  1603 ;;   _MotorEpTruc
  1604 ;;   _CuaStart
  1605 ;;     _motorX
  1606 ;;     _MotorEpTruc
  1607 ;;     _lcd_gotoxy
  1608 ;;       _lcd_put_byte
  1609 ;;       _lcd_busy
  1610 ;;     _lcd_puts
  1611 ;;       _lcd_putc
  1612 ;;         _lcd_put_byte
  1613 ;;         _lcd_busy
  1614 ;;         _lcd_gotoxy
  1615 ;;           _lcd_put_byte
  1616 ;;           _lcd_busy
  1617 ;;     _printf
  1618 ;;       _putch
  1619 ;;         _lcd_putc
  1620 ;;           _lcd_put_byte
  1621 ;;           _lcd_busy
  1622 ;;           _lcd_gotoxy
  1623 ;;             _lcd_put_byte
  1624 ;;             _lcd_busy
  1625 ;;       ___lwdiv
  1626 ;;       ___lwmod
  1627 ;;         ___lwdiv (ARG)
  1628 ;;     _ChuTrinhMaiTho
  1629 ;;       _MotorEpTruc
  1630 ;;       _maidao
  1631 ;;         ___wmul
  1632 ;;         _motorX
  1633 ;;       _Delay
  1634 ;;     _lcd_putc
  1635 ;;       _lcd_put_byte
  1636 ;;       _lcd_busy
  1637 ;;       _lcd_gotoxy
  1638 ;;         _lcd_put_byte
  1639 ;;         _lcd_busy
  1640 ;;     _maidao
  1641 ;;       ___wmul
  1642 ;;       _motorX
  1643 ;;     _Delay
  1644 ;;     _motorY
  1645 ;;     _chuyenluoi
  1646 ;;       ___awdiv
  1647 ;;
  1648 ;; _isr (ROOT)
  1649 ;;
  1650                           
  1651 ;; Address spaces:
  1652                           
  1653 ;;Name               Size   Autos  Total    Cost      Usage
  1654 ;;BANK3               60     16      26       9       39.6%
  1655 ;;BITBANK3            60      0       0       8        0.0%
  1656 ;;SFR3                 0      0       0       4        0.0%
  1657 ;;BITSFR3              0      0       0       4        0.0%
  1658 ;;BANK2               60      0       0      11        0.0%
  1659 ;;BITBANK2            60      0       0      10        0.0%
  1660 ;;SFR2                 0      0       0       5        0.0%
  1661 ;;BITSFR2              0      0       0       5        0.0%
  1662 ;;SFR1                 0      0       0       2        0.0%
  1663 ;;BITSFR1              0      0       0       2        0.0%
  1664 ;;BANK1               50      0      44       7       85.0%
  1665 ;;BITBANK1            50      0       0       6        0.0%
  1666 ;;CODE                 0      0       0       0        0.0%
  1667 ;;DATA                 0      0      B8      12        0.0%
  1668 ;;ABS                  0      0      B2       3        0.0%
  1669 ;;NULL                 0      0       0       0        0.0%
  1670 ;;STACK                0      0       6       2        0.0%
  1671 ;;BANK0               50     3A      3E       5       77.5%
  1672 ;;BITBANK0            50      0       0       4        0.0%
  1673 ;;SFR0                 0      0       0       1        0.0%
  1674 ;;BITSFR0              0      0       0       1        0.0%
  1675 ;;COMMON               E      6       A       1       71.4%
  1676 ;;BITCOMMON            E      0       0       0        0.0%
  1677 ;;EEDATA             100      0       0       0        0.0%
  1678                           
  1679                           	global	_main
  1680                           psect	maintext,global,class=CODE,delta=2
  1681                           global __pmaintext
  1682  0A55                     __pmaintext:
  1683                           
  1684 ;; *************** function _main *****************
  1685 ;; Defined at:
  1686 ;;		line 35 in file "main.c"
  1687 ;; Parameters:    Size  Location     Type
  1688 ;;		None
  1689 ;; Auto vars:     Size  Location     Type
  1690 ;;  i               2   20[BANK3 ] int 
  1691 ;;  po              2   18[BANK3 ] int 
  1692 ;;  po              2   16[BANK3 ] int 
  1693 ;;  i               2   14[BANK3 ] unsigned int 
  1694 ;;  i               2   10[BANK3 ] unsigned int 
  1695 ;;  pulse           2   12[BANK3 ] int 
  1696 ;;  count           2    6[BANK3 ] int 
  1697 ;;  tong            2    4[BANK3 ] int 
  1698 ;;  pulse           2    8[BANK3 ] int 
  1699 ;;  count           2    2[BANK3 ] int 
  1700 ;;  tong            2    0[BANK3 ] int 
  1701 ;; Return value:  Size  Location     Type
  1702 ;;		None               void
  1703 ;; Registers used:
  1704 ;;		wreg, fsr0l, fsr0h, status,2, status,0, btemp+1, pclath, cstack
  1705 ;; Tracked objects:
  1706 ;;		On entry : 17F/0
  1707 ;;		On exit  : 0/0
  1708 ;;		Unchanged: 0/0
  1709 ;; Data sizes:     COMMON   BANK0   BANK1   BANK3   BANK2
  1710 ;;      Params:         0       0       0       0       0
  1711 ;;      Locals:         0       0       0      22       0
  1712 ;;      Temps:          0       3       0       0       0
  1713 ;;      Totals:         0       3       0      22       0
  1714 ;;Total ram usage:       25 bytes
  1715 ;; Hardware stack levels required when called:    7
  1716 ;; This function calls:
  1717 ;;		_system1
  1718 ;;		_lcd_init
  1719 ;;		_lcd_gotoxy
  1720 ;;		_lcd_puts
  1721 ;;		_lcd_putc
  1722 ;;		_scan_key_matrix
  1723 ;;		_printf
  1724 ;;		_ServoOn
  1725 ;;		_isButtonMode
  1726 ;;		_ButtonEnter
  1727 ;;		_MotorON
  1728 ;;		_Len
  1729 ;;		_motorX
  1730 ;;		_Xuong
  1731 ;;		_Vao
  1732 ;;		_motorY
  1733 ;;		_Ra
  1734 ;;		_ChuyenLuoiTrai
  1735 ;;		___awdiv
  1736 ;;		_ChuyenLuoiPhai
  1737 ;;		_Cap2kXungXuong
  1738 ;;		_Cap2kXungLen
  1739 ;;		_isButtonNumber
  1740 ;;		_Number
  1741 ;;		_TinhGiaTri
  1742 ;;		_isButtonCancel
  1743 ;;		_isButtonUp
  1744 ;;		_Delay
  1745 ;;		_MotorEpTruc
  1746 ;;		_CuaStart
  1747 ;; This function is called by:
  1748 ;;		Startup code after reset
  1749 ;; This function uses a non-reentrant model
  1750 ;;
  1751                           psect	maintext
  1752                           	file	"main.c"
  1753                           	global	__size_of_main
  1754  F5AB                     	__size_of_main	equ	__end_of_main-_main
  1755                           	
  1756  0A55                     _main:	
  1757                           	opt	stack 1
  1758                           ; Regs used in _main: [wreg-fsr0h+status,2+status,0+btemp+1+pclath+cstack]
  1759                           	line	36
  1760                           	
  1761  0A55                     l13524:	
  1762                           ;main.c: 36: ANSEL = 0;
  1763  0A55  1683               	bsf	status, 5	;RP0=1, select bank3
  1764  0A56  1703               	bsf	status, 6	;RP1=1, select bank3
  1765  0A57  0188               	clrf	(392)^0180h	;volatile
  1766                           	line	37
  1767                           ;main.c: 37: ANSELH = 0;
  1768  0A58  0189               	clrf	(393)^0180h	;volatile
  1769                           	line	38
  1770                           	
  1771  0A59                     l13526:	
  1772                           ;main.c: 38: system1();
  1773  0A59  160A  158A  265E   	fcall	_system1
              120A  158A         
  1774                           	line	39
  1775                           	
  1776  0A5E                     l13528:	
  1777                           ;main.c: 39: lcd_init();
  1778  0A5E  160A  118A  26E0   	fcall	_lcd_init
              120A  158A         
  1779                           	line	40
  1780                           	
  1781  0A63                     l13530:	
  1782                           ;main.c: 40: nRBPU = 0;
  1783  0A63  1683               	bsf	status, 5	;RP0=1, select bank1
  1784  0A64  1303               	bcf	status, 6	;RP1=0, select bank1
  1785  0A65  1381               	bcf	(1039/8)^080h,(1039)&7
  1786                           	line	42
  1787                           	
  1788  0A66                     l13532:	
  1789                           ;main.c: 42: WPUB = 0b11100001;
  1790  0A66  30E1               	movlw	(0E1h)
  1791  0A67  0095               	movwf	(149)^080h	;volatile
  1792                           	line	43
  1793                           	
  1794  0A68                     l13534:	
  1795                           ;main.c: 43: INTEDG = 0;
  1796  0A68  1301               	bcf	(1038/8)^080h,(1038)&7
  1797                           	line	44
  1798                           	
  1799  0A69                     l13536:	
  1800                           ;main.c: 44: INTF = 0;
  1801  0A69  108B               	bcf	(89/8),(89)&7
  1802                           	line	45
  1803                           	
  1804  0A6A                     l13538:	
  1805                           ;main.c: 45: INTE = 1;
  1806  0A6A  160B               	bsf	(92/8),(92)&7
  1807                           	line	46
  1808                           	
  1809  0A6B                     l13540:	
  1810                           ;main.c: 46: GIE = 1;
  1811  0A6B  178B               	bsf	(95/8),(95)&7
  1812                           	line	50
  1813                           	
  1814  0A6C                     l13542:	
  1815                           ;main.c: 50: lcd_gotoxy(0, 0);
  1816  0A6C  1283               	bcf	status, 5	;RP0=0, select bank0
  1817  0A6D  1303               	bcf	status, 6	;RP1=0, select bank0
  1818  0A6E  01A4               	clrf	(?_lcd_gotoxy)
  1819  0A6F  3000               	movlw	(0)
  1820  0A70  160A  118A  2152   	fcall	_lcd_gotoxy
              120A  158A         
  1821                           	line	51
  1822                           	
  1823  0A75                     l13544:	
  1824                           ;main.c: 51: lcd_puts("Do An Tot Nghiep");
  1825  0A75  302F               	movlw	((STR_1-__stringbase))&0ffh
  1826  0A76  160A  118A  20C5   	fcall	_lcd_puts
              120A  158A         
  1827                           	line	52
  1828                           	
  1829  0A7B                     l13546:	
  1830                           ;main.c: 52: _delay((unsigned long)((1000)*(8000000/4000.0)));
  1831                           	opt asmopt_off
  1832  0A7B  300B               movlw  11
  1833  0A7C  1283               	bcf	status, 5	;RP0=0, select bank0
  1834  0A7D  1303               	bcf	status, 6	;RP1=0, select bank0
  1835  0A7E  00D9               movwf	((??_main+0)+0+2),f
  1836  0A7F  3026               movlw	38
  1837  0A80  00D8               movwf	((??_main+0)+0+1),f
  1838  0A81  3066               	movlw	102
  1839  0A82  00D7               movwf	((??_main+0)+0),f
  1840  0A83                     u10497:
  1841  0A83  0BD7               	decfsz	((??_main+0)+0),f
  1842  0A84  2A83               	goto	u10497
  1843  0A85  0BD8               	decfsz	((??_main+0)+0+1),f
  1844  0A86  2A83               	goto	u10497
  1845  0A87  0BD9               	decfsz	((??_main+0)+0+2),f
  1846  0A88  2A83               	goto	u10497
  1847  0A89  2A8A               	nop2
  1848                           opt asmopt_on
  1849                           
  1850                           	line	53
  1851                           	
  1852  0A8A                     l13548:	
  1853                           ;main.c: 53: lcd_putc('\f');
  1854  0A8A  300C               	movlw	(0Ch)
  1855  0A8B  160A  118A  23B9   	fcall	_lcd_putc
              120A  158A         
  1856  0A90  2A91               	goto	l13550
  1857                           	line	54
  1858                           ;main.c: 54: while (1) {
  1859                           	
  1860  0A91                     l1157:	
  1861                           	line	55
  1862                           	
  1863  0A91                     l13550:	
  1864                           ;main.c: 55: scan_key_matrix();
  1865  0A91  160A  118A  257E   	fcall	_scan_key_matrix
              120A  158A         
  1866                           	line	56
  1867                           ;main.c: 56: switch (statusMachine) {
  1868  0A96  120A  118A  2FAB   	goto	l14070
  1869                           	line	57
  1870                           ;main.c: 57: case 101:
  1871                           	
  1872  0A99                     l1159:	
  1873                           	line	58
  1874                           ;main.c: 58: RC7 = 1;
  1875  0A99  1283               	bcf	status, 5	;RP0=0, select bank0
  1876  0A9A  1303               	bcf	status, 6	;RP1=0, select bank0
  1877  0A9B  1787               	bsf	(63/8),(63)&7
  1878                           	line	59
  1879                           	
  1880  0A9C                     l13552:	
  1881                           ;main.c: 59: lcd_gotoxy(0, 0);
  1882  0A9C  01A4               	clrf	(?_lcd_gotoxy)
  1883  0A9D  3000               	movlw	(0)
  1884  0A9E  160A  118A  2152   	fcall	_lcd_gotoxy
              120A  158A         
  1885                           	line	60
  1886                           ;main.c: 60: lcd_puts("SO LUOI:");
  1887  0AA3  3081               	movlw	((STR_2-__stringbase))&0ffh
  1888  0AA4  160A  118A  20C5   	fcall	_lcd_puts
              120A  158A         
  1889                           	line	61
  1890                           ;main.c: 61: lcd_gotoxy(12, 0);
  1891  0AA9  1283               	bcf	status, 5	;RP0=0, select bank0
  1892  0AAA  1303               	bcf	status, 6	;RP1=0, select bank0
  1893  0AAB  01A4               	clrf	(?_lcd_gotoxy)
  1894  0AAC  300C               	movlw	(0Ch)
  1895  0AAD  160A  118A  2152   	fcall	_lcd_gotoxy
              120A  158A         
  1896                           	line	62
  1897                           	
  1898  0AB2                     l13554:	
  1899                           ;main.c: 62: printf("%d", SoLuoi);
  1900  0AB2  1283               	bcf	status, 5	;RP0=0, select bank0
  1901  0AB3  1303               	bcf	status, 6	;RP1=0, select bank0
  1902  0AB4  085D               	movf	(_SoLuoi),w
  1903  0AB5  00D7               	movwf	(??_main+0)+0
  1904  0AB6  01D8               	clrf	(??_main+0)+0+1
  1905  0AB7  0857               	movf	0+(??_main+0)+0,w
  1906  0AB8  00AC               	movwf	(?_printf)
  1907  0AB9  0858               	movf	1+(??_main+0)+0,w
  1908  0ABA  00AD               	movwf	(?_printf+1)
  1909  0ABB  30BA               	movlw	((STR_3-__stringbase))&0ffh
  1910  0ABC  120A  158A  200D   	fcall	_printf
              120A  158A         
  1911                           	line	63
  1912                           	
  1913  0AC1                     l13556:	
  1914                           ;main.c: 63: lcd_gotoxy(0, 1);
  1915  0AC1  1283               	bcf	status, 5	;RP0=0, select bank0
  1916  0AC2  1303               	bcf	status, 6	;RP1=0, select bank0
  1917  0AC3  01A4               	clrf	(?_lcd_gotoxy)
  1918  0AC4  1403               	bsf	status,0
  1919  0AC5  0DA4               	rlf	(?_lcd_gotoxy),f
  1920  0AC6  3000               	movlw	(0)
  1921  0AC7  160A  118A  2152   	fcall	_lcd_gotoxy
              120A  158A         
  1922                           	line	64
  1923                           	
  1924  0ACC                     l13558:	
  1925                           ;main.c: 64: lcd_puts("CHIEU DAI:");
  1926  0ACC  3064               	movlw	((STR_4-__stringbase))&0ffh
  1927  0ACD  160A  118A  20C5   	fcall	_lcd_puts
              120A  158A         
  1928                           	line	65
  1929                           	
  1930  0AD2                     l13560:	
  1931                           ;main.c: 65: lcd_gotoxy(15, 1);
  1932  0AD2  1283               	bcf	status, 5	;RP0=0, select bank0
  1933  0AD3  1303               	bcf	status, 6	;RP1=0, select bank0
  1934  0AD4  01A4               	clrf	(?_lcd_gotoxy)
  1935  0AD5  1403               	bsf	status,0
  1936  0AD6  0DA4               	rlf	(?_lcd_gotoxy),f
  1937  0AD7  300F               	movlw	(0Fh)
  1938  0AD8  160A  118A  2152   	fcall	_lcd_gotoxy
              120A  158A         
  1939                           	line	66
  1940                           	
  1941  0ADD                     l13562:	
  1942                           ;main.c: 66: lcd_puts("MM");
  1943  0ADD  30B4               	movlw	((STR_5-__stringbase))&0ffh
  1944  0ADE  160A  118A  20C5   	fcall	_lcd_puts
              120A  158A         
  1945                           	line	67
  1946                           	
  1947  0AE3                     l13564:	
  1948                           ;main.c: 67: lcd_gotoxy(12, 1);
  1949  0AE3  1283               	bcf	status, 5	;RP0=0, select bank0
  1950  0AE4  1303               	bcf	status, 6	;RP1=0, select bank0
  1951  0AE5  01A4               	clrf	(?_lcd_gotoxy)
  1952  0AE6  1403               	bsf	status,0
  1953  0AE7  0DA4               	rlf	(?_lcd_gotoxy),f
  1954  0AE8  300C               	movlw	(0Ch)
  1955  0AE9  160A  118A  2152   	fcall	_lcd_gotoxy
              120A  158A         
  1956                           	line	68
  1957                           ;main.c: 68: printf("%d", ChieuDai);
  1958  0AEE  0877               	movf	(_ChieuDai+1),w
  1959  0AEF  1283               	bcf	status, 5	;RP0=0, select bank0
  1960  0AF0  1303               	bcf	status, 6	;RP1=0, select bank0
  1961  0AF1  01AD               	clrf	(?_printf+1)
  1962  0AF2  07AD               	addwf	(?_printf+1)
  1963  0AF3  0876               	movf	(_ChieuDai),w
  1964  0AF4  01AC               	clrf	(?_printf)
  1965  0AF5  07AC               	addwf	(?_printf)
  1966                           
  1967  0AF6  30BA               	movlw	((STR_6-__stringbase))&0ffh
  1968  0AF7  120A  158A  200D   	fcall	_printf
              120A  158A         
  1969                           	line	69
  1970                           	
  1971  0AFC                     l13566:	
  1972                           ;main.c: 69: lcd_gotoxy(0, 2);
  1973  0AFC  3002               	movlw	(02h)
  1974  0AFD  1283               	bcf	status, 5	;RP0=0, select bank0
  1975  0AFE  1303               	bcf	status, 6	;RP1=0, select bank0
  1976  0AFF  00D7               	movwf	(??_main+0)+0
  1977  0B00  0857               	movf	(??_main+0)+0,w
  1978  0B01  00A4               	movwf	(?_lcd_gotoxy)
  1979  0B02  3000               	movlw	(0)
  1980  0B03  160A  118A  2152   	fcall	_lcd_gotoxy
              120A  158A         
  1981                           	line	70
  1982                           	
  1983  0B08                     l13568:	
  1984                           ;main.c: 70: lcd_puts("SO LAN MAI:");
  1985  0B08  3040               	movlw	((STR_7-__stringbase))&0ffh
  1986  0B09  160A  118A  20C5   	fcall	_lcd_puts
              120A  158A         
  1987                           	line	71
  1988                           	
  1989  0B0E                     l13570:	
  1990                           ;main.c: 71: lcd_gotoxy(12, 2);
  1991  0B0E  3002               	movlw	(02h)
  1992  0B0F  1283               	bcf	status, 5	;RP0=0, select bank0
  1993  0B10  1303               	bcf	status, 6	;RP1=0, select bank0
  1994  0B11  00D7               	movwf	(??_main+0)+0
  1995  0B12  0857               	movf	(??_main+0)+0,w
  1996  0B13  00A4               	movwf	(?_lcd_gotoxy)
  1997  0B14  300C               	movlw	(0Ch)
  1998  0B15  160A  118A  2152   	fcall	_lcd_gotoxy
              120A  158A         
  1999                           	line	72
  2000                           	
  2001  0B1A                     l13572:	
  2002                           ;main.c: 72: printf("%d", LanMai);
  2003  0B1A  1283               	bcf	status, 5	;RP0=0, select bank0
  2004  0B1B  1303               	bcf	status, 6	;RP1=0, select bank0
  2005  0B1C  085B               	movf	(_LanMai),w
  2006  0B1D  00D7               	movwf	(??_main+0)+0
  2007  0B1E  01D8               	clrf	(??_main+0)+0+1
  2008  0B1F  0857               	movf	0+(??_main+0)+0,w
  2009  0B20  00AC               	movwf	(?_printf)
  2010  0B21  0858               	movf	1+(??_main+0)+0,w
  2011  0B22  00AD               	movwf	(?_printf+1)
  2012  0B23  30BA               	movlw	((STR_8-__stringbase))&0ffh
  2013  0B24  120A  158A  200D   	fcall	_printf
              120A  158A         
  2014                           	line	73
  2015                           ;main.c: 73: lcd_gotoxy(0, 3);
  2016  0B29  3003               	movlw	(03h)
  2017  0B2A  1283               	bcf	status, 5	;RP0=0, select bank0
  2018  0B2B  1303               	bcf	status, 6	;RP1=0, select bank0
  2019  0B2C  00D7               	movwf	(??_main+0)+0
  2020  0B2D  0857               	movf	(??_main+0)+0,w
  2021  0B2E  00A4               	movwf	(?_lcd_gotoxy)
  2022  0B2F  3000               	movlw	(0)
  2023  0B30  160A  118A  2152   	fcall	_lcd_gotoxy
              120A  158A         
  2024                           	line	74
  2025                           ;main.c: 74: lcd_puts("DO EP:");
  2026  0B35  30A3               	movlw	((STR_9-__stringbase))&0ffh
  2027  0B36  160A  118A  20C5   	fcall	_lcd_puts
              120A  158A         
  2028                           	line	75
  2029                           ;main.c: 75: lcd_gotoxy(15, 3);
  2030  0B3B  3003               	movlw	(03h)
  2031  0B3C  1283               	bcf	status, 5	;RP0=0, select bank0
  2032  0B3D  1303               	bcf	status, 6	;RP1=0, select bank0
  2033  0B3E  00D7               	movwf	(??_main+0)+0
  2034  0B3F  0857               	movf	(??_main+0)+0,w
  2035  0B40  00A4               	movwf	(?_lcd_gotoxy)
  2036  0B41  300F               	movlw	(0Fh)
  2037  0B42  160A  118A  2152   	fcall	_lcd_gotoxy
              120A  158A         
  2038                           	line	76
  2039                           ;main.c: 76: lcd_puts("UM");
  2040  0B47  30B7               	movlw	((STR_10-__stringbase))&0ffh
  2041  0B48  160A  118A  20C5   	fcall	_lcd_puts
              120A  158A         
  2042                           	line	77
  2043                           ;main.c: 77: lcd_gotoxy(12, 3);
  2044  0B4D  3003               	movlw	(03h)
  2045  0B4E  1283               	bcf	status, 5	;RP0=0, select bank0
  2046  0B4F  1303               	bcf	status, 6	;RP1=0, select bank0
  2047  0B50  00D7               	movwf	(??_main+0)+0
  2048  0B51  0857               	movf	(??_main+0)+0,w
  2049  0B52  00A4               	movwf	(?_lcd_gotoxy)
  2050  0B53  300C               	movlw	(0Ch)
  2051  0B54  160A  118A  2152   	fcall	_lcd_gotoxy
              120A  158A         
  2052                           	line	78
  2053                           	
  2054  0B59                     l13574:	
  2055                           ;main.c: 78: printf("%d", DoEp);
  2056  0B59  1283               	bcf	status, 5	;RP0=0, select bank0
  2057  0B5A  1303               	bcf	status, 6	;RP1=0, select bank0
  2058  0B5B  085A               	movf	(_DoEp),w
  2059  0B5C  00D7               	movwf	(??_main+0)+0
  2060  0B5D  01D8               	clrf	(??_main+0)+0+1
  2061  0B5E  0857               	movf	0+(??_main+0)+0,w
  2062  0B5F  00AC               	movwf	(?_printf)
  2063  0B60  0858               	movf	1+(??_main+0)+0,w
  2064  0B61  00AD               	movwf	(?_printf+1)
  2065  0B62  30BA               	movlw	((STR_11-__stringbase))&0ffh
  2066  0B63  120A  158A  200D   	fcall	_printf
              120A  158A         
  2067                           	line	79
  2068                           	
  2069  0B68                     l13576:	
  2070                           ;main.c: 79: if (ServoOn()) {
  2071  0B68  160A  158A  25BC   	fcall	_ServoOn
              120A  158A         
  2072  0B6D  3A00               	xorlw	0
  2073  0B6E  1903               	skipnz
  2074  0B6F  2B71               	goto	u9841
  2075  0B70  2B72               	goto	u9840
  2076  0B71                     u9841:
  2077  0B71  2B87               	goto	l13584
  2078  0B72                     u9840:
  2079                           	line	80
  2080                           	
  2081  0B72                     l13578:	
  2082                           ;main.c: 80: countSV++;
  2083  0B72  3001               	movlw	(01h)
  2084  0B73  1283               	bcf	status, 5	;RP0=0, select bank0
  2085  0B74  1303               	bcf	status, 6	;RP1=0, select bank0
  2086  0B75  00D7               	movwf	(??_main+0)+0
  2087  0B76  0857               	movf	(??_main+0)+0,w
  2088  0B77  1683               	bsf	status, 5	;RP0=1, select bank1
  2089  0B78  1303               	bcf	status, 6	;RP1=0, select bank1
  2090  0B79  07D0               	addwf	(_countSV)^080h,f
  2091                           	line	81
  2092                           	
  2093  0B7A                     l13580:	
  2094                           ;main.c: 81: if(countSV%2==0)
  2095  0B7A  1850               	btfsc	(_countSV)^080h,(0)&7
  2096  0B7B  2B7D               	goto	u9851
  2097  0B7C  2B7E               	goto	u9850
  2098  0B7D                     u9851:
  2099  0B7D  2B82               	goto	l1161
  2100  0B7E                     u9850:
  2101                           	line	83
  2102                           	
  2103  0B7E                     l13582:	
  2104                           ;main.c: 82: {
  2105                           ;main.c: 83: RB1 = 0;
  2106  0B7E  1283               	bcf	status, 5	;RP0=0, select bank0
  2107  0B7F  1303               	bcf	status, 6	;RP1=0, select bank0
  2108  0B80  1086               	bcf	(49/8),(49)&7
  2109                           	line	84
  2110                           ;main.c: 84: }
  2111  0B81  2B85               	goto	l1162
  2112                           	line	85
  2113                           	
  2114  0B82                     l1161:	
  2115                           	line	86
  2116                           ;main.c: 85: else
  2117                           ;main.c: 86: RB1 = 1;
  2118  0B82  1283               	bcf	status, 5	;RP0=0, select bank0
  2119  0B83  1303               	bcf	status, 6	;RP1=0, select bank0
  2120  0B84  1486               	bsf	(49/8),(49)&7
  2121                           	
  2122  0B85                     l1162:	
  2123                           	line	87
  2124                           ;main.c: 87: STOP = 0;
  2125  0B85  01DC               	clrf	(_STOP)	;volatile
  2126  0B86  2B87               	goto	l13584
  2127                           	line	88
  2128                           	
  2129  0B87                     l1160:	
  2130                           	line	89
  2131                           	
  2132  0B87                     l13584:	
  2133                           ;main.c: 88: }
  2134                           ;main.c: 89: if (isButtonMode()) {
  2135  0B87  160A  158A  25CD   	fcall	_isButtonMode
              120A  158A         
  2136  0B8C  3A00               	xorlw	0
  2137  0B8D  1903               	skipnz
  2138  0B8E  2B90               	goto	u9861
  2139  0B8F  2B91               	goto	u9860
  2140  0B90                     u9861:
  2141  0B90  2B9A               	goto	l13588
  2142  0B91                     u9860:
  2143                           	line	90
  2144                           	
  2145  0B91                     l13586:	
  2146                           ;main.c: 90: statusMachine = 103;
  2147  0B91  3067               	movlw	(067h)
  2148  0B92  1283               	bcf	status, 5	;RP0=0, select bank0
  2149  0B93  1303               	bcf	status, 6	;RP1=0, select bank0
  2150  0B94  00D7               	movwf	(??_main+0)+0
  2151  0B95  0857               	movf	(??_main+0)+0,w
  2152  0B96  1683               	bsf	status, 5	;RP0=1, select bank1
  2153  0B97  1303               	bcf	status, 6	;RP1=0, select bank1
  2154  0B98  00E3               	movwf	(_statusMachine)^080h
  2155  0B99  2B9A               	goto	l13588
  2156                           	line	91
  2157                           	
  2158  0B9A                     l1163:	
  2159                           	line	92
  2160                           	
  2161  0B9A                     l13588:	
  2162                           ;main.c: 91: }
  2163                           ;main.c: 92: if (ButtonEnter()) {
  2164  0B9A  160A  158A  25DE   	fcall	_ButtonEnter
              120A  158A         
  2165  0B9F  3A00               	xorlw	0
  2166  0BA0  1903               	skipnz
  2167  0BA1  2BA3               	goto	u9871
  2168  0BA2  2BA4               	goto	u9870
  2169  0BA3                     u9871:
  2170  0BA3  2BBB               	goto	l13602
  2171  0BA4                     u9870:
  2172                           	line	93
  2173                           	
  2174  0BA4                     l13590:	
  2175                           ;main.c: 93: lcd_putc('\f');
  2176  0BA4  300C               	movlw	(0Ch)
  2177  0BA5  160A  118A  23B9   	fcall	_lcd_putc
              120A  158A         
  2178                           	line	94
  2179                           	
  2180  0BAA                     l13592:	
  2181                           ;main.c: 94: STOP = 0;
  2182  0BAA  1283               	bcf	status, 5	;RP0=0, select bank0
  2183  0BAB  1303               	bcf	status, 6	;RP1=0, select bank0
  2184  0BAC  01DC               	clrf	(_STOP)	;volatile
  2185                           	line	95
  2186                           	
  2187  0BAD                     l13594:	
  2188                           ;main.c: 95: SoLan = 0;
  2189  0BAD  1683               	bsf	status, 5	;RP0=1, select bank1
  2190  0BAE  1303               	bcf	status, 6	;RP1=0, select bank1
  2191  0BAF  01CB               	clrf	(_SoLan)^080h
  2192                           	line	96
  2193                           	
  2194  0BB0                     l13596:	
  2195                           ;main.c: 96: Luoi = 0;
  2196  0BB0  01C8               	clrf	(_Luoi)^080h
  2197                           	line	97
  2198                           	
  2199  0BB1                     l13598:	
  2200                           ;main.c: 97: SLMaiTho = 0;
  2201  0BB1  01CA               	clrf	(_SLMaiTho)^080h
  2202                           	line	98
  2203                           	
  2204  0BB2                     l13600:	
  2205                           ;main.c: 98: statusMachine = 109;
  2206  0BB2  306D               	movlw	(06Dh)
  2207  0BB3  1283               	bcf	status, 5	;RP0=0, select bank0
  2208  0BB4  1303               	bcf	status, 6	;RP1=0, select bank0
  2209  0BB5  00D7               	movwf	(??_main+0)+0
  2210  0BB6  0857               	movf	(??_main+0)+0,w
  2211  0BB7  1683               	bsf	status, 5	;RP0=1, select bank1
  2212  0BB8  1303               	bcf	status, 6	;RP1=0, select bank1
  2213  0BB9  00E3               	movwf	(_statusMachine)^080h
  2214  0BBA  2BBB               	goto	l13602
  2215                           	line	99
  2216                           	
  2217  0BBB                     l1164:	
  2218                           	line	100
  2219                           	
  2220  0BBB                     l13602:	
  2221                           ;main.c: 99: }
  2222                           ;main.c: 100: if (MotorON()) {
  2223  0BBB  160A  158A  2679   	fcall	_MotorON
              120A  158A         
  2224  0BC0  3A00               	xorlw	0
  2225  0BC1  1903               	skipnz
  2226  0BC2  2BC4               	goto	u9881
  2227  0BC3  2BC5               	goto	u9880
  2228  0BC4                     u9881:
  2229  0BC4  2BC9               	goto	l13606
  2230  0BC5                     u9880:
  2231                           	line	101
  2232                           	
  2233  0BC5                     l13604:	
  2234                           ;main.c: 101: RB3 = 1;
  2235  0BC5  1283               	bcf	status, 5	;RP0=0, select bank0
  2236  0BC6  1303               	bcf	status, 6	;RP1=0, select bank0
  2237  0BC7  1586               	bsf	(51/8),(51)&7
  2238  0BC8  2BC9               	goto	l13606
  2239                           	line	102
  2240                           	
  2241  0BC9                     l1165:	
  2242                           	line	103
  2243                           	
  2244  0BC9                     l13606:	
  2245                           ;main.c: 102: }
  2246                           ;main.c: 103: if (Len()) {
  2247  0BC9  160A  158A  2694   	fcall	_Len
              120A  158A         
  2248  0BCE  3A00               	xorlw	0
  2249  0BCF  1903               	skipnz
  2250  0BD0  2BD4               	goto	u9891
  2251  0BD1  120A  158A  28FF   	goto	u9890
  2252  0BD4                     u9891:
  2253  0BD4  120A  158A  2908   	goto	l13612
  2254  08FF                     u9890:
  2255                           	line	104
  2256                           	
  2257  08FF                     l13608:	
  2258                           ;main.c: 104: RC6 = 0;
  2259  08FF  1283               	bcf	status, 5	;RP0=0, select bank0
  2260  0900  1303               	bcf	status, 6	;RP1=0, select bank0
  2261  0901  1307               	bcf	(62/8),(62)&7
  2262                           	line	105
  2263                           	
  2264  0902                     l13610:	
  2265                           ;main.c: 105: motorX();
  2266  0902  160A  158A  2613   	fcall	_motorX
              120A  158A         
  2267  0907  2908               	goto	l13612
  2268                           	line	106
  2269                           	
  2270  0908                     l1166:	
  2271                           	line	107
  2272                           	
  2273  0908                     l13612:	
  2274                           ;main.c: 106: }
  2275                           ;main.c: 107: if (Xuong()) {
  2276  0908  160A  158A  26AF   	fcall	_Xuong
              120A  158A         
  2277  090D  3A00               	xorlw	0
  2278  090E  1903               	skipnz
  2279  090F  2911               	goto	u9901
  2280  0910  2912               	goto	u9900
  2281  0911                     u9901:
  2282  0911  291B               	goto	l13618
  2283  0912                     u9900:
  2284                           	line	108
  2285                           	
  2286  0912                     l13614:	
  2287                           ;main.c: 108: RC6 = 1;
  2288  0912  1283               	bcf	status, 5	;RP0=0, select bank0
  2289  0913  1303               	bcf	status, 6	;RP1=0, select bank0
  2290  0914  1707               	bsf	(62/8),(62)&7
  2291                           	line	109
  2292                           	
  2293  0915                     l13616:	
  2294                           ;main.c: 109: motorX();
  2295  0915  160A  158A  2613   	fcall	_motorX
              120A  158A         
  2296  091A  291B               	goto	l13618
  2297                           	line	110
  2298                           	
  2299  091B                     l1167:	
  2300                           	line	111
  2301                           	
  2302  091B                     l13618:	
  2303                           ;main.c: 110: }
  2304                           ;main.c: 111: if (Vao()) {
  2305  091B  160A  158A  26CA   	fcall	_Vao
              120A  158A         
  2306  0920  3A00               	xorlw	0
  2307  0921  1903               	skipnz
  2308  0922  2924               	goto	u9911
  2309  0923  2925               	goto	u9910
  2310  0924                     u9911:
  2311  0924  292E               	goto	l13624
  2312  0925                     u9910:
  2313                           	line	112
  2314                           	
  2315  0925                     l13620:	
  2316                           ;main.c: 112: RE2 = 0;
  2317  0925  1283               	bcf	status, 5	;RP0=0, select bank0
  2318  0926  1303               	bcf	status, 6	;RP1=0, select bank0
  2319  0927  1109               	bcf	(74/8),(74)&7
  2320                           	line	113
  2321                           	
  2322  0928                     l13622:	
  2323                           ;main.c: 113: motorY();
  2324  0928  160A  158A  262C   	fcall	_motorY
              120A  158A         
  2325  092D  292E               	goto	l13624
  2326                           	line	114
  2327                           	
  2328  092E                     l1168:	
  2329                           	line	115
  2330                           	
  2331  092E                     l13624:	
  2332                           ;main.c: 114: }
  2333                           ;main.c: 115: if (Ra()) {
  2334  092E  160A  158A  26E5   	fcall	_Ra
              120A  158A         
  2335  0933  3A00               	xorlw	0
  2336  0934  1903               	skipnz
  2337  0935  2937               	goto	u9921
  2338  0936  2938               	goto	u9920
  2339  0937                     u9921:
  2340  0937  2941               	goto	l13630
  2341  0938                     u9920:
  2342                           	line	116
  2343                           	
  2344  0938                     l13626:	
  2345                           ;main.c: 116: RE2 = 1;
  2346  0938  1283               	bcf	status, 5	;RP0=0, select bank0
  2347  0939  1303               	bcf	status, 6	;RP1=0, select bank0
  2348  093A  1509               	bsf	(74/8),(74)&7
  2349                           	line	117
  2350                           	
  2351  093B                     l13628:	
  2352                           ;main.c: 117: motorY();
  2353  093B  160A  158A  262C   	fcall	_motorY
              120A  158A         
  2354  0940  2941               	goto	l13630
  2355                           	line	118
  2356                           	
  2357  0941                     l1169:	
  2358                           	line	119
  2359                           	
  2360  0941                     l13630:	
  2361                           ;main.c: 118: }
  2362                           ;main.c: 119: if (ChuyenLuoiTrai()) {
  2363  0941  160A  158A  2700   	fcall	_ChuyenLuoiTrai
              120A  158A         
  2364  0946  3A00               	xorlw	0
  2365  0947  1903               	skipnz
  2366  0948  294A               	goto	u9931
  2367  0949  294B               	goto	u9930
  2368  094A                     u9931:
  2369  094A  29A6               	goto	l13650
  2370  094B                     u9930:
  2371                           	line	120
  2372                           	
  2373  094B                     l13632:	
  2374                           ;main.c: 120: int pulse = 24000, tong = 0, count = 0;
  2375  094B  30C0               	movlw	low(05DC0h)
  2376  094C  1683               	bsf	status, 5	;RP0=1, select bank3
  2377  094D  1703               	bsf	status, 6	;RP1=1, select bank3
  2378  094E  0098               	movwf	(main@pulse)^0180h
  2379  094F  305D               	movlw	high(05DC0h)
  2380  0950  0099               	movwf	((main@pulse)^0180h)+1
  2381                           	
  2382  0951                     l13634:	
  2383  0951  0190               	clrf	(main@tong)^0180h
  2384  0952  0191               	clrf	(main@tong+1)^0180h
  2385                           	
  2386  0953                     l13636:	
  2387  0953  0192               	clrf	(main@count)^0180h
  2388  0954  0193               	clrf	(main@count+1)^0180h
  2389                           	line	121
  2390                           	
  2391  0955                     l13638:	
  2392                           ;main.c: 121: pulse = 24000 / SoLuoi;
  2393  0955  1283               	bcf	status, 5	;RP0=0, select bank0
  2394  0956  1303               	bcf	status, 6	;RP1=0, select bank0
  2395  0957  085D               	movf	(_SoLuoi),w
  2396  0958  00D7               	movwf	(??_main+0)+0
  2397  0959  01D8               	clrf	(??_main+0)+0+1
  2398  095A  0857               	movf	0+(??_main+0)+0,w
  2399  095B  00A0               	movwf	(?___awdiv)
  2400  095C  0858               	movf	1+(??_main+0)+0,w
  2401  095D  00A1               	movwf	(?___awdiv+1)
  2402  095E  30C0               	movlw	low(05DC0h)
  2403  095F  00A2               	movwf	0+(?___awdiv)+02h
  2404  0960  305D               	movlw	high(05DC0h)
  2405  0961  00A3               	movwf	(0+(?___awdiv)+02h)+1
  2406  0962  160A  118A  2343   	fcall	___awdiv
              120A  158A         
  2407  0967  1283               	bcf	status, 5	;RP0=0, select bank0
  2408  0968  1303               	bcf	status, 6	;RP1=0, select bank0
  2409  0969  0821               	movf	(1+(?___awdiv)),w
  2410  096A  1683               	bsf	status, 5	;RP0=1, select bank3
  2411  096B  1703               	bsf	status, 6	;RP1=1, select bank3
  2412  096C  0199               	clrf	(main@pulse+1)^0180h
  2413  096D  0799               	addwf	(main@pulse+1)^0180h
  2414  096E  1283               	bcf	status, 5	;RP0=0, select bank0
  2415  096F  1303               	bcf	status, 6	;RP1=0, select bank0
  2416  0970  0820               	movf	(0+(?___awdiv)),w
  2417  0971  1683               	bsf	status, 5	;RP0=1, select bank3
  2418  0972  1703               	bsf	status, 6	;RP1=1, select bank3
  2419  0973  0198               	clrf	(main@pulse)^0180h
  2420  0974  0798               	addwf	(main@pulse)^0180h
  2421                           
  2422                           	line	122
  2423                           	
  2424  0975                     l13640:	
  2425                           ;main.c: 122: for (unsigned int i = 0; i < pulse; i++) {
  2426  0975  019A               	clrf	(main@i)^0180h
  2427  0976  019B               	clrf	(main@i+1)^0180h
  2428  0977  299A               	goto	l1171
  2429                           	
  2430  0978                     l1172:	
  2431                           	line	123
  2432                           ;main.c: 123: RC1 = 1;
  2433  0978  1283               	bcf	status, 5	;RP0=0, select bank0
  2434  0979  1303               	bcf	status, 6	;RP1=0, select bank0
  2435  097A  1487               	bsf	(57/8),(57)&7
  2436                           	line	124
  2437                           	
  2438  097B                     l13642:	
  2439                           ;main.c: 124: _delay((unsigned long)((40)*(8000000/4000000.0)));
  2440                           	opt asmopt_off
  2441  097B  301A               movlw	26
  2442  097C  00D7               movwf	(??_main+0)+0,f
  2443  097D                     u10507:
  2444  097D  0BD7               decfsz	(??_main+0)+0,f
  2445  097E  297D               	goto	u10507
  2446  097F  0064               	clrwdt
  2447                           opt asmopt_on
  2448                           
  2449                           	line	125
  2450                           	
  2451  0980                     l13644:	
  2452                           ;main.c: 125: RC1 = 0;
  2453  0980  1283               	bcf	status, 5	;RP0=0, select bank0
  2454  0981  1303               	bcf	status, 6	;RP1=0, select bank0
  2455  0982  1087               	bcf	(57/8),(57)&7
  2456                           	line	126
  2457                           ;main.c: 126: _delay((unsigned long)((40)*(8000000/4000000.0)));
  2458                           	opt asmopt_off
  2459  0983  301A               movlw	26
  2460  0984  00D7               movwf	(??_main+0)+0,f
  2461  0985                     u10517:
  2462  0985  0BD7               decfsz	(??_main+0)+0,f
  2463  0986  2985               	goto	u10517
  2464  0987  0064               	clrwdt
  2465                           opt asmopt_on
  2466                           
  2467                           	line	127
  2468                           ;main.c: 127: if (STOP == 1)
  2469  0988  1283               	bcf	status, 5	;RP0=0, select bank0
  2470  0989  1303               	bcf	status, 6	;RP1=0, select bank0
  2471  098A  085C               	movf	(_STOP),w	;volatile
  2472  098B  3A01               	xorlw	01h
  2473  098C  1D03               	skipz
  2474  098D  298F               	goto	u9941
  2475  098E  2990               	goto	u9940
  2476  098F                     u9941:
  2477  098F  2992               	goto	l13648
  2478  0990                     u9940:
  2479  0990  29A6               	goto	l13650
  2480                           	line	128
  2481                           	
  2482  0991                     l13646:	
  2483                           ;main.c: 128: break;
  2484  0991  29A6               	goto	l13650
  2485                           	
  2486  0992                     l1173:	
  2487                           	line	122
  2488                           	
  2489  0992                     l13648:	
  2490  0992  3001               	movlw	low(01h)
  2491  0993  1683               	bsf	status, 5	;RP0=1, select bank3
  2492  0994  1703               	bsf	status, 6	;RP1=1, select bank3
  2493  0995  079A               	addwf	(main@i)^0180h,f
  2494  0996  1803               	skipnc
  2495  0997  0A9B               	incf	(main@i+1)^0180h,f
  2496  0998  3000               	movlw	high(01h)
  2497  0999  079B               	addwf	(main@i+1)^0180h,f
  2498                           	
  2499  099A                     l1171:	
  2500  099A  0819               	movf	(main@pulse+1)^0180h,w
  2501  099B  021B               	subwf	(main@i+1)^0180h,w
  2502  099C  1D03               	skipz
  2503  099D  29A0               	goto	u9955
  2504  099E  0818               	movf	(main@pulse)^0180h,w
  2505  099F  021A               	subwf	(main@i)^0180h,w
  2506  09A0                     u9955:
  2507  09A0  1C03               	skipc
  2508  09A1  29A3               	goto	u9951
  2509  09A2  29A4               	goto	u9950
  2510  09A3                     u9951:
  2511  09A3  2978               	goto	l1172
  2512  09A4                     u9950:
  2513  09A4  29A6               	goto	l13650
  2514                           	
  2515  09A5                     l1174:	
  2516  09A5  29A6               	goto	l13650
  2517                           	line	130
  2518                           	
  2519  09A6                     l1170:	
  2520                           	line	131
  2521                           	
  2522  09A6                     l13650:	
  2523                           ;main.c: 129: }
  2524                           ;main.c: 130: }
  2525                           ;main.c: 131: if (ChuyenLuoiPhai()) {
  2526  09A6  160A  158A  271B   	fcall	_ChuyenLuoiPhai
              120A  158A         
  2527  09AB  3A00               	xorlw	0
  2528  09AC  1903               	skipnz
  2529  09AD  29AF               	goto	u9961
  2530  09AE  29B0               	goto	u9960
  2531  09AF                     u9961:
  2532  09AF  2A0B               	goto	l13670
  2533  09B0                     u9960:
  2534                           	line	132
  2535                           	
  2536  09B0                     l13652:	
  2537                           ;main.c: 132: int pulse = 24000, tong = 0, count = 0;
  2538  09B0  30C0               	movlw	low(05DC0h)
  2539  09B1  1683               	bsf	status, 5	;RP0=1, select bank3
  2540  09B2  1703               	bsf	status, 6	;RP1=1, select bank3
  2541  09B3  009C               	movwf	(main@pulse_1975)^0180h
  2542  09B4  305D               	movlw	high(05DC0h)
  2543  09B5  009D               	movwf	((main@pulse_1975)^0180h)+1
  2544                           	
  2545  09B6                     l13654:	
  2546  09B6  0194               	clrf	(main@tong_1976)^0180h
  2547  09B7  0195               	clrf	(main@tong_1976+1)^0180h
  2548                           	
  2549  09B8                     l13656:	
  2550  09B8  0196               	clrf	(main@count_1977)^0180h
  2551  09B9  0197               	clrf	(main@count_1977+1)^0180h
  2552                           	line	133
  2553                           	
  2554  09BA                     l13658:	
  2555                           ;main.c: 133: pulse = 24000 / SoLuoi;
  2556  09BA  1283               	bcf	status, 5	;RP0=0, select bank0
  2557  09BB  1303               	bcf	status, 6	;RP1=0, select bank0
  2558  09BC  085D               	movf	(_SoLuoi),w
  2559  09BD  00D7               	movwf	(??_main+0)+0
  2560  09BE  01D8               	clrf	(??_main+0)+0+1
  2561  09BF  0857               	movf	0+(??_main+0)+0,w
  2562  09C0  00A0               	movwf	(?___awdiv)
  2563  09C1  0858               	movf	1+(??_main+0)+0,w
  2564  09C2  00A1               	movwf	(?___awdiv+1)
  2565  09C3  30C0               	movlw	low(05DC0h)
  2566  09C4  00A2               	movwf	0+(?___awdiv)+02h
  2567  09C5  305D               	movlw	high(05DC0h)
  2568  09C6  00A3               	movwf	(0+(?___awdiv)+02h)+1
  2569  09C7  160A  118A  2343   	fcall	___awdiv
              120A  158A         
  2570  09CC  1283               	bcf	status, 5	;RP0=0, select bank0
  2571  09CD  1303               	bcf	status, 6	;RP1=0, select bank0
  2572  09CE  0821               	movf	(1+(?___awdiv)),w
  2573  09CF  1683               	bsf	status, 5	;RP0=1, select bank3
  2574  09D0  1703               	bsf	status, 6	;RP1=1, select bank3
  2575  09D1  019D               	clrf	(main@pulse_1975+1)^0180h
  2576  09D2  079D               	addwf	(main@pulse_1975+1)^0180h
  2577  09D3  1283               	bcf	status, 5	;RP0=0, select bank0
  2578  09D4  1303               	bcf	status, 6	;RP1=0, select bank0
  2579  09D5  0820               	movf	(0+(?___awdiv)),w
  2580  09D6  1683               	bsf	status, 5	;RP0=1, select bank3
  2581  09D7  1703               	bsf	status, 6	;RP1=1, select bank3
  2582  09D8  019C               	clrf	(main@pulse_1975)^0180h
  2583  09D9  079C               	addwf	(main@pulse_1975)^0180h
  2584                           
  2585                           	line	134
  2586                           	
  2587  09DA                     l13660:	
  2588                           ;main.c: 134: for (unsigned int i = 0; i < pulse; i++) {
  2589  09DA  019E               	clrf	(main@i_1978)^0180h
  2590  09DB  019F               	clrf	(main@i_1978+1)^0180h
  2591  09DC  29FF               	goto	l1176
  2592                           	
  2593  09DD                     l1177:	
  2594                           	line	135
  2595                           ;main.c: 135: RC2 = 1;
  2596  09DD  1283               	bcf	status, 5	;RP0=0, select bank0
  2597  09DE  1303               	bcf	status, 6	;RP1=0, select bank0
  2598  09DF  1507               	bsf	(58/8),(58)&7
  2599                           	line	136
  2600                           	
  2601  09E0                     l13662:	
  2602                           ;main.c: 136: _delay((unsigned long)((40)*(8000000/4000000.0)));
  2603                           	opt asmopt_off
  2604  09E0  301A               movlw	26
  2605  09E1  00D7               movwf	(??_main+0)+0,f
  2606  09E2                     u10527:
  2607  09E2  0BD7               decfsz	(??_main+0)+0,f
  2608  09E3  29E2               	goto	u10527
  2609  09E4  0064               	clrwdt
  2610                           opt asmopt_on
  2611                           
  2612                           	line	137
  2613                           	
  2614  09E5                     l13664:	
  2615                           ;main.c: 137: RC2 = 0;
  2616  09E5  1283               	bcf	status, 5	;RP0=0, select bank0
  2617  09E6  1303               	bcf	status, 6	;RP1=0, select bank0
  2618  09E7  1107               	bcf	(58/8),(58)&7
  2619                           	line	138
  2620                           ;main.c: 138: _delay((unsigned long)((40)*(8000000/4000000.0)));
  2621                           	opt asmopt_off
  2622  09E8  301A               movlw	26
  2623  09E9  00D7               movwf	(??_main+0)+0,f
  2624  09EA                     u10537:
  2625  09EA  0BD7               decfsz	(??_main+0)+0,f
  2626  09EB  29EA               	goto	u10537
  2627  09EC  0064               	clrwdt
  2628                           opt asmopt_on
  2629                           
  2630                           	line	139
  2631                           ;main.c: 139: if (STOP == 1)
  2632  09ED  1283               	bcf	status, 5	;RP0=0, select bank0
  2633  09EE  1303               	bcf	status, 6	;RP1=0, select bank0
  2634  09EF  085C               	movf	(_STOP),w	;volatile
  2635  09F0  3A01               	xorlw	01h
  2636  09F1  1D03               	skipz
  2637  09F2  29F4               	goto	u9971
  2638  09F3  29F5               	goto	u9970
  2639  09F4                     u9971:
  2640  09F4  29F7               	goto	l13668
  2641  09F5                     u9970:
  2642  09F5  2A0B               	goto	l13670
  2643                           	line	140
  2644                           	
  2645  09F6                     l13666:	
  2646                           ;main.c: 140: break;
  2647  09F6  2A0B               	goto	l13670
  2648                           	
  2649  09F7                     l1178:	
  2650                           	line	134
  2651                           	
  2652  09F7                     l13668:	
  2653  09F7  3001               	movlw	low(01h)
  2654  09F8  1683               	bsf	status, 5	;RP0=1, select bank3
  2655  09F9  1703               	bsf	status, 6	;RP1=1, select bank3
  2656  09FA  079E               	addwf	(main@i_1978)^0180h,f
  2657  09FB  1803               	skipnc
  2658  09FC  0A9F               	incf	(main@i_1978+1)^0180h,f
  2659  09FD  3000               	movlw	high(01h)
  2660  09FE  079F               	addwf	(main@i_1978+1)^0180h,f
  2661                           	
  2662  09FF                     l1176:	
  2663  09FF  081D               	movf	(main@pulse_1975+1)^0180h,w
  2664  0A00  021F               	subwf	(main@i_1978+1)^0180h,w
  2665  0A01  1D03               	skipz
  2666  0A02  2A05               	goto	u9985
  2667  0A03  081C               	movf	(main@pulse_1975)^0180h,w
  2668  0A04  021E               	subwf	(main@i_1978)^0180h,w
  2669  0A05                     u9985:
  2670  0A05  1C03               	skipc
  2671  0A06  2A08               	goto	u9981
  2672  0A07  2A09               	goto	u9980
  2673  0A08                     u9981:
  2674  0A08  29DD               	goto	l1177
  2675  0A09                     u9980:
  2676  0A09  2A0B               	goto	l13670
  2677                           	
  2678  0A0A                     l1179:	
  2679  0A0A  2A0B               	goto	l13670
  2680                           	line	142
  2681                           	
  2682  0A0B                     l1175:	
  2683                           	line	143
  2684                           	
  2685  0A0B                     l13670:	
  2686                           ;main.c: 141: }
  2687                           ;main.c: 142: }
  2688                           ;main.c: 143: if (Cap2kXungXuong()) {
  2689  0A0B  160A  158A  2736   	fcall	_Cap2kXungXuong
              120A  158A         
  2690  0A10  3A00               	xorlw	0
  2691  0A11  1903               	skipnz
  2692  0A12  2A14               	goto	u9991
  2693  0A13  2A15               	goto	u9990
  2694  0A14                     u9991:
  2695  0A14  2A47               	goto	l13686
  2696  0A15                     u9990:
  2697                           	line	144
  2698                           	
  2699  0A15                     l13672:	
  2700                           ;main.c: 144: RE2 = 0;
  2701  0A15  1283               	bcf	status, 5	;RP0=0, select bank0
  2702  0A16  1303               	bcf	status, 6	;RP1=0, select bank0
  2703  0A17  1109               	bcf	(74/8),(74)&7
  2704                           	line	145
  2705                           	
  2706  0A18                     l13674:	
  2707                           ;main.c: 145: for (int po = 0; po < 2000; po++) {
  2708  0A18  1683               	bsf	status, 5	;RP0=1, select bank3
  2709  0A19  1703               	bsf	status, 6	;RP1=1, select bank3
  2710  0A1A  01A0               	clrf	(main@po)^0180h
  2711  0A1B  01A1               	clrf	(main@po+1)^0180h
  2712                           	
  2713  0A1C                     l13676:	
  2714  0A1C  0821               	movf	(main@po+1)^0180h,w
  2715  0A1D  3A80               	xorlw	80h
  2716  0A1E  00FF               	movwf	btemp+1
  2717  0A1F  3087               	movlw	(high(07D0h))^80h
  2718  0A20  027F               	subwf	btemp+1,w
  2719  0A21  1D03               	skipz
  2720  0A22  2A25               	goto	u10005
  2721  0A23  30D0               	movlw	low(07D0h)
  2722  0A24  0220               	subwf	(main@po)^0180h,w
  2723  0A25                     u10005:
  2724                           
  2725  0A25  1C03               	skipc
  2726  0A26  2A28               	goto	u10001
  2727  0A27  2A29               	goto	u10000
  2728  0A28                     u10001:
  2729  0A28  2A2B               	goto	l13680
  2730  0A29                     u10000:
  2731  0A29  2A47               	goto	l13686
  2732                           	
  2733  0A2A                     l13678:	
  2734  0A2A  2A47               	goto	l13686
  2735                           	
  2736  0A2B                     l1181:	
  2737                           	line	146
  2738                           	
  2739  0A2B                     l13680:	
  2740                           ;main.c: 146: motorY();
  2741  0A2B  160A  158A  262C   	fcall	_motorY
              120A  158A         
  2742                           	line	145
  2743                           	
  2744  0A30                     l13682:	
  2745  0A30  3001               	movlw	low(01h)
  2746  0A31  1683               	bsf	status, 5	;RP0=1, select bank3
  2747  0A32  1703               	bsf	status, 6	;RP1=1, select bank3
  2748  0A33  07A0               	addwf	(main@po)^0180h,f
  2749  0A34  1803               	skipnc
  2750  0A35  0AA1               	incf	(main@po+1)^0180h,f
  2751  0A36  3000               	movlw	high(01h)
  2752  0A37  07A1               	addwf	(main@po+1)^0180h,f
  2753                           	
  2754  0A38                     l13684:	
  2755  0A38  0821               	movf	(main@po+1)^0180h,w
  2756  0A39  3A80               	xorlw	80h
  2757  0A3A  00FF               	movwf	btemp+1
  2758  0A3B  3087               	movlw	(high(07D0h))^80h
  2759  0A3C  027F               	subwf	btemp+1,w
  2760  0A3D  1D03               	skipz
  2761  0A3E  2A41               	goto	u10015
  2762  0A3F  30D0               	movlw	low(07D0h)
  2763  0A40  0220               	subwf	(main@po)^0180h,w
  2764  0A41                     u10015:
  2765                           
  2766  0A41  1C03               	skipc
  2767  0A42  2A44               	goto	u10011
  2768  0A43  2A45               	goto	u10010
  2769  0A44                     u10011:
  2770  0A44  2A2B               	goto	l13680
  2771  0A45                     u10010:
  2772  0A45  2A47               	goto	l13686
  2773                           	
  2774  0A46                     l1182:	
  2775  0A46  2A47               	goto	l13686
  2776                           	line	148
  2777                           	
  2778  0A47                     l1180:	
  2779                           	line	149
  2780                           	
  2781  0A47                     l13686:	
  2782                           ;main.c: 147: }
  2783                           ;main.c: 148: }
  2784                           ;main.c: 149: if (Cap2kXungLen()) {
  2785  0A47  160A  158A  2751   	fcall	_Cap2kXungLen
              120A  158A         
  2786  0A4C  3A00               	xorlw	0
  2787  0A4D  1903               	skipnz
  2788  0A4E  2A52               	goto	u10021
  2789  0A4F  120A  118A  2815   	goto	u10020
  2790  0A52                     u10021:
  2791  0A52  120A  158A  2A91   	goto	l13550
  2792  0015                     u10020:
  2793                           	line	150
  2794                           	
  2795  0015                     l13688:	
  2796                           ;main.c: 150: RE2 = 1;
  2797  0015  1283               	bcf	status, 5	;RP0=0, select bank0
  2798  0016  1303               	bcf	status, 6	;RP1=0, select bank0
  2799  0017  1509               	bsf	(74/8),(74)&7
  2800                           	line	151
  2801                           	
  2802  0018                     l13690:	
  2803                           ;main.c: 151: for (int po = 0; po < 2000; po++) {
  2804  0018  1683               	bsf	status, 5	;RP0=1, select bank3
  2805  0019  1703               	bsf	status, 6	;RP1=1, select bank3
  2806  001A  01A2               	clrf	(main@po_1980)^0180h
  2807  001B  01A3               	clrf	(main@po_1980+1)^0180h
  2808                           	
  2809  001C                     l13692:	
  2810  001C  0823               	movf	(main@po_1980+1)^0180h,w
  2811  001D  3A80               	xorlw	80h
  2812  001E  00FF               	movwf	btemp+1
  2813  001F  3087               	movlw	(high(07D0h))^80h
  2814  0020  027F               	subwf	btemp+1,w
  2815  0021  1D03               	skipz
  2816  0022  2825               	goto	u10035
  2817  0023  30D0               	movlw	low(07D0h)
  2818  0024  0222               	subwf	(main@po_1980)^0180h,w
  2819  0025                     u10035:
  2820                           
  2821  0025  1C03               	skipc
  2822  0026  2828               	goto	u10031
  2823  0027  2829               	goto	u10030
  2824  0028                     u10031:
  2825  0028  282D               	goto	l13696
  2826  0029                     u10030:
  2827  0029  120A  158A  2A52   	goto	l13550
  2828                           	
  2829  002C                     l13694:	
  2830  002C  2829               	goto	l13550
  2831                           	
  2832  002D                     l1184:	
  2833                           	line	152
  2834                           	
  2835  002D                     l13696:	
  2836                           ;main.c: 152: motorY();
  2837  002D  160A  158A  262C   	fcall	_motorY
              120A  118A         
  2838                           	line	151
  2839                           	
  2840  0032                     l13698:	
  2841  0032  3001               	movlw	low(01h)
  2842  0033  1683               	bsf	status, 5	;RP0=1, select bank3
  2843  0034  1703               	bsf	status, 6	;RP1=1, select bank3
  2844  0035  07A2               	addwf	(main@po_1980)^0180h,f
  2845  0036  1803               	skipnc
  2846  0037  0AA3               	incf	(main@po_1980+1)^0180h,f
  2847  0038  3000               	movlw	high(01h)
  2848  0039  07A3               	addwf	(main@po_1980+1)^0180h,f
  2849                           	
  2850  003A                     l13700:	
  2851  003A  0823               	movf	(main@po_1980+1)^0180h,w
  2852  003B  3A80               	xorlw	80h
  2853  003C  00FF               	movwf	btemp+1
  2854  003D  3087               	movlw	(high(07D0h))^80h
  2855  003E  027F               	subwf	btemp+1,w
  2856  003F  1D03               	skipz
  2857  0040  2843               	goto	u10045
  2858  0041  30D0               	movlw	low(07D0h)
  2859  0042  0222               	subwf	(main@po_1980)^0180h,w
  2860  0043                     u10045:
  2861                           
  2862  0043  1C03               	skipc
  2863  0044  2846               	goto	u10041
  2864  0045  2847               	goto	u10040
  2865  0046                     u10041:
  2866  0046  282D               	goto	l13696
  2867  0047                     u10040:
  2868  0047  2829               	goto	l13550
  2869                           	
  2870  0048                     l1185:	
  2871  0048  2829               	goto	l13550
  2872                           	line	154
  2873                           	
  2874  0049                     l1183:	
  2875                           	line	155
  2876                           ;main.c: 153: }
  2877                           ;main.c: 154: }
  2878                           ;main.c: 155: break;
  2879  0049  2829               	goto	l13550
  2880                           	line	156
  2881                           ;main.c: 156: case 103:
  2882                           	
  2883  004A                     l1187:	
  2884                           	line	157
  2885                           ;main.c: 157: countSV = 0;
  2886  004A  01D0               	clrf	(_countSV)^080h
  2887                           	line	158
  2888                           	
  2889  004B                     l13702:	
  2890                           ;main.c: 158: lcd_gotoxy(11, 0);
  2891  004B  1283               	bcf	status, 5	;RP0=0, select bank0
  2892  004C  1303               	bcf	status, 6	;RP1=0, select bank0
  2893  004D  01A4               	clrf	(?_lcd_gotoxy)
  2894  004E  300B               	movlw	(0Bh)
  2895  004F  160A  118A  2152   	fcall	_lcd_gotoxy
              120A  118A         
  2896                           	line	159
  2897                           ;main.c: 159: lcd_puts("-");
  2898  0054  30BD               	movlw	((STR_12-__stringbase))&0ffh
  2899  0055  160A  118A  20C5   	fcall	_lcd_puts
              120A  118A         
  2900                           	line	160
  2901                           ;main.c: 160: if (isButtonNumber() && Number() >= 0 && Number() <= 9) {
  2902  005A  160A  118A  2119   	fcall	_isButtonNumber
              120A  118A         
  2903  005F  3A00               	xorlw	0
  2904  0060  1903               	skipnz
  2905  0061  2863               	goto	u10051
  2906  0062  2864               	goto	u10050
  2907  0063                     u10051:
  2908  0063  28B0               	goto	l1188
  2909  0064                     u10050:
  2910                           	
  2911  0064                     l13704:	
  2912  0064  160A  118A  2440   	fcall	_Number
              120A  118A         
  2913  0069  1BF5               	btfsc	(1+(?_Number)),7
  2914  006A  286C               	goto	u10061
  2915  006B  286D               	goto	u10060
  2916  006C                     u10061:
  2917  006C  28B0               	goto	l1188
  2918  006D                     u10060:
  2919                           	
  2920  006D                     l13706:	
  2921  006D  160A  118A  2440   	fcall	_Number
              120A  118A         
  2922  0072  0875               	movf	(1+(?_Number)),w
  2923  0073  3A80               	xorlw	80h
  2924  0074  00FF               	movwf	btemp+1
  2925  0075  3080               	movlw	(high(0Ah))^80h
  2926  0076  027F               	subwf	btemp+1,w
  2927  0077  1D03               	skipz
  2928  0078  287B               	goto	u10075
  2929  0079  300A               	movlw	low(0Ah)
  2930  007A  0274               	subwf	(0+(?_Number)),w
  2931  007B                     u10075:
  2932                           
  2933  007B  1803               	skipnc
  2934  007C  287E               	goto	u10071
  2935  007D  287F               	goto	u10070
  2936  007E                     u10071:
  2937  007E  28B0               	goto	l1188
  2938  007F                     u10070:
  2939                           	line	161
  2940                           	
  2941  007F                     l13708:	
  2942                           ;main.c: 161: demgiatri++;
  2943  007F  3001               	movlw	(01h)
  2944  0080  1283               	bcf	status, 5	;RP0=0, select bank0
  2945  0081  1303               	bcf	status, 6	;RP1=0, select bank0
  2946  0082  00D7               	movwf	(??_main+0)+0
  2947  0083  0857               	movf	(??_main+0)+0,w
  2948  0084  1683               	bsf	status, 5	;RP0=1, select bank1
  2949  0085  1303               	bcf	status, 6	;RP1=0, select bank1
  2950  0086  07D2               	addwf	(_demgiatri)^080h,f
  2951                           	line	162
  2952                           	
  2953  0087                     l13710:	
  2954                           ;main.c: 162: GiaTri[indexOfNumber++] = Number();
  2955  0087  160A  118A  2440   	fcall	_Number
              120A  118A         
  2956  008C  0874               	movf	(0+(?_Number)),w
  2957  008D  1283               	bcf	status, 5	;RP0=0, select bank0
  2958  008E  1303               	bcf	status, 6	;RP1=0, select bank0
  2959  008F  00D7               	movwf	(??_main+0)+0
  2960  0090  1683               	bsf	status, 5	;RP0=1, select bank1
  2961  0091  1303               	bcf	status, 6	;RP1=0, select bank1
  2962  0092  0856               	movf	(_indexOfNumber)^080h,w
  2963  0093  3EC0               	addlw	_GiaTri&0ffh
  2964  0094  0084               	movwf	fsr0
  2965  0095  1283               	bcf	status, 5	;RP0=0, select bank0
  2966  0096  1303               	bcf	status, 6	;RP1=0, select bank0
  2967  0097  0857               	movf	(??_main+0)+0,w
  2968  0098  1383               	bcf	status, 7	;select IRP bank1
  2969  0099  0080               	movwf	indf
  2970                           	
  2971  009A                     l13712:	
  2972  009A  3001               	movlw	(01h)
  2973  009B  00D7               	movwf	(??_main+0)+0
  2974  009C  0857               	movf	(??_main+0)+0,w
  2975  009D  1683               	bsf	status, 5	;RP0=1, select bank1
  2976  009E  1303               	bcf	status, 6	;RP1=0, select bank1
  2977  009F  07D6               	addwf	(_indexOfNumber)^080h,f
  2978                           	line	163
  2979                           	
  2980  00A0                     l13714:	
  2981                           ;main.c: 163: TinhGiaTri();
  2982  00A0  160A  118A  24DD   	fcall	_TinhGiaTri
              120A  118A         
  2983                           	line	164
  2984                           	
  2985  00A5                     l13716:	
  2986                           ;main.c: 164: SoLuoi = TinhGiaTri();
  2987  00A5  160A  118A  24DD   	fcall	_TinhGiaTri
              120A  118A         
  2988  00AA  1283               	bcf	status, 5	;RP0=0, select bank0
  2989  00AB  1303               	bcf	status, 6	;RP1=0, select bank0
  2990  00AC  0824               	movf	(0+(?_TinhGiaTri)),w
  2991  00AD  00D7               	movwf	(??_main+0)+0
  2992  00AE  0857               	movf	(??_main+0)+0,w
  2993  00AF  00DD               	movwf	(_SoLuoi)
  2994                           	line	165
  2995                           	
  2996  00B0                     l1188:	
  2997                           	line	166
  2998                           ;main.c: 165: }
  2999                           ;main.c: 166: lcd_gotoxy(12, 0);
  3000  00B0  1283               	bcf	status, 5	;RP0=0, select bank0
  3001  00B1  1303               	bcf	status, 6	;RP1=0, select bank0
  3002  00B2  01A4               	clrf	(?_lcd_gotoxy)
  3003  00B3  300C               	movlw	(0Ch)
  3004  00B4  160A  118A  2152   	fcall	_lcd_gotoxy
              120A  118A         
  3005                           	line	167
  3006                           	
  3007  00B9                     l13718:	
  3008                           ;main.c: 167: printf("%d", SoLuoi);
  3009  00B9  1283               	bcf	status, 5	;RP0=0, select bank0
  3010  00BA  1303               	bcf	status, 6	;RP1=0, select bank0
  3011  00BB  085D               	movf	(_SoLuoi),w
  3012  00BC  00D7               	movwf	(??_main+0)+0
  3013  00BD  01D8               	clrf	(??_main+0)+0+1
  3014  00BE  0857               	movf	0+(??_main+0)+0,w
  3015  00BF  00AC               	movwf	(?_printf)
  3016  00C0  0858               	movf	1+(??_main+0)+0,w
  3017  00C1  00AD               	movwf	(?_printf+1)
  3018  00C2  30BA               	movlw	((STR_13-__stringbase))&0ffh
  3019  00C3  120A  158A  200D   	fcall	_printf
              120A  118A         
  3020                           	line	168
  3021                           	
  3022  00C8                     l13720:	
  3023                           ;main.c: 168: if (isButtonMode()) {
  3024  00C8  160A  158A  25CD   	fcall	_isButtonMode
              120A  118A         
  3025  00CD  3A00               	xorlw	0
  3026  00CE  1903               	skipnz
  3027  00CF  28D1               	goto	u10081
  3028  00D0  28D2               	goto	u10080
  3029  00D1                     u10081:
  3030  00D1  28E0               	goto	l13726
  3031  00D2                     u10080:
  3032                           	line	169
  3033                           	
  3034  00D2                     l13722:	
  3035                           ;main.c: 169: demgiatri = 0;
  3036  00D2  1683               	bsf	status, 5	;RP0=1, select bank1
  3037  00D3  1303               	bcf	status, 6	;RP1=0, select bank1
  3038  00D4  01D2               	clrf	(_demgiatri)^080h
  3039                           	line	170
  3040                           ;main.c: 170: indexOfNumber = 0;
  3041  00D5  01D6               	clrf	(_indexOfNumber)^080h
  3042                           	line	171
  3043                           ;main.c: 171: SoLan = 0;
  3044  00D6  01CB               	clrf	(_SoLan)^080h
  3045                           	line	172
  3046                           	
  3047  00D7                     l13724:	
  3048                           ;main.c: 172: statusMachine = 102;
  3049  00D7  3066               	movlw	(066h)
  3050  00D8  1283               	bcf	status, 5	;RP0=0, select bank0
  3051  00D9  1303               	bcf	status, 6	;RP1=0, select bank0
  3052  00DA  00D7               	movwf	(??_main+0)+0
  3053  00DB  0857               	movf	(??_main+0)+0,w
  3054  00DC  1683               	bsf	status, 5	;RP0=1, select bank1
  3055  00DD  1303               	bcf	status, 6	;RP1=0, select bank1
  3056  00DE  00E3               	movwf	(_statusMachine)^080h
  3057  00DF  28E0               	goto	l13726
  3058                           	line	173
  3059                           	
  3060  00E0                     l1189:	
  3061                           	line	174
  3062                           	
  3063  00E0                     l13726:	
  3064                           ;main.c: 173: }
  3065                           ;main.c: 174: if (isButtonCancel()) {
  3066  00E0  160A  158A  25EF   	fcall	_isButtonCancel
              120A  118A         
  3067  00E5  3A00               	xorlw	0
  3068  00E6  1903               	skipnz
  3069  00E7  28E9               	goto	u10091
  3070  00E8  28EA               	goto	u10090
  3071  00E9                     u10091:
  3072  00E9  2829               	goto	l13550
  3073  00EA                     u10090:
  3074                           	line	175
  3075                           	
  3076  00EA                     l13728:	
  3077                           ;main.c: 175: lcd_gotoxy(12, 0);
  3078  00EA  1283               	bcf	status, 5	;RP0=0, select bank0
  3079  00EB  1303               	bcf	status, 6	;RP1=0, select bank0
  3080  00EC  01A4               	clrf	(?_lcd_gotoxy)
  3081  00ED  300C               	movlw	(0Ch)
  3082  00EE  160A  118A  2152   	fcall	_lcd_gotoxy
              120A  118A         
  3083                           	line	176
  3084                           ;main.c: 176: lcd_puts("     ");
  3085  00F3  30AA               	movlw	((STR_14-__stringbase))&0ffh
  3086  00F4  160A  118A  20C5   	fcall	_lcd_puts
              120A  118A         
  3087                           	line	177
  3088                           	
  3089  00F9                     l13730:	
  3090                           ;main.c: 177: SoLuoi = 0;
  3091  00F9  1283               	bcf	status, 5	;RP0=0, select bank0
  3092  00FA  1303               	bcf	status, 6	;RP1=0, select bank0
  3093  00FB  01DD               	clrf	(_SoLuoi)
  3094                           	line	178
  3095                           	
  3096  00FC                     l13732:	
  3097                           ;main.c: 178: demgiatri = 0;
  3098  00FC  1683               	bsf	status, 5	;RP0=1, select bank1
  3099  00FD  1303               	bcf	status, 6	;RP1=0, select bank1
  3100  00FE  01D2               	clrf	(_demgiatri)^080h
  3101                           	line	179
  3102                           	
  3103  00FF                     l13734:	
  3104                           ;main.c: 179: indexOfNumber = 0;
  3105  00FF  01D6               	clrf	(_indexOfNumber)^080h
  3106                           	line	180
  3107                           	
  3108  0100                     l13736:	
  3109                           ;main.c: 180: SoLan = 0;
  3110  0100  01CB               	clrf	(_SoLan)^080h
  3111  0101  2829               	goto	l13550
  3112                           	line	181
  3113                           	
  3114  0102                     l1190:	
  3115                           	line	182
  3116                           ;main.c: 181: }
  3117                           ;main.c: 182: break;
  3118  0102  2829               	goto	l13550
  3119                           	line	183
  3120                           ;main.c: 183: case 102:
  3121                           	
  3122  0103                     l1191:	
  3123                           	line	184
  3124                           	
  3125  0103                     l13738:	
  3126                           ;main.c: 184: lcd_gotoxy(11, 0);
  3127  0103  1283               	bcf	status, 5	;RP0=0, select bank0
  3128  0104  1303               	bcf	status, 6	;RP1=0, select bank0
  3129  0105  01A4               	clrf	(?_lcd_gotoxy)
  3130  0106  300B               	movlw	(0Bh)
  3131  0107  160A  118A  2152   	fcall	_lcd_gotoxy
              120A  118A         
  3132                           	line	185
  3133                           ;main.c: 185: lcd_puts(" ");
  3134  010C  30AE               	movlw	((STR_15-__stringbase))&0ffh
  3135  010D  160A  118A  20C5   	fcall	_lcd_puts
              120A  118A         
  3136                           	line	186
  3137                           ;main.c: 186: lcd_gotoxy(11, 1);
  3138  0112  1283               	bcf	status, 5	;RP0=0, select bank0
  3139  0113  1303               	bcf	status, 6	;RP1=0, select bank0
  3140  0114  01A4               	clrf	(?_lcd_gotoxy)
  3141  0115  1403               	bsf	status,0
  3142  0116  0DA4               	rlf	(?_lcd_gotoxy),f
  3143  0117  300B               	movlw	(0Bh)
  3144  0118  160A  118A  2152   	fcall	_lcd_gotoxy
              120A  118A         
  3145                           	line	187
  3146                           ;main.c: 187: lcd_puts("-");
  3147  011D  30BD               	movlw	((STR_16-__stringbase))&0ffh
  3148  011E  160A  118A  20C5   	fcall	_lcd_puts
              120A  118A         
  3149                           	line	188
  3150                           ;main.c: 188: if (isButtonNumber() && Number() >= 0 && Number() <= 9) {
  3151  0123  160A  118A  2119   	fcall	_isButtonNumber
              120A  118A         
  3152  0128  3A00               	xorlw	0
  3153  0129  1903               	skipnz
  3154  012A  292C               	goto	u10101
  3155  012B  292D               	goto	u10100
  3156  012C                     u10101:
  3157  012C  297B               	goto	l1192
  3158  012D                     u10100:
  3159                           	
  3160  012D                     l13740:	
  3161  012D  160A  118A  2440   	fcall	_Number
              120A  118A         
  3162  0132  1BF5               	btfsc	(1+(?_Number)),7
  3163  0133  2935               	goto	u10111
  3164  0134  2936               	goto	u10110
  3165  0135                     u10111:
  3166  0135  297B               	goto	l1192
  3167  0136                     u10110:
  3168                           	
  3169  0136                     l13742:	
  3170  0136  160A  118A  2440   	fcall	_Number
              120A  118A         
  3171  013B  0875               	movf	(1+(?_Number)),w
  3172  013C  3A80               	xorlw	80h
  3173  013D  00FF               	movwf	btemp+1
  3174  013E  3080               	movlw	(high(0Ah))^80h
  3175  013F  027F               	subwf	btemp+1,w
  3176  0140  1D03               	skipz
  3177  0141  2944               	goto	u10125
  3178  0142  300A               	movlw	low(0Ah)
  3179  0143  0274               	subwf	(0+(?_Number)),w
  3180  0144                     u10125:
  3181                           
  3182  0144  1803               	skipnc
  3183  0145  2947               	goto	u10121
  3184  0146  2948               	goto	u10120
  3185  0147                     u10121:
  3186  0147  297B               	goto	l1192
  3187  0148                     u10120:
  3188                           	line	189
  3189                           	
  3190  0148                     l13744:	
  3191                           ;main.c: 189: demgiatri++;
  3192  0148  3001               	movlw	(01h)
  3193  0149  1283               	bcf	status, 5	;RP0=0, select bank0
  3194  014A  1303               	bcf	status, 6	;RP1=0, select bank0
  3195  014B  00D7               	movwf	(??_main+0)+0
  3196  014C  0857               	movf	(??_main+0)+0,w
  3197  014D  1683               	bsf	status, 5	;RP0=1, select bank1
  3198  014E  1303               	bcf	status, 6	;RP1=0, select bank1
  3199  014F  07D2               	addwf	(_demgiatri)^080h,f
  3200                           	line	190
  3201                           	
  3202  0150                     l13746:	
  3203                           ;main.c: 190: GiaTri[indexOfNumber++] = Number();
  3204  0150  160A  118A  2440   	fcall	_Number
              120A  118A         
  3205  0155  0874               	movf	(0+(?_Number)),w
  3206  0156  1283               	bcf	status, 5	;RP0=0, select bank0
  3207  0157  1303               	bcf	status, 6	;RP1=0, select bank0
  3208  0158  00D7               	movwf	(??_main+0)+0
  3209  0159  1683               	bsf	status, 5	;RP0=1, select bank1
  3210  015A  1303               	bcf	status, 6	;RP1=0, select bank1
  3211  015B  0856               	movf	(_indexOfNumber)^080h,w
  3212  015C  3EC0               	addlw	_GiaTri&0ffh
  3213  015D  0084               	movwf	fsr0
  3214  015E  1283               	bcf	status, 5	;RP0=0, select bank0
  3215  015F  1303               	bcf	status, 6	;RP1=0, select bank0
  3216  0160  0857               	movf	(??_main+0)+0,w
  3217  0161  1383               	bcf	status, 7	;select IRP bank1
  3218  0162  0080               	movwf	indf
  3219                           	
  3220  0163                     l13748:	
  3221  0163  3001               	movlw	(01h)
  3222  0164  00D7               	movwf	(??_main+0)+0
  3223  0165  0857               	movf	(??_main+0)+0,w
  3224  0166  1683               	bsf	status, 5	;RP0=1, select bank1
  3225  0167  1303               	bcf	status, 6	;RP1=0, select bank1
  3226  0168  07D6               	addwf	(_indexOfNumber)^080h,f
  3227                           	line	191
  3228                           	
  3229  0169                     l13750:	
  3230                           ;main.c: 191: TinhGiaTri();
  3231  0169  160A  118A  24DD   	fcall	_TinhGiaTri
              120A  118A         
  3232                           	line	192
  3233                           	
  3234  016E                     l13752:	
  3235                           ;main.c: 192: ChieuDai = TinhGiaTri();
  3236  016E  160A  118A  24DD   	fcall	_TinhGiaTri
              120A  118A         
  3237  0173  1283               	bcf	status, 5	;RP0=0, select bank0
  3238  0174  1303               	bcf	status, 6	;RP1=0, select bank0
  3239  0175  0825               	movf	(1+(?_TinhGiaTri)),w
  3240  0176  01F7               	clrf	(_ChieuDai+1)
  3241  0177  07F7               	addwf	(_ChieuDai+1)
  3242  0178  0824               	movf	(0+(?_TinhGiaTri)),w
  3243  0179  01F6               	clrf	(_ChieuDai)
  3244  017A  07F6               	addwf	(_ChieuDai)
  3245                           
  3246                           	line	193
  3247                           	
  3248  017B                     l1192:	
  3249                           	line	194
  3250                           ;main.c: 193: }
  3251                           ;main.c: 194: lcd_gotoxy(12, 1);
  3252  017B  1283               	bcf	status, 5	;RP0=0, select bank0
  3253  017C  1303               	bcf	status, 6	;RP1=0, select bank0
  3254  017D  01A4               	clrf	(?_lcd_gotoxy)
  3255  017E  1403               	bsf	status,0
  3256  017F  0DA4               	rlf	(?_lcd_gotoxy),f
  3257  0180  300C               	movlw	(0Ch)
  3258  0181  160A  118A  2152   	fcall	_lcd_gotoxy
              120A  118A         
  3259                           	line	195
  3260                           	
  3261  0186                     l13754:	
  3262                           ;main.c: 195: printf("%d", ChieuDai);
  3263  0186  0877               	movf	(_ChieuDai+1),w
  3264  0187  1283               	bcf	status, 5	;RP0=0, select bank0
  3265  0188  1303               	bcf	status, 6	;RP1=0, select bank0
  3266  0189  01AD               	clrf	(?_printf+1)
  3267  018A  07AD               	addwf	(?_printf+1)
  3268  018B  0876               	movf	(_ChieuDai),w
  3269  018C  01AC               	clrf	(?_printf)
  3270  018D  07AC               	addwf	(?_printf)
  3271                           
  3272  018E  30BA               	movlw	((STR_17-__stringbase))&0ffh
  3273  018F  120A  158A  200D   	fcall	_printf
              120A  118A         
  3274                           	line	196
  3275                           	
  3276  0194                     l13756:	
  3277                           ;main.c: 196: if (isButtonMode()) {
  3278  0194  160A  158A  25CD   	fcall	_isButtonMode
              120A  118A         
  3279  0199  3A00               	xorlw	0
  3280  019A  1903               	skipnz
  3281  019B  299D               	goto	u10131
  3282  019C  299E               	goto	u10130
  3283  019D                     u10131:
  3284  019D  29AC               	goto	l13762
  3285  019E                     u10130:
  3286                           	line	197
  3287                           	
  3288  019E                     l13758:	
  3289                           ;main.c: 197: demgiatri = 0;
  3290  019E  1683               	bsf	status, 5	;RP0=1, select bank1
  3291  019F  1303               	bcf	status, 6	;RP1=0, select bank1
  3292  01A0  01D2               	clrf	(_demgiatri)^080h
  3293                           	line	198
  3294                           ;main.c: 198: indexOfNumber = 0;
  3295  01A1  01D6               	clrf	(_indexOfNumber)^080h
  3296                           	line	199
  3297                           ;main.c: 199: SoLan = 0;
  3298  01A2  01CB               	clrf	(_SoLan)^080h
  3299                           	line	200
  3300                           	
  3301  01A3                     l13760:	
  3302                           ;main.c: 200: statusMachine = 104;
  3303  01A3  3068               	movlw	(068h)
  3304  01A4  1283               	bcf	status, 5	;RP0=0, select bank0
  3305  01A5  1303               	bcf	status, 6	;RP1=0, select bank0
  3306  01A6  00D7               	movwf	(??_main+0)+0
  3307  01A7  0857               	movf	(??_main+0)+0,w
  3308  01A8  1683               	bsf	status, 5	;RP0=1, select bank1
  3309  01A9  1303               	bcf	status, 6	;RP1=0, select bank1
  3310  01AA  00E3               	movwf	(_statusMachine)^080h
  3311  01AB  29AC               	goto	l13762
  3312                           	line	201
  3313                           	
  3314  01AC                     l1193:	
  3315                           	line	202
  3316                           	
  3317  01AC                     l13762:	
  3318                           ;main.c: 201: }
  3319                           ;main.c: 202: if (isButtonUp()) {
  3320  01AC  160A  158A  276C   	fcall	_isButtonUp
              120A  118A         
  3321  01B1  3A00               	xorlw	0
  3322  01B2  1903               	skipnz
  3323  01B3  29B5               	goto	u10141
  3324  01B4  29B6               	goto	u10140
  3325  01B5                     u10141:
  3326  01B5  29EF               	goto	l13774
  3327  01B6                     u10140:
  3328                           	line	203
  3329                           	
  3330  01B6                     l13764:	
  3331                           ;main.c: 203: _delay((unsigned long)((100)*(8000000/4000.0)));
  3332                           	opt asmopt_off
  3333  01B6  3002               movlw  2
  3334  01B7  1283               	bcf	status, 5	;RP0=0, select bank0
  3335  01B8  1303               	bcf	status, 6	;RP1=0, select bank0
  3336  01B9  00D9               movwf	((??_main+0)+0+2),f
  3337  01BA  3004               movlw	4
  3338  01BB  00D8               movwf	((??_main+0)+0+1),f
  3339  01BC  30BA               	movlw	186
  3340  01BD  00D7               movwf	((??_main+0)+0),f
  3341  01BE                     u10547:
  3342  01BE  0BD7               	decfsz	((??_main+0)+0),f
  3343  01BF  29BE               	goto	u10547
  3344  01C0  0BD8               	decfsz	((??_main+0)+0+1),f
  3345  01C1  29BE               	goto	u10547
  3346  01C2  0BD9               	decfsz	((??_main+0)+0+2),f
  3347  01C3  29BE               	goto	u10547
  3348  01C4  0064               	clrwdt
  3349                           opt asmopt_on
  3350                           
  3351                           	line	204
  3352                           	
  3353  01C5                     l13766:	
  3354                           ;main.c: 204: if (isButtonUp()) {
  3355  01C5  160A  158A  276C   	fcall	_isButtonUp
              120A  118A         
  3356  01CA  3A00               	xorlw	0
  3357  01CB  1903               	skipnz
  3358  01CC  29CE               	goto	u10151
  3359  01CD  29CF               	goto	u10150
  3360  01CE                     u10151:
  3361  01CE  29EF               	goto	l13774
  3362  01CF                     u10150:
  3363                           	line	205
  3364                           	
  3365  01CF                     l13768:	
  3366                           ;main.c: 205: demgiatri = 0;
  3367  01CF  1683               	bsf	status, 5	;RP0=1, select bank1
  3368  01D0  1303               	bcf	status, 6	;RP1=0, select bank1
  3369  01D1  01D2               	clrf	(_demgiatri)^080h
  3370                           	line	206
  3371                           ;main.c: 206: indexOfNumber = 0;
  3372  01D2  01D6               	clrf	(_indexOfNumber)^080h
  3373                           	line	207
  3374                           ;main.c: 207: SoLan = 0;
  3375  01D3  01CB               	clrf	(_SoLan)^080h
  3376                           	line	208
  3377                           	
  3378  01D4                     l13770:	
  3379                           ;main.c: 208: lcd_gotoxy(11, 1);
  3380  01D4  1283               	bcf	status, 5	;RP0=0, select bank0
  3381  01D5  1303               	bcf	status, 6	;RP1=0, select bank0
  3382  01D6  01A4               	clrf	(?_lcd_gotoxy)
  3383  01D7  1403               	bsf	status,0
  3384  01D8  0DA4               	rlf	(?_lcd_gotoxy),f
  3385  01D9  300B               	movlw	(0Bh)
  3386  01DA  160A  118A  2152   	fcall	_lcd_gotoxy
              120A  118A         
  3387                           	line	209
  3388                           ;main.c: 209: lcd_puts(" ");
  3389  01DF  30AE               	movlw	((STR_18-__stringbase))&0ffh
  3390  01E0  160A  118A  20C5   	fcall	_lcd_puts
              120A  118A         
  3391                           	line	210
  3392                           	
  3393  01E5                     l13772:	
  3394                           ;main.c: 210: statusMachine = 103;
  3395  01E5  3067               	movlw	(067h)
  3396  01E6  1283               	bcf	status, 5	;RP0=0, select bank0
  3397  01E7  1303               	bcf	status, 6	;RP1=0, select bank0
  3398  01E8  00D7               	movwf	(??_main+0)+0
  3399  01E9  0857               	movf	(??_main+0)+0,w
  3400  01EA  1683               	bsf	status, 5	;RP0=1, select bank1
  3401  01EB  1303               	bcf	status, 6	;RP1=0, select bank1
  3402  01EC  00E3               	movwf	(_statusMachine)^080h
  3403  01ED  29EF               	goto	l13774
  3404                           	line	211
  3405                           	
  3406  01EE                     l1195:	
  3407  01EE  29EF               	goto	l13774
  3408                           	line	212
  3409                           	
  3410  01EF                     l1194:	
  3411                           	line	213
  3412                           	
  3413  01EF                     l13774:	
  3414                           ;main.c: 211: }
  3415                           ;main.c: 212: }
  3416                           ;main.c: 213: if (isButtonCancel()) {
  3417  01EF  160A  158A  25EF   	fcall	_isButtonCancel
              120A  118A         
  3418  01F4  3A00               	xorlw	0
  3419  01F5  1903               	skipnz
  3420  01F6  29F8               	goto	u10161
  3421  01F7  29F9               	goto	u10160
  3422  01F8                     u10161:
  3423  01F8  2829               	goto	l13550
  3424  01F9                     u10160:
  3425                           	line	214
  3426                           	
  3427  01F9                     l13776:	
  3428                           ;main.c: 214: lcd_gotoxy(12, 1);
  3429  01F9  1283               	bcf	status, 5	;RP0=0, select bank0
  3430  01FA  1303               	bcf	status, 6	;RP1=0, select bank0
  3431  01FB  01A4               	clrf	(?_lcd_gotoxy)
  3432  01FC  1403               	bsf	status,0
  3433  01FD  0DA4               	rlf	(?_lcd_gotoxy),f
  3434  01FE  300C               	movlw	(0Ch)
  3435  01FF  160A  118A  2152   	fcall	_lcd_gotoxy
              120A  118A         
  3436                           	line	215
  3437                           ;main.c: 215: lcd_puts("   ");
  3438  0204  30AC               	movlw	((STR_19-__stringbase))&0ffh
  3439  0205  160A  118A  20C5   	fcall	_lcd_puts
              120A  118A         
  3440                           	line	216
  3441                           	
  3442  020A                     l13778:	
  3443                           ;main.c: 216: demgiatri = 0;
  3444  020A  1683               	bsf	status, 5	;RP0=1, select bank1
  3445  020B  1303               	bcf	status, 6	;RP1=0, select bank1
  3446  020C  01D2               	clrf	(_demgiatri)^080h
  3447                           	line	217
  3448                           	
  3449  020D                     l13780:	
  3450                           ;main.c: 217: indexOfNumber = 0;
  3451  020D  01D6               	clrf	(_indexOfNumber)^080h
  3452                           	line	218
  3453                           	
  3454  020E                     l13782:	
  3455                           ;main.c: 218: SoLan = 0;
  3456  020E  01CB               	clrf	(_SoLan)^080h
  3457                           	line	219
  3458                           	
  3459  020F                     l13784:	
  3460                           ;main.c: 219: ChieuDai = 0;
  3461  020F  01F6               	clrf	(_ChieuDai)
  3462  0210  01F7               	clrf	(_ChieuDai+1)
  3463  0211  2829               	goto	l13550
  3464                           	line	220
  3465                           	
  3466  0212                     l1196:	
  3467                           	line	221
  3468                           ;main.c: 220: }
  3469                           ;main.c: 221: break;
  3470  0212  2829               	goto	l13550
  3471                           	line	222
  3472                           ;main.c: 222: case 104:
  3473                           	
  3474  0213                     l1197:	
  3475                           	line	223
  3476                           	
  3477  0213                     l13786:	
  3478                           ;main.c: 223: lcd_gotoxy(11, 1);
  3479  0213  1283               	bcf	status, 5	;RP0=0, select bank0
  3480  0214  1303               	bcf	status, 6	;RP1=0, select bank0
  3481  0215  01A4               	clrf	(?_lcd_gotoxy)
  3482  0216  1403               	bsf	status,0
  3483  0217  0DA4               	rlf	(?_lcd_gotoxy),f
  3484  0218  300B               	movlw	(0Bh)
  3485  0219  160A  118A  2152   	fcall	_lcd_gotoxy
              120A  118A         
  3486                           	line	224
  3487                           ;main.c: 224: lcd_puts(" ");
  3488  021E  30AE               	movlw	((STR_20-__stringbase))&0ffh
  3489  021F  160A  118A  20C5   	fcall	_lcd_puts
              120A  118A         
  3490                           	line	225
  3491                           ;main.c: 225: lcd_gotoxy(11, 2);
  3492  0224  3002               	movlw	(02h)
  3493  0225  1283               	bcf	status, 5	;RP0=0, select bank0
  3494  0226  1303               	bcf	status, 6	;RP1=0, select bank0
  3495  0227  00D7               	movwf	(??_main+0)+0
  3496  0228  0857               	movf	(??_main+0)+0,w
  3497  0229  00A4               	movwf	(?_lcd_gotoxy)
  3498  022A  300B               	movlw	(0Bh)
  3499  022B  160A  118A  2152   	fcall	_lcd_gotoxy
              120A  118A         
  3500                           	line	226
  3501                           ;main.c: 226: lcd_puts("-");
  3502  0230  30BD               	movlw	((STR_21-__stringbase))&0ffh
  3503  0231  160A  118A  20C5   	fcall	_lcd_puts
              120A  118A         
  3504                           	line	227
  3505                           ;main.c: 227: if (isButtonNumber() && Number() >= 0 && Number() <= 9) {
  3506  0236  160A  118A  2119   	fcall	_isButtonNumber
              120A  118A         
  3507  023B  3A00               	xorlw	0
  3508  023C  1903               	skipnz
  3509  023D  2A3F               	goto	u10171
  3510  023E  2A40               	goto	u10170
  3511  023F                     u10171:
  3512  023F  2A8C               	goto	l1198
  3513  0240                     u10170:
  3514                           	
  3515  0240                     l13788:	
  3516  0240  160A  118A  2440   	fcall	_Number
              120A  118A         
  3517  0245  1BF5               	btfsc	(1+(?_Number)),7
  3518  0246  2A48               	goto	u10181
  3519  0247  2A49               	goto	u10180
  3520  0248                     u10181:
  3521  0248  2A8C               	goto	l1198
  3522  0249                     u10180:
  3523                           	
  3524  0249                     l13790:	
  3525  0249  160A  118A  2440   	fcall	_Number
              120A  118A         
  3526  024E  0875               	movf	(1+(?_Number)),w
  3527  024F  3A80               	xorlw	80h
  3528  0250  00FF               	movwf	btemp+1
  3529  0251  3080               	movlw	(high(0Ah))^80h
  3530  0252  027F               	subwf	btemp+1,w
  3531  0253  1D03               	skipz
  3532  0254  2A57               	goto	u10195
  3533  0255  300A               	movlw	low(0Ah)
  3534  0256  0274               	subwf	(0+(?_Number)),w
  3535  0257                     u10195:
  3536                           
  3537  0257  1803               	skipnc
  3538  0258  2A5A               	goto	u10191
  3539  0259  2A5B               	goto	u10190
  3540  025A                     u10191:
  3541  025A  2A8C               	goto	l1198
  3542  025B                     u10190:
  3543                           	line	228
  3544                           	
  3545  025B                     l13792:	
  3546                           ;main.c: 228: demgiatri++;
  3547  025B  3001               	movlw	(01h)
  3548  025C  1283               	bcf	status, 5	;RP0=0, select bank0
  3549  025D  1303               	bcf	status, 6	;RP1=0, select bank0
  3550  025E  00D7               	movwf	(??_main+0)+0
  3551  025F  0857               	movf	(??_main+0)+0,w
  3552  0260  1683               	bsf	status, 5	;RP0=1, select bank1
  3553  0261  1303               	bcf	status, 6	;RP1=0, select bank1
  3554  0262  07D2               	addwf	(_demgiatri)^080h,f
  3555                           	line	229
  3556                           	
  3557  0263                     l13794:	
  3558                           ;main.c: 229: GiaTri[indexOfNumber++] = Number();
  3559  0263  160A  118A  2440   	fcall	_Number
              120A  118A         
  3560  0268  0874               	movf	(0+(?_Number)),w
  3561  0269  1283               	bcf	status, 5	;RP0=0, select bank0
  3562  026A  1303               	bcf	status, 6	;RP1=0, select bank0
  3563  026B  00D7               	movwf	(??_main+0)+0
  3564  026C  1683               	bsf	status, 5	;RP0=1, select bank1
  3565  026D  1303               	bcf	status, 6	;RP1=0, select bank1
  3566  026E  0856               	movf	(_indexOfNumber)^080h,w
  3567  026F  3EC0               	addlw	_GiaTri&0ffh
  3568  0270  0084               	movwf	fsr0
  3569  0271  1283               	bcf	status, 5	;RP0=0, select bank0
  3570  0272  1303               	bcf	status, 6	;RP1=0, select bank0
  3571  0273  0857               	movf	(??_main+0)+0,w
  3572  0274  1383               	bcf	status, 7	;select IRP bank1
  3573  0275  0080               	movwf	indf
  3574                           	
  3575  0276                     l13796:	
  3576  0276  3001               	movlw	(01h)
  3577  0277  00D7               	movwf	(??_main+0)+0
  3578  0278  0857               	movf	(??_main+0)+0,w
  3579  0279  1683               	bsf	status, 5	;RP0=1, select bank1
  3580  027A  1303               	bcf	status, 6	;RP1=0, select bank1
  3581  027B  07D6               	addwf	(_indexOfNumber)^080h,f
  3582                           	line	230
  3583                           	
  3584  027C                     l13798:	
  3585                           ;main.c: 230: TinhGiaTri();
  3586  027C  160A  118A  24DD   	fcall	_TinhGiaTri
              120A  118A         
  3587                           	line	231
  3588                           	
  3589  0281                     l13800:	
  3590                           ;main.c: 231: LanMai = TinhGiaTri();
  3591  0281  160A  118A  24DD   	fcall	_TinhGiaTri
              120A  118A         
  3592  0286  1283               	bcf	status, 5	;RP0=0, select bank0
  3593  0287  1303               	bcf	status, 6	;RP1=0, select bank0
  3594  0288  0824               	movf	(0+(?_TinhGiaTri)),w
  3595  0289  00D7               	movwf	(??_main+0)+0
  3596  028A  0857               	movf	(??_main+0)+0,w
  3597  028B  00DB               	movwf	(_LanMai)
  3598                           	line	232
  3599                           	
  3600  028C                     l1198:	
  3601                           	line	233
  3602                           ;main.c: 232: }
  3603                           ;main.c: 233: lcd_gotoxy(12, 2);
  3604  028C  3002               	movlw	(02h)
  3605  028D  1283               	bcf	status, 5	;RP0=0, select bank0
  3606  028E  1303               	bcf	status, 6	;RP1=0, select bank0
  3607  028F  00D7               	movwf	(??_main+0)+0
  3608  0290  0857               	movf	(??_main+0)+0,w
  3609  0291  00A4               	movwf	(?_lcd_gotoxy)
  3610  0292  300C               	movlw	(0Ch)
  3611  0293  160A  118A  2152   	fcall	_lcd_gotoxy
              120A  118A         
  3612                           	line	234
  3613                           	
  3614  0298                     l13802:	
  3615                           ;main.c: 234: printf("%d", LanMai);
  3616  0298  1283               	bcf	status, 5	;RP0=0, select bank0
  3617  0299  1303               	bcf	status, 6	;RP1=0, select bank0
  3618  029A  085B               	movf	(_LanMai),w
  3619  029B  00D7               	movwf	(??_main+0)+0
  3620  029C  01D8               	clrf	(??_main+0)+0+1
  3621  029D  0857               	movf	0+(??_main+0)+0,w
  3622  029E  00AC               	movwf	(?_printf)
  3623  029F  0858               	movf	1+(??_main+0)+0,w
  3624  02A0  00AD               	movwf	(?_printf+1)
  3625  02A1  30BA               	movlw	((STR_22-__stringbase))&0ffh
  3626  02A2  120A  158A  200D   	fcall	_printf
              120A  118A         
  3627                           	line	235
  3628                           	
  3629  02A7                     l13804:	
  3630                           ;main.c: 235: if (isButtonMode()) {
  3631  02A7  160A  158A  25CD   	fcall	_isButtonMode
              120A  118A         
  3632  02AC  3A00               	xorlw	0
  3633  02AD  1903               	skipnz
  3634  02AE  2AB0               	goto	u10201
  3635  02AF  2AB1               	goto	u10200
  3636  02B0                     u10201:
  3637  02B0  2ABF               	goto	l13810
  3638  02B1                     u10200:
  3639                           	line	236
  3640                           	
  3641  02B1                     l13806:	
  3642                           ;main.c: 236: demgiatri = 0;
  3643  02B1  1683               	bsf	status, 5	;RP0=1, select bank1
  3644  02B2  1303               	bcf	status, 6	;RP1=0, select bank1
  3645  02B3  01D2               	clrf	(_demgiatri)^080h
  3646                           	line	237
  3647                           ;main.c: 237: indexOfNumber = 0;
  3648  02B4  01D6               	clrf	(_indexOfNumber)^080h
  3649                           	line	238
  3650                           ;main.c: 238: SoLan = 0;
  3651  02B5  01CB               	clrf	(_SoLan)^080h
  3652                           	line	239
  3653                           	
  3654  02B6                     l13808:	
  3655                           ;main.c: 239: statusMachine = 105;
  3656  02B6  3069               	movlw	(069h)
  3657  02B7  1283               	bcf	status, 5	;RP0=0, select bank0
  3658  02B8  1303               	bcf	status, 6	;RP1=0, select bank0
  3659  02B9  00D7               	movwf	(??_main+0)+0
  3660  02BA  0857               	movf	(??_main+0)+0,w
  3661  02BB  1683               	bsf	status, 5	;RP0=1, select bank1
  3662  02BC  1303               	bcf	status, 6	;RP1=0, select bank1
  3663  02BD  00E3               	movwf	(_statusMachine)^080h
  3664  02BE  2ABF               	goto	l13810
  3665                           	line	240
  3666                           	
  3667  02BF                     l1199:	
  3668                           	line	241
  3669                           	
  3670  02BF                     l13810:	
  3671                           ;main.c: 240: }
  3672                           ;main.c: 241: if (isButtonUp()) {
  3673  02BF  160A  158A  276C   	fcall	_isButtonUp
              120A  118A         
  3674  02C4  3A00               	xorlw	0
  3675  02C5  1903               	skipnz
  3676  02C6  2AC8               	goto	u10211
  3677  02C7  2AC9               	goto	u10210
  3678  02C8                     u10211:
  3679  02C8  2B03               	goto	l13822
  3680  02C9                     u10210:
  3681                           	line	242
  3682                           	
  3683  02C9                     l13812:	
  3684                           ;main.c: 242: _delay((unsigned long)((100)*(8000000/4000.0)));
  3685                           	opt asmopt_off
  3686  02C9  3002               movlw  2
  3687  02CA  1283               	bcf	status, 5	;RP0=0, select bank0
  3688  02CB  1303               	bcf	status, 6	;RP1=0, select bank0
  3689  02CC  00D9               movwf	((??_main+0)+0+2),f
  3690  02CD  3004               movlw	4
  3691  02CE  00D8               movwf	((??_main+0)+0+1),f
  3692  02CF  30BA               	movlw	186
  3693  02D0  00D7               movwf	((??_main+0)+0),f
  3694  02D1                     u10557:
  3695  02D1  0BD7               	decfsz	((??_main+0)+0),f
  3696  02D2  2AD1               	goto	u10557
  3697  02D3  0BD8               	decfsz	((??_main+0)+0+1),f
  3698  02D4  2AD1               	goto	u10557
  3699  02D5  0BD9               	decfsz	((??_main+0)+0+2),f
  3700  02D6  2AD1               	goto	u10557
  3701  02D7  0064               	clrwdt
  3702                           opt asmopt_on
  3703                           
  3704                           	line	243
  3705                           	
  3706  02D8                     l13814:	
  3707                           ;main.c: 243: if (isButtonUp()) {
  3708  02D8  160A  158A  276C   	fcall	_isButtonUp
              120A  118A         
  3709  02DD  3A00               	xorlw	0
  3710  02DE  1903               	skipnz
  3711  02DF  2AE1               	goto	u10221
  3712  02E0  2AE2               	goto	u10220
  3713  02E1                     u10221:
  3714  02E1  2B03               	goto	l13822
  3715  02E2                     u10220:
  3716                           	line	244
  3717                           	
  3718  02E2                     l13816:	
  3719                           ;main.c: 244: demgiatri = 0;
  3720  02E2  1683               	bsf	status, 5	;RP0=1, select bank1
  3721  02E3  1303               	bcf	status, 6	;RP1=0, select bank1
  3722  02E4  01D2               	clrf	(_demgiatri)^080h
  3723                           	line	245
  3724                           ;main.c: 245: indexOfNumber = 0;
  3725  02E5  01D6               	clrf	(_indexOfNumber)^080h
  3726                           	line	246
  3727                           ;main.c: 246: SoLan = 0;
  3728  02E6  01CB               	clrf	(_SoLan)^080h
  3729                           	line	247
  3730                           	
  3731  02E7                     l13818:	
  3732                           ;main.c: 247: lcd_gotoxy(11, 2);
  3733  02E7  3002               	movlw	(02h)
  3734  02E8  1283               	bcf	status, 5	;RP0=0, select bank0
  3735  02E9  1303               	bcf	status, 6	;RP1=0, select bank0
  3736  02EA  00D7               	movwf	(??_main+0)+0
  3737  02EB  0857               	movf	(??_main+0)+0,w
  3738  02EC  00A4               	movwf	(?_lcd_gotoxy)
  3739  02ED  300B               	movlw	(0Bh)
  3740  02EE  160A  118A  2152   	fcall	_lcd_gotoxy
              120A  118A         
  3741                           	line	248
  3742                           ;main.c: 248: lcd_puts(" ");
  3743  02F3  30AE               	movlw	((STR_23-__stringbase))&0ffh
  3744  02F4  160A  118A  20C5   	fcall	_lcd_puts
              120A  118A         
  3745                           	line	249
  3746                           	
  3747  02F9                     l13820:	
  3748                           ;main.c: 249: statusMachine = 102;
  3749  02F9  3066               	movlw	(066h)
  3750  02FA  1283               	bcf	status, 5	;RP0=0, select bank0
  3751  02FB  1303               	bcf	status, 6	;RP1=0, select bank0
  3752  02FC  00D7               	movwf	(??_main+0)+0
  3753  02FD  0857               	movf	(??_main+0)+0,w
  3754  02FE  1683               	bsf	status, 5	;RP0=1, select bank1
  3755  02FF  1303               	bcf	status, 6	;RP1=0, select bank1
  3756  0300  00E3               	movwf	(_statusMachine)^080h
  3757  0301  2B03               	goto	l13822
  3758                           	line	250
  3759                           	
  3760  0302                     l1201:	
  3761  0302  2B03               	goto	l13822
  3762                           	line	251
  3763                           	
  3764  0303                     l1200:	
  3765                           	line	252
  3766                           	
  3767  0303                     l13822:	
  3768                           ;main.c: 250: }
  3769                           ;main.c: 251: }
  3770                           ;main.c: 252: if (isButtonCancel()) {
  3771  0303  160A  158A  25EF   	fcall	_isButtonCancel
              120A  118A         
  3772  0308  3A00               	xorlw	0
  3773  0309  1903               	skipnz
  3774  030A  2B0C               	goto	u10231
  3775  030B  2B0D               	goto	u10230
  3776  030C                     u10231:
  3777  030C  2829               	goto	l13550
  3778  030D                     u10230:
  3779                           	line	253
  3780                           	
  3781  030D                     l13824:	
  3782                           ;main.c: 253: lcd_gotoxy(12, 2);
  3783  030D  3002               	movlw	(02h)
  3784  030E  1283               	bcf	status, 5	;RP0=0, select bank0
  3785  030F  1303               	bcf	status, 6	;RP1=0, select bank0
  3786  0310  00D7               	movwf	(??_main+0)+0
  3787  0311  0857               	movf	(??_main+0)+0,w
  3788  0312  00A4               	movwf	(?_lcd_gotoxy)
  3789  0313  300C               	movlw	(0Ch)
  3790  0314  160A  118A  2152   	fcall	_lcd_gotoxy
              120A  118A         
  3791                           	line	254
  3792                           ;main.c: 254: lcd_puts("   ");
  3793  0319  30AC               	movlw	((STR_24-__stringbase))&0ffh
  3794  031A  160A  118A  20C5   	fcall	_lcd_puts
              120A  118A         
  3795                           	line	255
  3796                           	
  3797  031F                     l13826:	
  3798                           ;main.c: 255: demgiatri = 0;
  3799  031F  1683               	bsf	status, 5	;RP0=1, select bank1
  3800  0320  1303               	bcf	status, 6	;RP1=0, select bank1
  3801  0321  01D2               	clrf	(_demgiatri)^080h
  3802                           	line	256
  3803                           	
  3804  0322                     l13828:	
  3805                           ;main.c: 256: indexOfNumber = 0;
  3806  0322  01D6               	clrf	(_indexOfNumber)^080h
  3807                           	line	257
  3808                           	
  3809  0323                     l13830:	
  3810                           ;main.c: 257: SoLan = 0;
  3811  0323  01CB               	clrf	(_SoLan)^080h
  3812                           	line	258
  3813                           	
  3814  0324                     l13832:	
  3815                           ;main.c: 258: LanMai = 0;
  3816  0324  1283               	bcf	status, 5	;RP0=0, select bank0
  3817  0325  1303               	bcf	status, 6	;RP1=0, select bank0
  3818  0326  01DB               	clrf	(_LanMai)
  3819  0327  2829               	goto	l13550
  3820                           	line	259
  3821                           	
  3822  0328                     l1202:	
  3823                           	line	260
  3824                           ;main.c: 259: }
  3825                           ;main.c: 260: break;
  3826  0328  2829               	goto	l13550
  3827                           	line	261
  3828                           ;main.c: 261: case 105:
  3829                           	
  3830  0329                     l1203:	
  3831                           	line	262
  3832                           	
  3833  0329                     l13834:	
  3834                           ;main.c: 262: lcd_gotoxy(11, 2);
  3835  0329  3002               	movlw	(02h)
  3836  032A  1283               	bcf	status, 5	;RP0=0, select bank0
  3837  032B  00D7               	movwf	(??_main+0)+0
  3838  032C  0857               	movf	(??_main+0)+0,w
  3839  032D  00A4               	movwf	(?_lcd_gotoxy)
  3840  032E  300B               	movlw	(0Bh)
  3841  032F  160A  118A  2152   	fcall	_lcd_gotoxy
              120A  118A         
  3842                           	line	263
  3843                           ;main.c: 263: lcd_puts(" ");
  3844  0334  30AE               	movlw	((STR_25-__stringbase))&0ffh
  3845  0335  160A  118A  20C5   	fcall	_lcd_puts
              120A  118A         
  3846                           	line	264
  3847                           ;main.c: 264: lcd_gotoxy(11, 3);
  3848  033A  3003               	movlw	(03h)
  3849  033B  1283               	bcf	status, 5	;RP0=0, select bank0
  3850  033C  1303               	bcf	status, 6	;RP1=0, select bank0
  3851  033D  00D7               	movwf	(??_main+0)+0
  3852  033E  0857               	movf	(??_main+0)+0,w
  3853  033F  00A4               	movwf	(?_lcd_gotoxy)
  3854  0340  300B               	movlw	(0Bh)
  3855  0341  160A  118A  2152   	fcall	_lcd_gotoxy
              120A  118A         
  3856                           	line	265
  3857                           ;main.c: 265: lcd_puts("-");
  3858  0346  30BD               	movlw	((STR_26-__stringbase))&0ffh
  3859  0347  160A  118A  20C5   	fcall	_lcd_puts
              120A  118A         
  3860                           	line	266
  3861                           ;main.c: 266: if (isButtonNumber() && Number() >= 0 && Number() <= 9) {
  3862  034C  160A  118A  2119   	fcall	_isButtonNumber
              120A  118A         
  3863  0351  3A00               	xorlw	0
  3864  0352  1903               	skipnz
  3865  0353  2B55               	goto	u10241
  3866  0354  2B56               	goto	u10240
  3867  0355                     u10241:
  3868  0355  2BA2               	goto	l1204
  3869  0356                     u10240:
  3870                           	
  3871  0356                     l13836:	
  3872  0356  160A  118A  2440   	fcall	_Number
              120A  118A         
  3873  035B  1BF5               	btfsc	(1+(?_Number)),7
  3874  035C  2B5E               	goto	u10251
  3875  035D  2B5F               	goto	u10250
  3876  035E                     u10251:
  3877  035E  2BA2               	goto	l1204
  3878  035F                     u10250:
  3879                           	
  3880  035F                     l13838:	
  3881  035F  160A  118A  2440   	fcall	_Number
              120A  118A         
  3882  0364  0875               	movf	(1+(?_Number)),w
  3883  0365  3A80               	xorlw	80h
  3884  0366  00FF               	movwf	btemp+1
  3885  0367  3080               	movlw	(high(0Ah))^80h
  3886  0368  027F               	subwf	btemp+1,w
  3887  0369  1D03               	skipz
  3888  036A  2B6D               	goto	u10265
  3889  036B  300A               	movlw	low(0Ah)
  3890  036C  0274               	subwf	(0+(?_Number)),w
  3891  036D                     u10265:
  3892                           
  3893  036D  1803               	skipnc
  3894  036E  2B70               	goto	u10261
  3895  036F  2B71               	goto	u10260
  3896  0370                     u10261:
  3897  0370  2BA2               	goto	l1204
  3898  0371                     u10260:
  3899                           	line	267
  3900                           	
  3901  0371                     l13840:	
  3902                           ;main.c: 267: demgiatri++;
  3903  0371  3001               	movlw	(01h)
  3904  0372  1283               	bcf	status, 5	;RP0=0, select bank0
  3905  0373  1303               	bcf	status, 6	;RP1=0, select bank0
  3906  0374  00D7               	movwf	(??_main+0)+0
  3907  0375  0857               	movf	(??_main+0)+0,w
  3908  0376  1683               	bsf	status, 5	;RP0=1, select bank1
  3909  0377  1303               	bcf	status, 6	;RP1=0, select bank1
  3910  0378  07D2               	addwf	(_demgiatri)^080h,f
  3911                           	line	268
  3912                           	
  3913  0379                     l13842:	
  3914                           ;main.c: 268: GiaTri[indexOfNumber++] = Number();
  3915  0379  160A  118A  2440   	fcall	_Number
              120A  118A         
  3916  037E  0874               	movf	(0+(?_Number)),w
  3917  037F  1283               	bcf	status, 5	;RP0=0, select bank0
  3918  0380  1303               	bcf	status, 6	;RP1=0, select bank0
  3919  0381  00D7               	movwf	(??_main+0)+0
  3920  0382  1683               	bsf	status, 5	;RP0=1, select bank1
  3921  0383  1303               	bcf	status, 6	;RP1=0, select bank1
  3922  0384  0856               	movf	(_indexOfNumber)^080h,w
  3923  0385  3EC0               	addlw	_GiaTri&0ffh
  3924  0386  0084               	movwf	fsr0
  3925  0387  1283               	bcf	status, 5	;RP0=0, select bank0
  3926  0388  1303               	bcf	status, 6	;RP1=0, select bank0
  3927  0389  0857               	movf	(??_main+0)+0,w
  3928  038A  1383               	bcf	status, 7	;select IRP bank1
  3929  038B  0080               	movwf	indf
  3930                           	
  3931  038C                     l13844:	
  3932  038C  3001               	movlw	(01h)
  3933  038D  00D7               	movwf	(??_main+0)+0
  3934  038E  0857               	movf	(??_main+0)+0,w
  3935  038F  1683               	bsf	status, 5	;RP0=1, select bank1
  3936  0390  1303               	bcf	status, 6	;RP1=0, select bank1
  3937  0391  07D6               	addwf	(_indexOfNumber)^080h,f
  3938                           	line	269
  3939                           	
  3940  0392                     l13846:	
  3941                           ;main.c: 269: TinhGiaTri();
  3942  0392  160A  118A  24DD   	fcall	_TinhGiaTri
              120A  118A         
  3943                           	line	270
  3944                           	
  3945  0397                     l13848:	
  3946                           ;main.c: 270: DoEp = TinhGiaTri();
  3947  0397  160A  118A  24DD   	fcall	_TinhGiaTri
              120A  118A         
  3948  039C  1283               	bcf	status, 5	;RP0=0, select bank0
  3949  039D  1303               	bcf	status, 6	;RP1=0, select bank0
  3950  039E  0824               	movf	(0+(?_TinhGiaTri)),w
  3951  039F  00D7               	movwf	(??_main+0)+0
  3952  03A0  0857               	movf	(??_main+0)+0,w
  3953  03A1  00DA               	movwf	(_DoEp)
  3954                           	line	271
  3955                           	
  3956  03A2                     l1204:	
  3957                           	line	272
  3958                           ;main.c: 271: }
  3959                           ;main.c: 272: lcd_gotoxy(12, 3);
  3960  03A2  3003               	movlw	(03h)
  3961  03A3  1283               	bcf	status, 5	;RP0=0, select bank0
  3962  03A4  1303               	bcf	status, 6	;RP1=0, select bank0
  3963  03A5  00D7               	movwf	(??_main+0)+0
  3964  03A6  0857               	movf	(??_main+0)+0,w
  3965  03A7  00A4               	movwf	(?_lcd_gotoxy)
  3966  03A8  300C               	movlw	(0Ch)
  3967  03A9  160A  118A  2152   	fcall	_lcd_gotoxy
              120A  118A         
  3968                           	line	273
  3969                           	
  3970  03AE                     l13850:	
  3971                           ;main.c: 273: printf("%d", DoEp);
  3972  03AE  1283               	bcf	status, 5	;RP0=0, select bank0
  3973  03AF  1303               	bcf	status, 6	;RP1=0, select bank0
  3974  03B0  085A               	movf	(_DoEp),w
  3975  03B1  00D7               	movwf	(??_main+0)+0
  3976  03B2  01D8               	clrf	(??_main+0)+0+1
  3977  03B3  0857               	movf	0+(??_main+0)+0,w
  3978  03B4  00AC               	movwf	(?_printf)
  3979  03B5  0858               	movf	1+(??_main+0)+0,w
  3980  03B6  00AD               	movwf	(?_printf+1)
  3981  03B7  30BA               	movlw	((STR_27-__stringbase))&0ffh
  3982  03B8  120A  158A  200D   	fcall	_printf
              120A  118A         
  3983                           	line	274
  3984                           	
  3985  03BD                     l13852:	
  3986                           ;main.c: 274: if (isButtonMode()) {
  3987  03BD  160A  158A  25CD   	fcall	_isButtonMode
              120A  118A         
  3988  03C2  3A00               	xorlw	0
  3989  03C3  1903               	skipnz
  3990  03C4  2BC6               	goto	u10271
  3991  03C5  2BC7               	goto	u10270
  3992  03C6                     u10271:
  3993  03C6  2BDB               	goto	l13864
  3994  03C7                     u10270:
  3995                           	line	275
  3996                           	
  3997  03C7                     l13854:	
  3998                           ;main.c: 275: lcd_putc('\f');
  3999  03C7  300C               	movlw	(0Ch)
  4000  03C8  160A  118A  23B9   	fcall	_lcd_putc
              120A  118A         
  4001                           	line	276
  4002                           	
  4003  03CD                     l13856:	
  4004                           ;main.c: 276: demgiatri = 0;
  4005  03CD  1683               	bsf	status, 5	;RP0=1, select bank1
  4006  03CE  1303               	bcf	status, 6	;RP1=0, select bank1
  4007  03CF  01D2               	clrf	(_demgiatri)^080h
  4008                           	line	277
  4009                           	
  4010  03D0                     l13858:	
  4011                           ;main.c: 277: indexOfNumber = 0;
  4012  03D0  01D6               	clrf	(_indexOfNumber)^080h
  4013                           	line	278
  4014                           	
  4015  03D1                     l13860:	
  4016                           ;main.c: 278: SoLan = 0;
  4017  03D1  01CB               	clrf	(_SoLan)^080h
  4018                           	line	279
  4019                           	
  4020  03D2                     l13862:	
  4021                           ;main.c: 279: statusMachine = 106;
  4022  03D2  306A               	movlw	(06Ah)
  4023  03D3  1283               	bcf	status, 5	;RP0=0, select bank0
  4024  03D4  1303               	bcf	status, 6	;RP1=0, select bank0
  4025  03D5  00D7               	movwf	(??_main+0)+0
  4026  03D6  0857               	movf	(??_main+0)+0,w
  4027  03D7  1683               	bsf	status, 5	;RP0=1, select bank1
  4028  03D8  1303               	bcf	status, 6	;RP1=0, select bank1
  4029  03D9  00E3               	movwf	(_statusMachine)^080h
  4030  03DA  2BDB               	goto	l13864
  4031                           	line	280
  4032                           	
  4033  03DB                     l1205:	
  4034                           	line	281
  4035                           	
  4036  03DB                     l13864:	
  4037                           ;main.c: 280: }
  4038                           ;main.c: 281: if (isButtonUp()) {
  4039  03DB  160A  158A  276C   	fcall	_isButtonUp
              120A  118A         
  4040  03E0  3A00               	xorlw	0
  4041  03E1  1903               	skipnz
  4042  03E2  2BE4               	goto	u10281
  4043  03E3  2BE5               	goto	u10280
  4044  03E4                     u10281:
  4045  03E4  2C1F               	goto	l13876
  4046  03E5                     u10280:
  4047                           	line	282
  4048                           	
  4049  03E5                     l13866:	
  4050                           ;main.c: 282: _delay((unsigned long)((100)*(8000000/4000.0)));
  4051                           	opt asmopt_off
  4052  03E5  3002               movlw  2
  4053  03E6  1283               	bcf	status, 5	;RP0=0, select bank0
  4054  03E7  1303               	bcf	status, 6	;RP1=0, select bank0
  4055  03E8  00D9               movwf	((??_main+0)+0+2),f
  4056  03E9  3004               movlw	4
  4057  03EA  00D8               movwf	((??_main+0)+0+1),f
  4058  03EB  30BA               	movlw	186
  4059  03EC  00D7               movwf	((??_main+0)+0),f
  4060  03ED                     u10567:
  4061  03ED  0BD7               	decfsz	((??_main+0)+0),f
  4062  03EE  2BED               	goto	u10567
  4063  03EF  0BD8               	decfsz	((??_main+0)+0+1),f
  4064  03F0  2BED               	goto	u10567
  4065  03F1  0BD9               	decfsz	((??_main+0)+0+2),f
  4066  03F2  2BED               	goto	u10567
  4067  03F3  0064               	clrwdt
  4068                           opt asmopt_on
  4069                           
  4070                           	line	283
  4071                           	
  4072  03F4                     l13868:	
  4073                           ;main.c: 283: if (isButtonUp()) {
  4074  03F4  160A  158A  276C   	fcall	_isButtonUp
              120A  118A         
  4075  03F9  3A00               	xorlw	0
  4076  03FA  1903               	skipnz
  4077  03FB  2BFD               	goto	u10291
  4078  03FC  2BFE               	goto	u10290
  4079  03FD                     u10291:
  4080  03FD  2C1F               	goto	l13876
  4081  03FE                     u10290:
  4082                           	line	284
  4083                           	
  4084  03FE                     l13870:	
  4085                           ;main.c: 284: demgiatri = 0;
  4086  03FE  1683               	bsf	status, 5	;RP0=1, select bank1
  4087  03FF  1303               	bcf	status, 6	;RP1=0, select bank1
  4088  0400  01D2               	clrf	(_demgiatri)^080h
  4089                           	line	285
  4090                           ;main.c: 285: indexOfNumber = 0;
  4091  0401  01D6               	clrf	(_indexOfNumber)^080h
  4092                           	line	286
  4093                           ;main.c: 286: SoLan = 0;
  4094  0402  01CB               	clrf	(_SoLan)^080h
  4095                           	line	287
  4096                           	
  4097  0403                     l13872:	
  4098                           ;main.c: 287: lcd_gotoxy(11, 3);
  4099  0403  3003               	movlw	(03h)
  4100  0404  1283               	bcf	status, 5	;RP0=0, select bank0
  4101  0405  1303               	bcf	status, 6	;RP1=0, select bank0
  4102  0406  00D7               	movwf	(??_main+0)+0
  4103  0407  0857               	movf	(??_main+0)+0,w
  4104  0408  00A4               	movwf	(?_lcd_gotoxy)
  4105  0409  300B               	movlw	(0Bh)
  4106  040A  160A  118A  2152   	fcall	_lcd_gotoxy
              120A  118A         
  4107                           	line	288
  4108                           ;main.c: 288: lcd_puts(" ");
  4109  040F  30AE               	movlw	((STR_28-__stringbase))&0ffh
  4110  0410  160A  118A  20C5   	fcall	_lcd_puts
              120A  118A         
  4111                           	line	289
  4112                           	
  4113  0415                     l13874:	
  4114                           ;main.c: 289: statusMachine = 104;
  4115  0415  3068               	movlw	(068h)
  4116  0416  1283               	bcf	status, 5	;RP0=0, select bank0
  4117  0417  1303               	bcf	status, 6	;RP1=0, select bank0
  4118  0418  00D7               	movwf	(??_main+0)+0
  4119  0419  0857               	movf	(??_main+0)+0,w
  4120  041A  1683               	bsf	status, 5	;RP0=1, select bank1
  4121  041B  1303               	bcf	status, 6	;RP1=0, select bank1
  4122  041C  00E3               	movwf	(_statusMachine)^080h
  4123  041D  2C1F               	goto	l13876
  4124                           	line	290
  4125                           	
  4126  041E                     l1207:	
  4127  041E  2C1F               	goto	l13876
  4128                           	line	291
  4129                           	
  4130  041F                     l1206:	
  4131                           	line	292
  4132                           	
  4133  041F                     l13876:	
  4134                           ;main.c: 290: }
  4135                           ;main.c: 291: }
  4136                           ;main.c: 292: if (isButtonCancel()) {
  4137  041F  160A  158A  25EF   	fcall	_isButtonCancel
              120A  118A         
  4138  0424  3A00               	xorlw	0
  4139  0425  1903               	skipnz
  4140  0426  2C28               	goto	u10301
  4141  0427  2C29               	goto	u10300
  4142  0428                     u10301:
  4143  0428  2829               	goto	l13550
  4144  0429                     u10300:
  4145                           	line	293
  4146                           	
  4147  0429                     l13878:	
  4148                           ;main.c: 293: lcd_gotoxy(12, 3);
  4149  0429  3003               	movlw	(03h)
  4150  042A  1283               	bcf	status, 5	;RP0=0, select bank0
  4151  042B  1303               	bcf	status, 6	;RP1=0, select bank0
  4152  042C  00D7               	movwf	(??_main+0)+0
  4153  042D  0857               	movf	(??_main+0)+0,w
  4154  042E  00A4               	movwf	(?_lcd_gotoxy)
  4155  042F  300C               	movlw	(0Ch)
  4156  0430  160A  118A  2152   	fcall	_lcd_gotoxy
              120A  118A         
  4157                           	line	294
  4158                           ;main.c: 294: lcd_puts("   ");
  4159  0435  30AC               	movlw	((STR_29-__stringbase))&0ffh
  4160  0436  160A  118A  20C5   	fcall	_lcd_puts
              120A  118A         
  4161                           	line	295
  4162                           	
  4163  043B                     l13880:	
  4164                           ;main.c: 295: demgiatri = 0;
  4165  043B  1683               	bsf	status, 5	;RP0=1, select bank1
  4166  043C  1303               	bcf	status, 6	;RP1=0, select bank1
  4167  043D  01D2               	clrf	(_demgiatri)^080h
  4168                           	line	296
  4169                           	
  4170  043E                     l13882:	
  4171                           ;main.c: 296: indexOfNumber = 0;
  4172  043E  01D6               	clrf	(_indexOfNumber)^080h
  4173                           	line	297
  4174                           	
  4175  043F                     l13884:	
  4176                           ;main.c: 297: SoLan = 0;
  4177  043F  01CB               	clrf	(_SoLan)^080h
  4178                           	line	298
  4179                           	
  4180  0440                     l13886:	
  4181                           ;main.c: 298: DoEp = 0;
  4182  0440  1283               	bcf	status, 5	;RP0=0, select bank0
  4183  0441  1303               	bcf	status, 6	;RP1=0, select bank0
  4184  0442  01DA               	clrf	(_DoEp)
  4185  0443  2829               	goto	l13550
  4186                           	line	299
  4187                           	
  4188  0444                     l1208:	
  4189                           	line	300
  4190                           ;main.c: 299: }
  4191                           ;main.c: 300: break;
  4192  0444  2829               	goto	l13550
  4193                           	line	301
  4194                           ;main.c: 301: case 106:
  4195                           	
  4196  0445                     l1209:	
  4197                           	line	302
  4198                           	
  4199  0445                     l13888:	
  4200                           ;main.c: 302: lcd_gotoxy(9, 0);
  4201  0445  1283               	bcf	status, 5	;RP0=0, select bank0
  4202  0446  01A4               	clrf	(?_lcd_gotoxy)
  4203  0447  3009               	movlw	(09h)
  4204  0448  160A  118A  2152   	fcall	_lcd_gotoxy
              120A  118A         
  4205                           	line	303
  4206                           ;main.c: 303: lcd_puts("-");
  4207  044D  30BD               	movlw	((STR_30-__stringbase))&0ffh
  4208  044E  160A  118A  20C5   	fcall	_lcd_puts
              120A  118A         
  4209                           	line	304
  4210                           ;main.c: 304: if (isButtonNumber() && Number() >= 0 && Number() <= 9) {
  4211  0453  160A  118A  2119   	fcall	_isButtonNumber
              120A  118A         
  4212  0458  3A00               	xorlw	0
  4213  0459  1903               	skipnz
  4214  045A  2C5C               	goto	u10311
  4215  045B  2C5D               	goto	u10310
  4216  045C                     u10311:
  4217  045C  2CAB               	goto	l1210
  4218  045D                     u10310:
  4219                           	
  4220  045D                     l13890:	
  4221  045D  160A  118A  2440   	fcall	_Number
              120A  118A         
  4222  0462  1BF5               	btfsc	(1+(?_Number)),7
  4223  0463  2C65               	goto	u10321
  4224  0464  2C66               	goto	u10320
  4225  0465                     u10321:
  4226  0465  2CAB               	goto	l1210
  4227  0466                     u10320:
  4228                           	
  4229  0466                     l13892:	
  4230  0466  160A  118A  2440   	fcall	_Number
              120A  118A         
  4231  046B  0875               	movf	(1+(?_Number)),w
  4232  046C  3A80               	xorlw	80h
  4233  046D  00FF               	movwf	btemp+1
  4234  046E  3080               	movlw	(high(0Ah))^80h
  4235  046F  027F               	subwf	btemp+1,w
  4236  0470  1D03               	skipz
  4237  0471  2C74               	goto	u10335
  4238  0472  300A               	movlw	low(0Ah)
  4239  0473  0274               	subwf	(0+(?_Number)),w
  4240  0474                     u10335:
  4241                           
  4242  0474  1803               	skipnc
  4243  0475  2C77               	goto	u10331
  4244  0476  2C78               	goto	u10330
  4245  0477                     u10331:
  4246  0477  2CAB               	goto	l1210
  4247  0478                     u10330:
  4248                           	line	305
  4249                           	
  4250  0478                     l13894:	
  4251                           ;main.c: 305: demgiatri++;
  4252  0478  3001               	movlw	(01h)
  4253  0479  1283               	bcf	status, 5	;RP0=0, select bank0
  4254  047A  1303               	bcf	status, 6	;RP1=0, select bank0
  4255  047B  00D7               	movwf	(??_main+0)+0
  4256  047C  0857               	movf	(??_main+0)+0,w
  4257  047D  1683               	bsf	status, 5	;RP0=1, select bank1
  4258  047E  1303               	bcf	status, 6	;RP1=0, select bank1
  4259  047F  07D2               	addwf	(_demgiatri)^080h,f
  4260                           	line	306
  4261                           	
  4262  0480                     l13896:	
  4263                           ;main.c: 306: GiaTri[indexOfNumber++] = Number();
  4264  0480  160A  118A  2440   	fcall	_Number
              120A  118A         
  4265  0485  0874               	movf	(0+(?_Number)),w
  4266  0486  1283               	bcf	status, 5	;RP0=0, select bank0
  4267  0487  1303               	bcf	status, 6	;RP1=0, select bank0
  4268  0488  00D7               	movwf	(??_main+0)+0
  4269  0489  1683               	bsf	status, 5	;RP0=1, select bank1
  4270  048A  1303               	bcf	status, 6	;RP1=0, select bank1
  4271  048B  0856               	movf	(_indexOfNumber)^080h,w
  4272  048C  3EC0               	addlw	_GiaTri&0ffh
  4273  048D  0084               	movwf	fsr0
  4274  048E  1283               	bcf	status, 5	;RP0=0, select bank0
  4275  048F  1303               	bcf	status, 6	;RP1=0, select bank0
  4276  0490  0857               	movf	(??_main+0)+0,w
  4277  0491  1383               	bcf	status, 7	;select IRP bank1
  4278  0492  0080               	movwf	indf
  4279                           	
  4280  0493                     l13898:	
  4281  0493  3001               	movlw	(01h)
  4282  0494  00D7               	movwf	(??_main+0)+0
  4283  0495  0857               	movf	(??_main+0)+0,w
  4284  0496  1683               	bsf	status, 5	;RP0=1, select bank1
  4285  0497  1303               	bcf	status, 6	;RP1=0, select bank1
  4286  0498  07D6               	addwf	(_indexOfNumber)^080h,f
  4287                           	line	307
  4288                           	
  4289  0499                     l13900:	
  4290                           ;main.c: 307: TinhGiaTri();
  4291  0499  160A  118A  24DD   	fcall	_TinhGiaTri
              120A  118A         
  4292                           	line	308
  4293                           	
  4294  049E                     l13902:	
  4295                           ;main.c: 308: MaiTho = TinhGiaTri();
  4296  049E  160A  118A  24DD   	fcall	_TinhGiaTri
              120A  118A         
  4297  04A3  1283               	bcf	status, 5	;RP0=0, select bank0
  4298  04A4  1303               	bcf	status, 6	;RP1=0, select bank0
  4299  04A5  0824               	movf	(0+(?_TinhGiaTri)),w
  4300  04A6  00D7               	movwf	(??_main+0)+0
  4301  04A7  0857               	movf	(??_main+0)+0,w
  4302  04A8  1683               	bsf	status, 5	;RP0=1, select bank1
  4303  04A9  1303               	bcf	status, 6	;RP1=0, select bank1
  4304  04AA  00C9               	movwf	(_MaiTho)^080h
  4305                           	line	309
  4306                           	
  4307  04AB                     l1210:	
  4308                           	line	310
  4309                           ;main.c: 309: }
  4310                           ;main.c: 310: lcd_gotoxy(10, 0);
  4311  04AB  1283               	bcf	status, 5	;RP0=0, select bank0
  4312  04AC  1303               	bcf	status, 6	;RP1=0, select bank0
  4313  04AD  01A4               	clrf	(?_lcd_gotoxy)
  4314  04AE  300A               	movlw	(0Ah)
  4315  04AF  160A  118A  2152   	fcall	_lcd_gotoxy
              120A  118A         
  4316                           	line	311
  4317                           	
  4318  04B4                     l13904:	
  4319                           ;main.c: 311: printf("%d", MaiTho);
  4320  04B4  1683               	bsf	status, 5	;RP0=1, select bank1
  4321  04B5  1303               	bcf	status, 6	;RP1=0, select bank1
  4322  04B6  0849               	movf	(_MaiTho)^080h,w
  4323  04B7  1283               	bcf	status, 5	;RP0=0, select bank0
  4324  04B8  1303               	bcf	status, 6	;RP1=0, select bank0
  4325  04B9  00D7               	movwf	(??_main+0)+0
  4326  04BA  01D8               	clrf	(??_main+0)+0+1
  4327  04BB  0857               	movf	0+(??_main+0)+0,w
  4328  04BC  00AC               	movwf	(?_printf)
  4329  04BD  0858               	movf	1+(??_main+0)+0,w
  4330  04BE  00AD               	movwf	(?_printf+1)
  4331  04BF  30BA               	movlw	((STR_31-__stringbase))&0ffh
  4332  04C0  120A  158A  200D   	fcall	_printf
              120A  118A         
  4333                           	line	312
  4334                           	
  4335  04C5                     l13906:	
  4336                           ;main.c: 312: lcd_gotoxy(0, 0);
  4337  04C5  1283               	bcf	status, 5	;RP0=0, select bank0
  4338  04C6  1303               	bcf	status, 6	;RP1=0, select bank0
  4339  04C7  01A4               	clrf	(?_lcd_gotoxy)
  4340  04C8  3000               	movlw	(0)
  4341  04C9  160A  118A  2152   	fcall	_lcd_gotoxy
              120A  118A         
  4342                           	line	313
  4343                           	
  4344  04CE                     l13908:	
  4345                           ;main.c: 313: lcd_puts("EP THO:");
  4346  04CE  3093               	movlw	((STR_32-__stringbase))&0ffh
  4347  04CF  160A  118A  20C5   	fcall	_lcd_puts
              120A  118A         
  4348                           	line	314
  4349                           	
  4350  04D4                     l13910:	
  4351                           ;main.c: 314: lcd_gotoxy(12, 0);
  4352  04D4  1283               	bcf	status, 5	;RP0=0, select bank0
  4353  04D5  1303               	bcf	status, 6	;RP1=0, select bank0
  4354  04D6  01A4               	clrf	(?_lcd_gotoxy)
  4355  04D7  300C               	movlw	(0Ch)
  4356  04D8  160A  118A  2152   	fcall	_lcd_gotoxy
              120A  118A         
  4357                           	line	315
  4358                           	
  4359  04DD                     l13912:	
  4360                           ;main.c: 315: lcd_puts("LAN");
  4361  04DD  30B0               	movlw	((STR_33-__stringbase))&0ffh
  4362  04DE  160A  118A  20C5   	fcall	_lcd_puts
              120A  118A         
  4363                           	line	316
  4364                           	
  4365  04E3                     l13914:	
  4366                           ;main.c: 316: if (isButtonMode()) {
  4367  04E3  160A  158A  25CD   	fcall	_isButtonMode
              120A  118A         
  4368  04E8  3A00               	xorlw	0
  4369  04E9  1903               	skipnz
  4370  04EA  2CEC               	goto	u10341
  4371  04EB  2CED               	goto	u10340
  4372  04EC                     u10341:
  4373  04EC  2D1E               	goto	l13930
  4374  04ED                     u10340:
  4375                           	line	317
  4376                           	
  4377  04ED                     l13916:	
  4378                           ;main.c: 317: lcd_putc('\f');
  4379  04ED  300C               	movlw	(0Ch)
  4380  04EE  160A  118A  23B9   	fcall	_lcd_putc
              120A  118A         
  4381                           	line	318
  4382                           ;main.c: 318: lcd_gotoxy(0, 1);
  4383  04F3  1283               	bcf	status, 5	;RP0=0, select bank0
  4384  04F4  1303               	bcf	status, 6	;RP1=0, select bank0
  4385  04F5  01A4               	clrf	(?_lcd_gotoxy)
  4386  04F6  1403               	bsf	status,0
  4387  04F7  0DA4               	rlf	(?_lcd_gotoxy),f
  4388  04F8  3000               	movlw	(0)
  4389  04F9  160A  118A  2152   	fcall	_lcd_gotoxy
              120A  118A         
  4390                           	line	319
  4391                           ;main.c: 319: lcd_puts("Da set xong");
  4392  04FE  3058               	movlw	((STR_34-__stringbase))&0ffh
  4393  04FF  160A  118A  20C5   	fcall	_lcd_puts
              120A  118A         
  4394                           	line	320
  4395                           	
  4396  0504                     l13918:	
  4397                           ;main.c: 320: Delay(10);
  4398  0504  300A               	movlw	(0Ah)
  4399  0505  160A  158A  27AA   	fcall	_Delay
              120A  118A         
  4400                           	line	321
  4401                           	
  4402  050A                     l13920:	
  4403                           ;main.c: 321: lcd_putc('\f');
  4404  050A  300C               	movlw	(0Ch)
  4405  050B  160A  118A  23B9   	fcall	_lcd_putc
              120A  118A         
  4406                           	line	322
  4407                           	
  4408  0510                     l13922:	
  4409                           ;main.c: 322: demgiatri = 0;
  4410  0510  1683               	bsf	status, 5	;RP0=1, select bank1
  4411  0511  1303               	bcf	status, 6	;RP1=0, select bank1
  4412  0512  01D2               	clrf	(_demgiatri)^080h
  4413                           	line	323
  4414                           	
  4415  0513                     l13924:	
  4416                           ;main.c: 323: indexOfNumber = 0;
  4417  0513  01D6               	clrf	(_indexOfNumber)^080h
  4418                           	line	324
  4419                           	
  4420  0514                     l13926:	
  4421                           ;main.c: 324: SoLan = 0;
  4422  0514  01CB               	clrf	(_SoLan)^080h
  4423                           	line	325
  4424                           	
  4425  0515                     l13928:	
  4426                           ;main.c: 325: statusMachine = 101;
  4427  0515  3065               	movlw	(065h)
  4428  0516  1283               	bcf	status, 5	;RP0=0, select bank0
  4429  0517  1303               	bcf	status, 6	;RP1=0, select bank0
  4430  0518  00D7               	movwf	(??_main+0)+0
  4431  0519  0857               	movf	(??_main+0)+0,w
  4432  051A  1683               	bsf	status, 5	;RP0=1, select bank1
  4433  051B  1303               	bcf	status, 6	;RP1=0, select bank1
  4434  051C  00E3               	movwf	(_statusMachine)^080h
  4435  051D  2D1E               	goto	l13930
  4436                           	line	326
  4437                           	
  4438  051E                     l1211:	
  4439                           	line	327
  4440                           	
  4441  051E                     l13930:	
  4442                           ;main.c: 326: }
  4443                           ;main.c: 327: if (isButtonUp()) {
  4444  051E  160A  158A  276C   	fcall	_isButtonUp
              120A  118A         
  4445  0523  3A00               	xorlw	0
  4446  0524  1903               	skipnz
  4447  0525  2D27               	goto	u10351
  4448  0526  2D28               	goto	u10350
  4449  0527                     u10351:
  4450  0527  2E0A               	goto	l13964
  4451  0528                     u10350:
  4452                           	line	328
  4453                           	
  4454  0528                     l13932:	
  4455                           ;main.c: 328: lcd_putc('\f');
  4456  0528  300C               	movlw	(0Ch)
  4457  0529  160A  118A  23B9   	fcall	_lcd_putc
              120A  118A         
  4458                           	line	329
  4459                           ;main.c: 329: lcd_gotoxy(0, 0);
  4460  052E  1283               	bcf	status, 5	;RP0=0, select bank0
  4461  052F  1303               	bcf	status, 6	;RP1=0, select bank0
  4462  0530  01A4               	clrf	(?_lcd_gotoxy)
  4463  0531  3000               	movlw	(0)
  4464  0532  160A  118A  2152   	fcall	_lcd_gotoxy
              120A  118A         
  4465                           	line	330
  4466                           ;main.c: 330: lcd_puts("SO LUOI:");
  4467  0537  3081               	movlw	((STR_35-__stringbase))&0ffh
  4468  0538  160A  118A  20C5   	fcall	_lcd_puts
              120A  118A         
  4469                           	line	331
  4470                           ;main.c: 331: lcd_gotoxy(12, 0);
  4471  053D  1283               	bcf	status, 5	;RP0=0, select bank0
  4472  053E  1303               	bcf	status, 6	;RP1=0, select bank0
  4473  053F  01A4               	clrf	(?_lcd_gotoxy)
  4474  0540  300C               	movlw	(0Ch)
  4475  0541  160A  118A  2152   	fcall	_lcd_gotoxy
              120A  118A         
  4476                           	line	332
  4477                           	
  4478  0546                     l13934:	
  4479                           ;main.c: 332: printf("%d", SoLuoi);
  4480  0546  1283               	bcf	status, 5	;RP0=0, select bank0
  4481  0547  1303               	bcf	status, 6	;RP1=0, select bank0
  4482  0548  085D               	movf	(_SoLuoi),w
  4483  0549  00D7               	movwf	(??_main+0)+0
  4484  054A  01D8               	clrf	(??_main+0)+0+1
  4485  054B  0857               	movf	0+(??_main+0)+0,w
  4486  054C  00AC               	movwf	(?_printf)
  4487  054D  0858               	movf	1+(??_main+0)+0,w
  4488  054E  00AD               	movwf	(?_printf+1)
  4489  054F  30BA               	movlw	((STR_36-__stringbase))&0ffh
  4490  0550  120A  158A  200D   	fcall	_printf
              120A  118A         
  4491                           	line	333
  4492                           	
  4493  0555                     l13936:	
  4494                           ;main.c: 333: lcd_gotoxy(0, 1);
  4495  0555  1283               	bcf	status, 5	;RP0=0, select bank0
  4496  0556  1303               	bcf	status, 6	;RP1=0, select bank0
  4497  0557  01A4               	clrf	(?_lcd_gotoxy)
  4498  0558  1403               	bsf	status,0
  4499  0559  0DA4               	rlf	(?_lcd_gotoxy),f
  4500  055A  3000               	movlw	(0)
  4501  055B  160A  118A  2152   	fcall	_lcd_gotoxy
              120A  118A         
  4502                           	line	334
  4503                           	
  4504  0560                     l13938:	
  4505                           ;main.c: 334: lcd_puts("CHIEU DAI:");
  4506  0560  3064               	movlw	((STR_37-__stringbase))&0ffh
  4507  0561  160A  118A  20C5   	fcall	_lcd_puts
              120A  118A         
  4508                           	line	335
  4509                           	
  4510  0566                     l13940:	
  4511                           ;main.c: 335: lcd_gotoxy(15, 1);
  4512  0566  1283               	bcf	status, 5	;RP0=0, select bank0
  4513  0567  1303               	bcf	status, 6	;RP1=0, select bank0
  4514  0568  01A4               	clrf	(?_lcd_gotoxy)
  4515  0569  1403               	bsf	status,0
  4516  056A  0DA4               	rlf	(?_lcd_gotoxy),f
  4517  056B  300F               	movlw	(0Fh)
  4518  056C  160A  118A  2152   	fcall	_lcd_gotoxy
              120A  118A         
  4519                           	line	336
  4520                           	
  4521  0571                     l13942:	
  4522                           ;main.c: 336: lcd_puts("MM");
  4523  0571  30B4               	movlw	((STR_38-__stringbase))&0ffh
  4524  0572  160A  118A  20C5   	fcall	_lcd_puts
              120A  118A         
  4525                           	line	337
  4526                           	
  4527  0577                     l13944:	
  4528                           ;main.c: 337: lcd_gotoxy(12, 1);
  4529  0577  1283               	bcf	status, 5	;RP0=0, select bank0
  4530  0578  1303               	bcf	status, 6	;RP1=0, select bank0
  4531  0579  01A4               	clrf	(?_lcd_gotoxy)
  4532  057A  1403               	bsf	status,0
  4533  057B  0DA4               	rlf	(?_lcd_gotoxy),f
  4534  057C  300C               	movlw	(0Ch)
  4535  057D  160A  118A  2152   	fcall	_lcd_gotoxy
              120A  118A         
  4536                           	line	338
  4537                           ;main.c: 338: printf("%d", ChieuDai);
  4538  0582  0877               	movf	(_ChieuDai+1),w
  4539  0583  1283               	bcf	status, 5	;RP0=0, select bank0
  4540  0584  1303               	bcf	status, 6	;RP1=0, select bank0
  4541  0585  01AD               	clrf	(?_printf+1)
  4542  0586  07AD               	addwf	(?_printf+1)
  4543  0587  0876               	movf	(_ChieuDai),w
  4544  0588  01AC               	clrf	(?_printf)
  4545  0589  07AC               	addwf	(?_printf)
  4546                           
  4547  058A  30BA               	movlw	((STR_39-__stringbase))&0ffh
  4548  058B  120A  158A  200D   	fcall	_printf
              120A  118A         
  4549                           	line	339
  4550                           	
  4551  0590                     l13946:	
  4552                           ;main.c: 339: lcd_gotoxy(0, 2);
  4553  0590  3002               	movlw	(02h)
  4554  0591  1283               	bcf	status, 5	;RP0=0, select bank0
  4555  0592  1303               	bcf	status, 6	;RP1=0, select bank0
  4556  0593  00D7               	movwf	(??_main+0)+0
  4557  0594  0857               	movf	(??_main+0)+0,w
  4558  0595  00A4               	movwf	(?_lcd_gotoxy)
  4559  0596  3000               	movlw	(0)
  4560  0597  160A  118A  2152   	fcall	_lcd_gotoxy
              120A  118A         
  4561                           	line	340
  4562                           	
  4563  059C                     l13948:	
  4564                           ;main.c: 340: lcd_puts("SO LAN MAI:");
  4565  059C  3040               	movlw	((STR_40-__stringbase))&0ffh
  4566  059D  160A  118A  20C5   	fcall	_lcd_puts
              120A  118A         
  4567                           	line	341
  4568                           	
  4569  05A2                     l13950:	
  4570                           ;main.c: 341: lcd_gotoxy(12, 2);
  4571  05A2  3002               	movlw	(02h)
  4572  05A3  1283               	bcf	status, 5	;RP0=0, select bank0
  4573  05A4  1303               	bcf	status, 6	;RP1=0, select bank0
  4574  05A5  00D7               	movwf	(??_main+0)+0
  4575  05A6  0857               	movf	(??_main+0)+0,w
  4576  05A7  00A4               	movwf	(?_lcd_gotoxy)
  4577  05A8  300C               	movlw	(0Ch)
  4578  05A9  160A  118A  2152   	fcall	_lcd_gotoxy
              120A  118A         
  4579                           	line	342
  4580                           	
  4581  05AE                     l13952:	
  4582                           ;main.c: 342: printf("%d", LanMai);
  4583  05AE  1283               	bcf	status, 5	;RP0=0, select bank0
  4584  05AF  1303               	bcf	status, 6	;RP1=0, select bank0
  4585  05B0  085B               	movf	(_LanMai),w
  4586  05B1  00D7               	movwf	(??_main+0)+0
  4587  05B2  01D8               	clrf	(??_main+0)+0+1
  4588  05B3  0857               	movf	0+(??_main+0)+0,w
  4589  05B4  00AC               	movwf	(?_printf)
  4590  05B5  0858               	movf	1+(??_main+0)+0,w
  4591  05B6  00AD               	movwf	(?_printf+1)
  4592  05B7  30BA               	movlw	((STR_41-__stringbase))&0ffh
  4593  05B8  120A  158A  200D   	fcall	_printf
              120A  118A         
  4594                           	line	343
  4595                           ;main.c: 343: lcd_gotoxy(0, 3);
  4596  05BD  3003               	movlw	(03h)
  4597  05BE  1283               	bcf	status, 5	;RP0=0, select bank0
  4598  05BF  1303               	bcf	status, 6	;RP1=0, select bank0
  4599  05C0  00D7               	movwf	(??_main+0)+0
  4600  05C1  0857               	movf	(??_main+0)+0,w
  4601  05C2  00A4               	movwf	(?_lcd_gotoxy)
  4602  05C3  3000               	movlw	(0)
  4603  05C4  160A  118A  2152   	fcall	_lcd_gotoxy
              120A  118A         
  4604                           	line	344
  4605                           ;main.c: 344: lcd_puts("DO EP:");
  4606  05C9  30A3               	movlw	((STR_42-__stringbase))&0ffh
  4607  05CA  160A  118A  20C5   	fcall	_lcd_puts
              120A  118A         
  4608                           	line	345
  4609                           ;main.c: 345: lcd_gotoxy(15, 3);
  4610  05CF  3003               	movlw	(03h)
  4611  05D0  1283               	bcf	status, 5	;RP0=0, select bank0
  4612  05D1  1303               	bcf	status, 6	;RP1=0, select bank0
  4613  05D2  00D7               	movwf	(??_main+0)+0
  4614  05D3  0857               	movf	(??_main+0)+0,w
  4615  05D4  00A4               	movwf	(?_lcd_gotoxy)
  4616  05D5  300F               	movlw	(0Fh)
  4617  05D6  160A  118A  2152   	fcall	_lcd_gotoxy
              120A  118A         
  4618                           	line	346
  4619                           ;main.c: 346: lcd_puts("UM");
  4620  05DB  30B7               	movlw	((STR_43-__stringbase))&0ffh
  4621  05DC  160A  118A  20C5   	fcall	_lcd_puts
              120A  118A         
  4622                           	line	347
  4623                           ;main.c: 347: lcd_gotoxy(12, 3);
  4624  05E1  3003               	movlw	(03h)
  4625  05E2  1283               	bcf	status, 5	;RP0=0, select bank0
  4626  05E3  1303               	bcf	status, 6	;RP1=0, select bank0
  4627  05E4  00D7               	movwf	(??_main+0)+0
  4628  05E5  0857               	movf	(??_main+0)+0,w
  4629  05E6  00A4               	movwf	(?_lcd_gotoxy)
  4630  05E7  300C               	movlw	(0Ch)
  4631  05E8  160A  118A  2152   	fcall	_lcd_gotoxy
              120A  118A         
  4632                           	line	348
  4633                           	
  4634  05ED                     l13954:	
  4635                           ;main.c: 348: printf("%d", DoEp);
  4636  05ED  1283               	bcf	status, 5	;RP0=0, select bank0
  4637  05EE  1303               	bcf	status, 6	;RP1=0, select bank0
  4638  05EF  085A               	movf	(_DoEp),w
  4639  05F0  00D7               	movwf	(??_main+0)+0
  4640  05F1  01D8               	clrf	(??_main+0)+0+1
  4641  05F2  0857               	movf	0+(??_main+0)+0,w
  4642  05F3  00AC               	movwf	(?_printf)
  4643  05F4  0858               	movf	1+(??_main+0)+0,w
  4644  05F5  00AD               	movwf	(?_printf+1)
  4645  05F6  30BA               	movlw	((STR_44-__stringbase))&0ffh
  4646  05F7  120A  158A  200D   	fcall	_printf
              120A  118A         
  4647                           	line	349
  4648                           	
  4649  05FC                     l13956:	
  4650                           ;main.c: 349: demgiatri = 0;
  4651  05FC  1683               	bsf	status, 5	;RP0=1, select bank1
  4652  05FD  1303               	bcf	status, 6	;RP1=0, select bank1
  4653  05FE  01D2               	clrf	(_demgiatri)^080h
  4654                           	line	350
  4655                           	
  4656  05FF                     l13958:	
  4657                           ;main.c: 350: indexOfNumber = 0;
  4658  05FF  01D6               	clrf	(_indexOfNumber)^080h
  4659                           	line	351
  4660                           	
  4661  0600                     l13960:	
  4662                           ;main.c: 351: SoLan = 0;
  4663  0600  01CB               	clrf	(_SoLan)^080h
  4664                           	line	352
  4665                           	
  4666  0601                     l13962:	
  4667                           ;main.c: 352: statusMachine = 105;
  4668  0601  3069               	movlw	(069h)
  4669  0602  1283               	bcf	status, 5	;RP0=0, select bank0
  4670  0603  1303               	bcf	status, 6	;RP1=0, select bank0
  4671  0604  00D7               	movwf	(??_main+0)+0
  4672  0605  0857               	movf	(??_main+0)+0,w
  4673  0606  1683               	bsf	status, 5	;RP0=1, select bank1
  4674  0607  1303               	bcf	status, 6	;RP1=0, select bank1
  4675  0608  00E3               	movwf	(_statusMachine)^080h
  4676  0609  2E0A               	goto	l13964
  4677                           	line	353
  4678                           	
  4679  060A                     l1212:	
  4680                           	line	354
  4681                           	
  4682  060A                     l13964:	
  4683                           ;main.c: 353: }
  4684                           ;main.c: 354: if (isButtonCancel()) {
  4685  060A  160A  158A  25EF   	fcall	_isButtonCancel
              120A  118A         
  4686  060F  3A00               	xorlw	0
  4687  0610  1903               	skipnz
  4688  0611  2E13               	goto	u10361
  4689  0612  2E14               	goto	u10360
  4690  0613                     u10361:
  4691  0613  2829               	goto	l13550
  4692  0614                     u10360:
  4693                           	line	355
  4694                           	
  4695  0614                     l13966:	
  4696                           ;main.c: 355: lcd_gotoxy(12, 0);
  4697  0614  1283               	bcf	status, 5	;RP0=0, select bank0
  4698  0615  1303               	bcf	status, 6	;RP1=0, select bank0
  4699  0616  01A4               	clrf	(?_lcd_gotoxy)
  4700  0617  300C               	movlw	(0Ch)
  4701  0618  160A  118A  2152   	fcall	_lcd_gotoxy
              120A  118A         
  4702                           	line	356
  4703                           ;main.c: 356: lcd_puts("   ");
  4704  061D  30AC               	movlw	((STR_45-__stringbase))&0ffh
  4705  061E  160A  118A  20C5   	fcall	_lcd_puts
              120A  118A         
  4706                           	line	357
  4707                           	
  4708  0623                     l13968:	
  4709                           ;main.c: 357: demgiatri = 0;
  4710  0623  1683               	bsf	status, 5	;RP0=1, select bank1
  4711  0624  1303               	bcf	status, 6	;RP1=0, select bank1
  4712  0625  01D2               	clrf	(_demgiatri)^080h
  4713                           	line	358
  4714                           	
  4715  0626                     l13970:	
  4716                           ;main.c: 358: indexOfNumber = 0;
  4717  0626  01D6               	clrf	(_indexOfNumber)^080h
  4718                           	line	359
  4719                           	
  4720  0627                     l13972:	
  4721                           ;main.c: 359: SoLan = 0;
  4722  0627  01CB               	clrf	(_SoLan)^080h
  4723                           	line	360
  4724                           	
  4725  0628                     l13974:	
  4726                           ;main.c: 360: MaiTho = 0;
  4727  0628  01C9               	clrf	(_MaiTho)^080h
  4728  0629  2829               	goto	l13550
  4729                           	line	361
  4730                           	
  4731  062A                     l1213:	
  4732                           	line	362
  4733                           ;main.c: 361: }
  4734                           ;main.c: 362: break;
  4735  062A  2829               	goto	l13550
  4736                           	line	363
  4737                           ;main.c: 363: case 109:
  4738                           	
  4739  062B                     l1214:	
  4740                           	line	364
  4741                           	
  4742  062B                     l13976:	
  4743                           ;main.c: 364: lcd_gotoxy(0, 0);
  4744  062B  1283               	bcf	status, 5	;RP0=0, select bank0
  4745  062C  1303               	bcf	status, 6	;RP1=0, select bank0
  4746  062D  01A4               	clrf	(?_lcd_gotoxy)
  4747  062E  3000               	movlw	(0)
  4748  062F  160A  118A  2152   	fcall	_lcd_gotoxy
              120A  118A         
  4749                           	line	365
  4750                           ;main.c: 365: lcd_puts("Chon MODE mai dao:");
  4751  0634  300B               	movlw	((STR_46-__stringbase))&0ffh
  4752  0635  160A  118A  20C5   	fcall	_lcd_puts
              120A  118A         
  4753                           	line	366
  4754                           ;main.c: 366: lcd_gotoxy(0, 1);
  4755  063A  1283               	bcf	status, 5	;RP0=0, select bank0
  4756  063B  1303               	bcf	status, 6	;RP1=0, select bank0
  4757  063C  01A4               	clrf	(?_lcd_gotoxy)
  4758  063D  1403               	bsf	status,0
  4759  063E  0DA4               	rlf	(?_lcd_gotoxy),f
  4760  063F  3000               	movlw	(0)
  4761  0640  160A  118A  2152   	fcall	_lcd_gotoxy
              120A  118A         
  4762                           	line	367
  4763                           ;main.c: 367: lcd_puts("1.Mode_1");
  4764  0645  306F               	movlw	((STR_47-__stringbase))&0ffh
  4765  0646  160A  118A  20C5   	fcall	_lcd_puts
              120A  118A         
  4766                           	line	368
  4767                           ;main.c: 368: lcd_gotoxy(0, 2);
  4768  064B  3002               	movlw	(02h)
  4769  064C  1283               	bcf	status, 5	;RP0=0, select bank0
  4770  064D  1303               	bcf	status, 6	;RP1=0, select bank0
  4771  064E  00D7               	movwf	(??_main+0)+0
  4772  064F  0857               	movf	(??_main+0)+0,w
  4773  0650  00A4               	movwf	(?_lcd_gotoxy)
  4774  0651  3000               	movlw	(0)
  4775  0652  160A  118A  2152   	fcall	_lcd_gotoxy
              120A  118A         
  4776                           	line	369
  4777                           ;main.c: 369: lcd_puts("2.Mode_2");
  4778  0657  3078               	movlw	((STR_48-__stringbase))&0ffh
  4779  0658  160A  118A  20C5   	fcall	_lcd_puts
              120A  118A         
  4780                           	line	370
  4781                           	
  4782  065D                     l13978:	
  4783                           ;main.c: 370: if (ChuyenLuoiPhai()) {
  4784  065D  160A  158A  271B   	fcall	_ChuyenLuoiPhai
              120A  118A         
  4785  0662  3A00               	xorlw	0
  4786  0663  1903               	skipnz
  4787  0664  2E66               	goto	u10371
  4788  0665  2E67               	goto	u10370
  4789  0666                     u10371:
  4790  0666  2E76               	goto	l13984
  4791  0667                     u10370:
  4792                           	line	371
  4793                           	
  4794  0667                     l13980:	
  4795                           ;main.c: 371: lcd_putc('\f');
  4796  0667  300C               	movlw	(0Ch)
  4797  0668  160A  118A  23B9   	fcall	_lcd_putc
              120A  118A         
  4798                           	line	372
  4799                           	
  4800  066D                     l13982:	
  4801                           ;main.c: 372: statusMachine = 107;
  4802  066D  306B               	movlw	(06Bh)
  4803  066E  1283               	bcf	status, 5	;RP0=0, select bank0
  4804  066F  1303               	bcf	status, 6	;RP1=0, select bank0
  4805  0670  00D7               	movwf	(??_main+0)+0
  4806  0671  0857               	movf	(??_main+0)+0,w
  4807  0672  1683               	bsf	status, 5	;RP0=1, select bank1
  4808  0673  1303               	bcf	status, 6	;RP1=0, select bank1
  4809  0674  00E3               	movwf	(_statusMachine)^080h
  4810  0675  2E76               	goto	l13984
  4811                           	line	373
  4812                           	
  4813  0676                     l1215:	
  4814                           	line	374
  4815                           	
  4816  0676                     l13984:	
  4817                           ;main.c: 373: }
  4818                           ;main.c: 374: if (Cap2kXungLen()) {
  4819  0676  160A  158A  2751   	fcall	_Cap2kXungLen
              120A  118A         
  4820  067B  3A00               	xorlw	0
  4821  067C  1903               	skipnz
  4822  067D  2E7F               	goto	u10381
  4823  067E  2E80               	goto	u10380
  4824  067F                     u10381:
  4825  067F  2829               	goto	l13550
  4826  0680                     u10380:
  4827                           	line	375
  4828                           	
  4829  0680                     l13986:	
  4830                           ;main.c: 375: lcd_putc('\f');
  4831  0680  300C               	movlw	(0Ch)
  4832  0681  160A  118A  23B9   	fcall	_lcd_putc
              120A  118A         
  4833                           	line	376
  4834                           	
  4835  0686                     l13988:	
  4836                           ;main.c: 376: statusMachine = 108;
  4837  0686  306C               	movlw	(06Ch)
  4838  0687  1283               	bcf	status, 5	;RP0=0, select bank0
  4839  0688  1303               	bcf	status, 6	;RP1=0, select bank0
  4840  0689  00D7               	movwf	(??_main+0)+0
  4841  068A  0857               	movf	(??_main+0)+0,w
  4842  068B  1683               	bsf	status, 5	;RP0=1, select bank1
  4843  068C  1303               	bcf	status, 6	;RP1=0, select bank1
  4844  068D  00E3               	movwf	(_statusMachine)^080h
  4845  068E  2829               	goto	l13550
  4846                           	line	377
  4847                           	
  4848  068F                     l1216:	
  4849                           	line	378
  4850                           ;main.c: 377: }
  4851                           ;main.c: 378: break;
  4852  068F  2829               	goto	l13550
  4853                           	line	379
  4854                           ;main.c: 379: case 107:
  4855                           	
  4856  0690                     l1217:	
  4857                           	line	380
  4858                           ;main.c: 380: RC6 = 0;
  4859  0690  1283               	bcf	status, 5	;RP0=0, select bank0
  4860  0691  1303               	bcf	status, 6	;RP1=0, select bank0
  4861  0692  1307               	bcf	(62/8),(62)&7
  4862                           	line	381
  4863                           ;main.c: 381: RB1 = 1;
  4864  0693  1486               	bsf	(49/8),(49)&7
  4865                           	line	382
  4866                           ;main.c: 382: RE2 = 1;
  4867  0694  1509               	bsf	(74/8),(74)&7
  4868                           	line	383
  4869                           ;main.c: 383: if (RB7 == 1) {
  4870  0695  1F86               	btfss	(55/8),(55)&7
  4871  0696  2E98               	goto	u10391
  4872  0697  2E99               	goto	u10390
  4873  0698                     u10391:
  4874  0698  2EAE               	goto	l13996
  4875  0699                     u10390:
  4876                           	line	384
  4877                           	
  4878  0699                     l13990:	
  4879                           ;main.c: 384: RC5 = 1;
  4880  0699  1687               	bsf	(61/8),(61)&7
  4881                           	line	385
  4882                           	
  4883  069A                     l13992:	
  4884                           ;main.c: 385: _delay((unsigned long)((2500)*(8000000/4000000.0)));
  4885                           	opt asmopt_off
  4886  069A  3007               movlw	7
  4887  069B  00D8               movwf	((??_main+0)+0+1),f
  4888  069C  307D               	movlw	125
  4889  069D  00D7               movwf	((??_main+0)+0),f
  4890  069E                     u10577:
  4891  069E  0BD7               	decfsz	((??_main+0)+0),f
  4892  069F  2E9E               	goto	u10577
  4893  06A0  0BD8               	decfsz	((??_main+0)+0+1),f
  4894  06A1  2E9E               	goto	u10577
  4895                           opt asmopt_on
  4896                           
  4897                           	line	386
  4898                           	
  4899  06A2                     l13994:	
  4900                           ;main.c: 386: RC5 = 0;
  4901  06A2  1283               	bcf	status, 5	;RP0=0, select bank0
  4902  06A3  1303               	bcf	status, 6	;RP1=0, select bank0
  4903  06A4  1287               	bcf	(61/8),(61)&7
  4904                           	line	387
  4905                           ;main.c: 387: _delay((unsigned long)((2500)*(8000000/4000000.0)));
  4906                           	opt asmopt_off
  4907  06A5  3007               movlw	7
  4908  06A6  00D8               movwf	((??_main+0)+0+1),f
  4909  06A7  307D               	movlw	125
  4910  06A8  00D7               movwf	((??_main+0)+0),f
  4911  06A9                     u10587:
  4912  06A9  0BD7               	decfsz	((??_main+0)+0),f
  4913  06AA  2EA9               	goto	u10587
  4914  06AB  0BD8               	decfsz	((??_main+0)+0+1),f
  4915  06AC  2EA9               	goto	u10587
  4916                           opt asmopt_on
  4917                           
  4918                           	line	388
  4919                           ;main.c: 388: } else {
  4920  06AD  2EB7               	goto	l13998
  4921                           	
  4922  06AE                     l1218:	
  4923                           	line	389
  4924                           	
  4925  06AE                     l13996:	
  4926                           ;main.c: 389: cb = 1;
  4927  06AE  1683               	bsf	status, 5	;RP0=1, select bank1
  4928  06AF  1303               	bcf	status, 6	;RP1=0, select bank1
  4929  06B0  01CD               	clrf	(_cb)^080h
  4930  06B1  1403               	bsf	status,0
  4931  06B2  0DCD               	rlf	(_cb)^080h,f
  4932                           	line	390
  4933                           ;main.c: 390: dk1 = 1;
  4934  06B3  01D3               	clrf	(_dk1)^080h
  4935  06B4  1403               	bsf	status,0
  4936  06B5  0DD3               	rlf	(_dk1)^080h,f
  4937  06B6  2EB7               	goto	l13998
  4938                           	line	391
  4939                           	
  4940  06B7                     l1219:	
  4941                           	line	392
  4942                           	
  4943  06B7                     l13998:	
  4944                           ;main.c: 391: }
  4945                           ;main.c: 392: if (cb == 1) {
  4946  06B7  1683               	bsf	status, 5	;RP0=1, select bank1
  4947  06B8  1303               	bcf	status, 6	;RP1=0, select bank1
  4948  06B9  084D               	movf	(_cb)^080h,w
  4949  06BA  3A01               	xorlw	01h
  4950  06BB  1D03               	skipz
  4951  06BC  2EBE               	goto	u10401
  4952  06BD  2EBF               	goto	u10400
  4953  06BE                     u10401:
  4954  06BE  2EE3               	goto	l14010
  4955  06BF                     u10400:
  4956                           	line	393
  4957                           	
  4958  06BF                     l14000:	
  4959                           ;main.c: 393: if (RB6 == 1) {
  4960  06BF  1283               	bcf	status, 5	;RP0=0, select bank0
  4961  06C0  1303               	bcf	status, 6	;RP1=0, select bank0
  4962  06C1  1F06               	btfss	(54/8),(54)&7
  4963  06C2  2EC4               	goto	u10411
  4964  06C3  2EC5               	goto	u10410
  4965  06C4                     u10411:
  4966  06C4  2EDC               	goto	l14008
  4967  06C5                     u10410:
  4968                           	line	394
  4969                           	
  4970  06C5                     l14002:	
  4971                           ;main.c: 394: RE1 = 1;
  4972  06C5  1489               	bsf	(73/8),(73)&7
  4973                           	line	395
  4974                           	
  4975  06C6                     l14004:	
  4976                           ;main.c: 395: _delay((unsigned long)((1500)*(8000000/4000000.0)));
  4977                           	opt asmopt_off
  4978  06C6  3004               movlw	4
  4979  06C7  00D8               movwf	((??_main+0)+0+1),f
  4980  06C8  30E4               	movlw	228
  4981  06C9  00D7               movwf	((??_main+0)+0),f
  4982  06CA                     u10597:
  4983  06CA  0BD7               	decfsz	((??_main+0)+0),f
  4984  06CB  2ECA               	goto	u10597
  4985  06CC  0BD8               	decfsz	((??_main+0)+0+1),f
  4986  06CD  2ECA               	goto	u10597
  4987  06CE  0064               	clrwdt
  4988                           opt asmopt_on
  4989                           
  4990                           	line	396
  4991                           	
  4992  06CF                     l14006:	
  4993                           ;main.c: 396: RE1 = 0;
  4994  06CF  1283               	bcf	status, 5	;RP0=0, select bank0
  4995  06D0  1303               	bcf	status, 6	;RP1=0, select bank0
  4996  06D1  1089               	bcf	(73/8),(73)&7
  4997                           	line	397
  4998                           ;main.c: 397: _delay((unsigned long)((1500)*(8000000/4000000.0)));
  4999                           	opt asmopt_off
  5000  06D2  3004               movlw	4
  5001  06D3  00D8               movwf	((??_main+0)+0+1),f
  5002  06D4  30E4               	movlw	228
  5003  06D5  00D7               movwf	((??_main+0)+0),f
  5004  06D6                     u10607:
  5005  06D6  0BD7               	decfsz	((??_main+0)+0),f
  5006  06D7  2ED6               	goto	u10607
  5007  06D8  0BD8               	decfsz	((??_main+0)+0+1),f
  5008  06D9  2ED6               	goto	u10607
  5009  06DA  0064               	clrwdt
  5010                           opt asmopt_on
  5011                           
  5012                           	line	398
  5013                           ;main.c: 398: } else
  5014  06DB  2EE3               	goto	l14010
  5015                           	
  5016  06DC                     l1221:	
  5017                           	line	399
  5018                           	
  5019  06DC                     l14008:	
  5020                           ;main.c: 399: dk2 = 1;
  5021  06DC  1683               	bsf	status, 5	;RP0=1, select bank1
  5022  06DD  1303               	bcf	status, 6	;RP1=0, select bank1
  5023  06DE  01D4               	clrf	(_dk2)^080h
  5024  06DF  1403               	bsf	status,0
  5025  06E0  0DD4               	rlf	(_dk2)^080h,f
  5026  06E1  2EE3               	goto	l14010
  5027                           	
  5028  06E2                     l1222:	
  5029  06E2  2EE3               	goto	l14010
  5030                           	line	400
  5031                           	
  5032  06E3                     l1220:	
  5033                           	line	401
  5034                           	
  5035  06E3                     l14010:	
  5036                           ;main.c: 400: }
  5037                           ;main.c: 401: if (dk1 == 1 && dk2 == 1) {
  5038  06E3  1683               	bsf	status, 5	;RP0=1, select bank1
  5039  06E4  1303               	bcf	status, 6	;RP1=0, select bank1
  5040  06E5  0853               	movf	(_dk1)^080h,w
  5041  06E6  3A01               	xorlw	01h
  5042  06E7  1D03               	skipz
  5043  06E8  2EEA               	goto	u10421
  5044  06E9  2EEB               	goto	u10420
  5045  06EA                     u10421:
  5046  06EA  2829               	goto	l13550
  5047  06EB                     u10420:
  5048                           	
  5049  06EB                     l14012:	
  5050  06EB  0854               	movf	(_dk2)^080h,w
  5051  06EC  3A01               	xorlw	01h
  5052  06ED  1D03               	skipz
  5053  06EE  2EF0               	goto	u10431
  5054  06EF  2EF1               	goto	u10430
  5055  06F0                     u10431:
  5056  06F0  2829               	goto	l13550
  5057  06F1                     u10430:
  5058                           	line	402
  5059                           	
  5060  06F1                     l14014:	
  5061                           ;main.c: 402: Delay(5);
  5062  06F1  3005               	movlw	(05h)
  5063  06F2  160A  158A  27AA   	fcall	_Delay
              120A  118A         
  5064                           	line	404
  5065                           	
  5066  06F7                     l14016:	
  5067                           ;main.c: 404: RC4 = 0;
  5068  06F7  1283               	bcf	status, 5	;RP0=0, select bank0
  5069  06F8  1303               	bcf	status, 6	;RP1=0, select bank0
  5070  06F9  1207               	bcf	(60/8),(60)&7
  5071                           	line	405
  5072                           	
  5073  06FA                     l14018:	
  5074                           ;main.c: 405: for (int i = 0; i < 50 * 8; i++) {
  5075  06FA  1683               	bsf	status, 5	;RP0=1, select bank3
  5076  06FB  1703               	bsf	status, 6	;RP1=1, select bank3
  5077  06FC  01A4               	clrf	(main@i_2018)^0180h
  5078  06FD  01A5               	clrf	(main@i_2018+1)^0180h
  5079                           	
  5080  06FE                     l14020:	
  5081  06FE  0825               	movf	(main@i_2018+1)^0180h,w
  5082  06FF  3A80               	xorlw	80h
  5083  0700  00FF               	movwf	btemp+1
  5084  0701  3081               	movlw	(high(0190h))^80h
  5085  0702  027F               	subwf	btemp+1,w
  5086  0703  1D03               	skipz
  5087  0704  2F07               	goto	u10445
  5088  0705  3090               	movlw	low(0190h)
  5089  0706  0224               	subwf	(main@i_2018)^0180h,w
  5090  0707                     u10445:
  5091                           
  5092  0707  1C03               	skipc
  5093  0708  2F0A               	goto	u10441
  5094  0709  2F0B               	goto	u10440
  5095  070A                     u10441:
  5096  070A  2F0D               	goto	l14024
  5097  070B                     u10440:
  5098  070B  2F4E               	goto	l1225
  5099                           	
  5100  070C                     l14022:	
  5101  070C  2F4E               	goto	l1225
  5102                           	
  5103  070D                     l1224:	
  5104                           	line	406
  5105                           	
  5106  070D                     l14024:	
  5107                           ;main.c: 406: MotorEpTruc();
  5108  070D  160A  158A  2645   	fcall	_MotorEpTruc
              120A  118A         
  5109                           	line	407
  5110                           	
  5111  0712                     l14026:	
  5112                           ;main.c: 407: if (STOP == 1) {
  5113  0712  1283               	bcf	status, 5	;RP0=0, select bank0
  5114  0713  1303               	bcf	status, 6	;RP1=0, select bank0
  5115  0714  085C               	movf	(_STOP),w	;volatile
  5116  0715  3A01               	xorlw	01h
  5117  0716  1D03               	skipz
  5118  0717  2F19               	goto	u10451
  5119  0718  2F1A               	goto	u10450
  5120  0719                     u10451:
  5121  0719  2F39               	goto	l14036
  5122  071A                     u10450:
  5123                           	line	408
  5124                           	
  5125  071A                     l14028:	
  5126                           ;main.c: 408: RC6 = 0;
  5127  071A  1307               	bcf	(62/8),(62)&7
  5128                           	line	409
  5129                           ;main.c: 409: while (RB7 == 1) {
  5130  071B  2F31               	goto	l14034
  5131                           	
  5132  071C                     l1228:	
  5133                           	line	410
  5134                           ;main.c: 410: RC5 = 1;
  5135  071C  1687               	bsf	(61/8),(61)&7
  5136                           	line	411
  5137                           	
  5138  071D                     l14030:	
  5139                           ;main.c: 411: _delay((unsigned long)((2500)*(8000000/4000000.0)));
  5140                           	opt asmopt_off
  5141  071D  3007               movlw	7
  5142  071E  00D8               movwf	((??_main+0)+0+1),f
  5143  071F  307D               	movlw	125
  5144  0720  00D7               movwf	((??_main+0)+0),f
  5145  0721                     u10617:
  5146  0721  0BD7               	decfsz	((??_main+0)+0),f
  5147  0722  2F21               	goto	u10617
  5148  0723  0BD8               	decfsz	((??_main+0)+0+1),f
  5149  0724  2F21               	goto	u10617
  5150                           opt asmopt_on
  5151                           
  5152                           	line	412
  5153                           	
  5154  0725                     l14032:	
  5155                           ;main.c: 412: RC5 = 0;
  5156  0725  1283               	bcf	status, 5	;RP0=0, select bank0
  5157  0726  1303               	bcf	status, 6	;RP1=0, select bank0
  5158  0727  1287               	bcf	(61/8),(61)&7
  5159                           	line	413
  5160                           ;main.c: 413: _delay((unsigned long)((2500)*(8000000/4000000.0)));
  5161                           	opt asmopt_off
  5162  0728  3007               movlw	7
  5163  0729  00D8               movwf	((??_main+0)+0+1),f
  5164  072A  307D               	movlw	125
  5165  072B  00D7               movwf	((??_main+0)+0),f
  5166  072C                     u10627:
  5167  072C  0BD7               	decfsz	((??_main+0)+0),f
  5168  072D  2F2C               	goto	u10627
  5169  072E  0BD8               	decfsz	((??_main+0)+0+1),f
  5170  072F  2F2C               	goto	u10627
  5171                           opt asmopt_on
  5172                           
  5173  0730  2F31               	goto	l14034
  5174                           	line	414
  5175                           	
  5176  0731                     l1227:	
  5177                           	line	409
  5178                           	
  5179  0731                     l14034:	
  5180  0731  1283               	bcf	status, 5	;RP0=0, select bank0
  5181  0732  1303               	bcf	status, 6	;RP1=0, select bank0
  5182  0733  1B86               	btfsc	(55/8),(55)&7
  5183  0734  2F36               	goto	u10461
  5184  0735  2F37               	goto	u10460
  5185  0736                     u10461:
  5186  0736  2F1C               	goto	l1228
  5187  0737                     u10460:
  5188                           	
  5189  0737                     l1229:	
  5190                           	line	415
  5191                           ;main.c: 414: }
  5192                           ;main.c: 415: RB1 = 0;
  5193  0737  1086               	bcf	(49/8),(49)&7
  5194                           	line	416
  5195                           ;main.c: 416: break;
  5196  0738  2F4E               	goto	l1225
  5197                           	line	417
  5198                           	
  5199  0739                     l1226:	
  5200                           	line	405
  5201                           	
  5202  0739                     l14036:	
  5203  0739  3001               	movlw	low(01h)
  5204  073A  1683               	bsf	status, 5	;RP0=1, select bank3
  5205  073B  1703               	bsf	status, 6	;RP1=1, select bank3
  5206  073C  07A4               	addwf	(main@i_2018)^0180h,f
  5207  073D  1803               	skipnc
  5208  073E  0AA5               	incf	(main@i_2018+1)^0180h,f
  5209  073F  3000               	movlw	high(01h)
  5210  0740  07A5               	addwf	(main@i_2018+1)^0180h,f
  5211                           	
  5212  0741                     l14038:	
  5213  0741  0825               	movf	(main@i_2018+1)^0180h,w
  5214  0742  3A80               	xorlw	80h
  5215  0743  00FF               	movwf	btemp+1
  5216  0744  3081               	movlw	(high(0190h))^80h
  5217  0745  027F               	subwf	btemp+1,w
  5218  0746  1D03               	skipz
  5219  0747  2F4A               	goto	u10475
  5220  0748  3090               	movlw	low(0190h)
  5221  0749  0224               	subwf	(main@i_2018)^0180h,w
  5222  074A                     u10475:
  5223                           
  5224  074A  1C03               	skipc
  5225  074B  2F4D               	goto	u10471
  5226  074C  2F4E               	goto	u10470
  5227  074D                     u10471:
  5228  074D  2F0D               	goto	l14024
  5229  074E                     u10470:
  5230                           	
  5231  074E                     l1225:	
  5232                           	line	420
  5233                           ;main.c: 417: }
  5234                           ;main.c: 418: }
  5235                           ;main.c: 420: RB3 = 1;
  5236  074E  1283               	bcf	status, 5	;RP0=0, select bank0
  5237  074F  1303               	bcf	status, 6	;RP1=0, select bank0
  5238  0750  1586               	bsf	(51/8),(51)&7
  5239                           	line	421
  5240                           	
  5241  0751                     l14040:	
  5242                           ;main.c: 421: lcd_gotoxy(0, 0);
  5243  0751  01A4               	clrf	(?_lcd_gotoxy)
  5244  0752  3000               	movlw	(0)
  5245  0753  160A  118A  2152   	fcall	_lcd_gotoxy
              120A  118A         
  5246                           	line	422
  5247                           ;main.c: 422: lcd_puts("So Lan Mai:");
  5248  0758  304C               	movlw	((STR_49-__stringbase))&0ffh
  5249  0759  160A  118A  20C5   	fcall	_lcd_puts
              120A  118A         
  5250                           	line	423
  5251                           ;main.c: 423: lcd_gotoxy(12, 0);
  5252  075E  1283               	bcf	status, 5	;RP0=0, select bank0
  5253  075F  1303               	bcf	status, 6	;RP1=0, select bank0
  5254  0760  01A4               	clrf	(?_lcd_gotoxy)
  5255  0761  300C               	movlw	(0Ch)
  5256  0762  160A  118A  2152   	fcall	_lcd_gotoxy
              120A  118A         
  5257                           	line	424
  5258                           	
  5259  0767                     l14042:	
  5260                           ;main.c: 424: printf("%d", SLMaiTho + 1);
  5261  0767  1683               	bsf	status, 5	;RP0=1, select bank1
  5262  0768  1303               	bcf	status, 6	;RP1=0, select bank1
  5263  0769  084A               	movf	(_SLMaiTho)^080h,w
  5264  076A  3E01               	addlw	low(01h)
  5265  076B  1283               	bcf	status, 5	;RP0=0, select bank0
  5266  076C  1303               	bcf	status, 6	;RP1=0, select bank0
  5267  076D  00AC               	movwf	(?_printf)
  5268  076E  3000               	movlw	high(01h)
  5269  076F  1803               	skipnc
  5270  0770  3001               	movlw	(high(01h)+1)&0ffh
  5271  0771  00AD               	movwf	((?_printf))+1
  5272  0772  30BA               	movlw	((STR_50-__stringbase))&0ffh
  5273  0773  120A  158A  200D   	fcall	_printf
              120A  118A         
  5274                           	line	426
  5275                           	
  5276  0778                     l14044:	
  5277                           ;main.c: 426: if (STOP == 0) {
  5278  0778  1283               	bcf	status, 5	;RP0=0, select bank0
  5279  0779  1303               	bcf	status, 6	;RP1=0, select bank0
  5280  077A  08DC               	movf	(_STOP),f
  5281  077B  1D03               	skipz	;volatile
  5282  077C  2F7E               	goto	u10481
  5283  077D  2F7F               	goto	u10480
  5284  077E                     u10481:
  5285  077E  2F85               	goto	l14048
  5286  077F                     u10480:
  5287                           	line	427
  5288                           	
  5289  077F                     l14046:	
  5290                           ;main.c: 427: CuaStart();
  5291  077F  120A  158A  23D7   	fcall	_CuaStart
              120A  118A         
  5292  0784  2F85               	goto	l14048
  5293                           	line	428
  5294                           	
  5295  0785                     l1230:	
  5296                           	line	429
  5297                           	
  5298  0785                     l14048:	
  5299                           ;main.c: 428: }
  5300                           ;main.c: 429: dk1 = 0;
  5301  0785  1683               	bsf	status, 5	;RP0=1, select bank1
  5302  0786  1303               	bcf	status, 6	;RP1=0, select bank1
  5303  0787  01D3               	clrf	(_dk1)^080h
  5304                           	line	430
  5305                           	
  5306  0788                     l14050:	
  5307                           ;main.c: 430: dk2 = 0;
  5308  0788  01D4               	clrf	(_dk2)^080h
  5309                           	line	431
  5310                           	
  5311  0789                     l14052:	
  5312                           ;main.c: 431: cb = 0;
  5313  0789  01CD               	clrf	(_cb)^080h
  5314                           	line	432
  5315                           	
  5316  078A                     l14054:	
  5317                           ;main.c: 432: RB1 = 0;
  5318  078A  1283               	bcf	status, 5	;RP0=0, select bank0
  5319  078B  1303               	bcf	status, 6	;RP1=0, select bank0
  5320  078C  1086               	bcf	(49/8),(49)&7
  5321                           	line	433
  5322                           	
  5323  078D                     l14056:	
  5324                           ;main.c: 433: lcd_putc('\f');
  5325  078D  300C               	movlw	(0Ch)
  5326  078E  160A  118A  23B9   	fcall	_lcd_putc
              120A  118A         
  5327                           	line	434
  5328                           	
  5329  0793                     l14058:	
  5330                           ;main.c: 434: biennho2 = 0;
  5331  0793  01F8               	clrf	(_biennho2)	;volatile
  5332  0794  01F9               	clrf	(_biennho2+1)	;volatile
  5333                           	line	435
  5334                           	
  5335  0795                     l14060:	
  5336                           ;main.c: 435: biennho1 = 0;
  5337  0795  1683               	bsf	status, 5	;RP0=1, select bank1
  5338  0796  1303               	bcf	status, 6	;RP1=0, select bank1
  5339  0797  01C6               	clrf	(_biennho1)^080h	;volatile
  5340  0798  01C7               	clrf	(_biennho1+1)^080h	;volatile
  5341                           	line	436
  5342                           	
  5343  0799                     l14062:	
  5344                           ;main.c: 436: RB3 = 0;
  5345  0799  1283               	bcf	status, 5	;RP0=0, select bank0
  5346  079A  1303               	bcf	status, 6	;RP1=0, select bank0
  5347  079B  1186               	bcf	(51/8),(51)&7
  5348                           	line	437
  5349                           	
  5350  079C                     l14064:	
  5351                           ;main.c: 437: demdao = 0;
  5352  079C  1683               	bsf	status, 5	;RP0=1, select bank1
  5353  079D  1303               	bcf	status, 6	;RP1=0, select bank1
  5354  079E  01D1               	clrf	(_demdao)^080h	;volatile
  5355                           	line	438
  5356                           	
  5357  079F                     l14066:	
  5358                           ;main.c: 438: statusMachine = 101;
  5359  079F  3065               	movlw	(065h)
  5360  07A0  1283               	bcf	status, 5	;RP0=0, select bank0
  5361  07A1  1303               	bcf	status, 6	;RP1=0, select bank0
  5362  07A2  00D7               	movwf	(??_main+0)+0
  5363  07A3  0857               	movf	(??_main+0)+0,w
  5364  07A4  1683               	bsf	status, 5	;RP0=1, select bank1
  5365  07A5  1303               	bcf	status, 6	;RP1=0, select bank1
  5366  07A6  00E3               	movwf	(_statusMachine)^080h
  5367  07A7  2829               	goto	l13550
  5368                           	line	439
  5369                           	
  5370  07A8                     l1223:	
  5371                           	line	440
  5372                           ;main.c: 439: }
  5373                           ;main.c: 440: break;
  5374  07A8  2829               	goto	l13550
  5375                           	line	484
  5376                           ;main.c: 484: default:
  5377                           	
  5378  07A9                     l1231:	
  5379                           	line	485
  5380                           ;main.c: 485: break;
  5381  07A9  2829               	goto	l13550
  5382                           	line	486
  5383                           	
  5384  07AA                     l14068:	
  5385                           ;main.c: 486: }
  5386  07AA  2829               	goto	l13550
  5387                           	line	56
  5388                           	
  5389  07AB                     l1158:	
  5390                           	
  5391  07AB                     l14070:	
  5392  07AB  1683               	bsf	status, 5	;RP0=1, select bank1
  5393  07AC  1303               	bcf	status, 6	;RP1=0, select bank1
  5394  07AD  0863               	movf	(_statusMachine)^080h,w
  5395                           	; Switch size 1, requested type "space"
  5396                           ; Number of cases is 8, Range of values is 101 to 109
  5397                           ; switch strategies available:
  5398                           ; Name         Instructions Cycles
  5399                           ; simple_byte           25    13 (average)
  5400                           ; direct_byte           38    11 (fixed)
  5401                           ; jumptable            263     9 (fixed)
  5402                           ;	Chosen strategy is simple_byte
  5403                           
  5404                           	opt asmopt_off
  5405  07AE  3A65               	xorlw	101^0	; case 101
  5406  07AF  1903               	skipnz
  5407  07B0  2FCC               	goto	l1159
  5408  07B1  3A03               	xorlw	102^101	; case 102
  5409  07B2  1903               	skipnz
  5410  07B3  2903               	goto	l13738
  5411  07B4  3A01               	xorlw	103^102	; case 103
  5412  07B5  1903               	skipnz
  5413  07B6  284A               	goto	l1187
  5414  07B7  3A0F               	xorlw	104^103	; case 104
  5415  07B8  1903               	skipnz
  5416  07B9  2A13               	goto	l13786
  5417  07BA  3A01               	xorlw	105^104	; case 105
  5418  07BB  1903               	skipnz
  5419  07BC  2B29               	goto	l13834
  5420  07BD  3A03               	xorlw	106^105	; case 106
  5421  07BE  1903               	skipnz
  5422  07BF  2C45               	goto	l13888
  5423  07C0  3A01               	xorlw	107^106	; case 107
  5424  07C1  1903               	skipnz
  5425  07C2  2E90               	goto	l1217
  5426  07C3  3A06               	xorlw	109^107	; case 109
  5427  07C4  1903               	skipnz
  5428  07C5  2E2B               	goto	l13976
  5429  07C6  2829               	goto	l13550
  5430                           	opt asmopt_on
  5431                           
  5432                           	line	486
  5433                           	
  5434  07C7                     l1186:	
  5435  07C7  2829               	goto	l13550
  5436                           	line	487
  5437                           	
  5438  07C8                     l1232:	
  5439                           	line	54
  5440  07C8  2829               	goto	l13550
  5441                           	
  5442  07C9                     l1233:	
  5443                           	line	488
  5444                           	
  5445  07C9                     l1234:	
  5446                           	global	start
  5447  07C9  120A  118A  2812   	ljmp	start
      + 07CC                     L1:	
  5448                           	opt stack 0
  5449                           GLOBAL	__end_of_main
  5450  124C                     	__end_of_main:
  5451 ;; =============== function _main ends ============
  5452                           
  5453                           	signat	_main,88
  5454                           	global	_CuaStart
  5455                           psect	text1411,local,class=CODE,delta=2
  5456                           global __ptext1411
  5457  0BD7                     __ptext1411:
  5458                           
  5459 ;; *************** function _CuaStart *****************
  5460 ;; Defined at:
  5461 ;;		line 677 in file "main.c"
  5462 ;; Parameters:    Size  Location     Type
  5463 ;;		None
  5464 ;; Auto vars:     Size  Location     Type
  5465 ;;  k               2   35[BANK0 ] int 
  5466 ;;  i               2   45[BANK0 ] int 
  5467 ;;  i               2   51[BANK0 ] int 
  5468 ;;  i2              2   43[BANK0 ] int 
  5469 ;;  i1              2   41[BANK0 ] int 
  5470 ;;  i               2   39[BANK0 ] int 
  5471 ;;  k1              2   37[BANK0 ] int 
  5472 ;;  j               2   33[BANK0 ] int 
  5473 ;;  i               2   49[BANK0 ] int 
  5474 ;;  i               2   31[BANK0 ] int 
  5475 ;;  pulse1          2   53[BANK0 ] int 
  5476 ;;  pulse3          2   47[BANK0 ] int 
  5477 ;; Return value:  Size  Location     Type
  5478 ;;		None               void
  5479 ;; Registers used:
  5480 ;;		wreg, fsr0l, fsr0h, status,2, status,0, btemp+1, pclath, cstack
  5481 ;; Tracked objects:
  5482 ;;		On entry : 0/0
  5483 ;;		On exit  : 0/0
  5484 ;;		Unchanged: 0/0
  5485 ;; Data sizes:     COMMON   BANK0   BANK1   BANK3   BANK2
  5486 ;;      Params:         0       0       0       0       0
  5487 ;;      Locals:         0      24       0       0       0
  5488 ;;      Temps:          0       5       0       0       0
  5489 ;;      Totals:         0      29       0       0       0
  5490 ;;Total ram usage:       29 bytes
  5491 ;; Hardware stack levels used:    1
  5492 ;; Hardware stack levels required when called:    6
  5493 ;; This function calls:
  5494 ;;		_motorX
  5495 ;;		_MotorEpTruc
  5496 ;;		_lcd_gotoxy
  5497 ;;		_lcd_puts
  5498 ;;		_printf
  5499 ;;		_ChuTrinhMaiTho
  5500 ;;		_lcd_putc
  5501 ;;		_maidao
  5502 ;;		_Delay
  5503 ;;		_motorY
  5504 ;;		_chuyenluoi
  5505 ;; This function is called by:
  5506 ;;		_main
  5507 ;; This function uses a non-reentrant model
  5508 ;;
  5509                           psect	text1411
  5510                           	file	"main.c"
  5511                           	line	677
  5512                           	global	__size_of_CuaStart
  5513  0429                     	__size_of_CuaStart	equ	__end_of_CuaStart-_CuaStart
  5514                           	
  5515  0BD7                     _CuaStart:	
  5516                           	opt	stack 1
  5517                           ; Regs used in _CuaStart: [wreg-fsr0h+status,2+status,0+btemp+1+pclath+cstack]
  5518                           	line	678
  5519                           	
  5520  0BD7                     l13266:	
  5521                           ;main.c: 678: int pulse1 = 600, pulse3 = 300;
  5522  0BD7  3058               	movlw	low(0258h)
  5523  0BD8  1283               	bcf	status, 5	;RP0=0, select bank0
  5524  0BD9  1303               	bcf	status, 6	;RP1=0, select bank0
  5525  0BDA  00D5               	movwf	(CuaStart@pulse1)
  5526  0BDB  3002               	movlw	high(0258h)
  5527  0BDC  00D6               	movwf	((CuaStart@pulse1))+1
  5528  0BDD  302C               	movlw	low(012Ch)
  5529  0BDE  00CF               	movwf	(CuaStart@pulse3)
  5530  0BDF  3001               	movlw	high(012Ch)
  5531  0BE0  00D0               	movwf	((CuaStart@pulse3))+1
  5532                           	line	679
  5533                           	
  5534  0BE1                     l13268:	
  5535                           ;main.c: 679: RC6 = 1;
  5536  0BE1  1707               	bsf	(62/8),(62)&7
  5537                           	line	680
  5538                           	
  5539  0BE2                     l13270:	
  5540                           ;main.c: 680: RC4 = 1;
  5541  0BE2  1607               	bsf	(60/8),(60)&7
  5542                           	line	681
  5543                           	
  5544  0BE3                     l13272:	
  5545                           ;main.c: 681: RE2 = 1;
  5546  0BE3  1509               	bsf	(74/8),(74)&7
  5547                           	line	683
  5548                           	
  5549  0BE4                     l13274:	
  5550                           ;main.c: 683: for (int i = 0; i < pulse1; i++) {
  5551  0BE4  01BF               	clrf	(CuaStart@i)
  5552  0BE5  01C0               	clrf	(CuaStart@i+1)
  5553  0BE6  2C19               	goto	l1366
  5554                           	
  5555  0BE7                     l1367:	
  5556                           	line	684
  5557                           	
  5558  0BE7                     l13276:	
  5559                           ;main.c: 684: motorX();
  5560  0BE7  160A  158A  2613   	fcall	_motorX
              120A  158A         
  5561                           	line	685
  5562                           	
  5563  0BEC                     l13278:	
  5564                           ;main.c: 685: if (STOP == 1) {
  5565  0BEC  1283               	bcf	status, 5	;RP0=0, select bank0
  5566  0BED  1303               	bcf	status, 6	;RP1=0, select bank0
  5567  0BEE  085C               	movf	(_STOP),w	;volatile
  5568  0BEF  3A01               	xorlw	01h
  5569  0BF0  1D03               	skipz
  5570  0BF1  2BF3               	goto	u9421
  5571  0BF2  2BF4               	goto	u9420
  5572  0BF3                     u9421:
  5573  0BF3  2C13               	goto	l13288
  5574  0BF4                     u9420:
  5575                           	line	686
  5576                           	
  5577  0BF4                     l13280:	
  5578                           ;main.c: 686: RC6 = 0;
  5579  0BF4  1307               	bcf	(62/8),(62)&7
  5580                           	line	687
  5581                           ;main.c: 687: while (RB7 == 1) {
  5582  0BF5  2C0B               	goto	l13286
  5583                           	
  5584  0BF6                     l1370:	
  5585                           	line	688
  5586                           ;main.c: 688: RC5 = 1;
  5587  0BF6  1687               	bsf	(61/8),(61)&7
  5588                           	line	689
  5589                           	
  5590  0BF7                     l13282:	
  5591                           ;main.c: 689: _delay((unsigned long)((2500)*(8000000/4000000.0)));
  5592                           	opt asmopt_off
  5593  0BF7  3007               movlw	7
  5594  0BF8  00BB               movwf	((??_CuaStart+0)+0+1),f
  5595  0BF9  307D               	movlw	125
  5596  0BFA  00BA               movwf	((??_CuaStart+0)+0),f
  5597  0BFB                     u10637:
  5598  0BFB  0BBA               	decfsz	((??_CuaStart+0)+0),f
  5599  0BFC  2BFB               	goto	u10637
  5600  0BFD  0BBB               	decfsz	((??_CuaStart+0)+0+1),f
  5601  0BFE  2BFB               	goto	u10637
  5602                           opt asmopt_on
  5603                           
  5604                           	line	690
  5605                           	
  5606  0BFF                     l13284:	
  5607                           ;main.c: 690: RC5 = 0;
  5608  0BFF  1283               	bcf	status, 5	;RP0=0, select bank0
  5609  0C00  1303               	bcf	status, 6	;RP1=0, select bank0
  5610  0C01  1287               	bcf	(61/8),(61)&7
  5611                           	line	691
  5612                           ;main.c: 691: _delay((unsigned long)((2500)*(8000000/4000000.0)));
  5613                           	opt asmopt_off
  5614  0C02  3007               movlw	7
  5615  0C03  00BB               movwf	((??_CuaStart+0)+0+1),f
  5616  0C04  307D               	movlw	125
  5617  0C05  00BA               movwf	((??_CuaStart+0)+0),f
  5618  0C06                     u10647:
  5619  0C06  0BBA               	decfsz	((??_CuaStart+0)+0),f
  5620  0C07  2C06               	goto	u10647
  5621  0C08  0BBB               	decfsz	((??_CuaStart+0)+0+1),f
  5622  0C09  2C06               	goto	u10647
  5623                           opt asmopt_on
  5624                           
  5625  0C0A  2C0B               	goto	l13286
  5626                           	line	692
  5627                           	
  5628  0C0B                     l1369:	
  5629                           	line	687
  5630                           	
  5631  0C0B                     l13286:	
  5632  0C0B  1283               	bcf	status, 5	;RP0=0, select bank0
  5633  0C0C  1303               	bcf	status, 6	;RP1=0, select bank0
  5634  0C0D  1B86               	btfsc	(55/8),(55)&7
  5635  0C0E  2C10               	goto	u9431
  5636  0C0F  2C11               	goto	u9430
  5637  0C10                     u9431:
  5638  0C10  2BF6               	goto	l1370
  5639  0C11                     u9430:
  5640                           	
  5641  0C11                     l1371:	
  5642                           	line	693
  5643                           ;main.c: 692: }
  5644                           ;main.c: 693: RB1 = 0;
  5645  0C11  1086               	bcf	(49/8),(49)&7
  5646                           	line	694
  5647                           ;main.c: 694: break;
  5648  0C12  2C27               	goto	l1372
  5649                           	line	695
  5650                           	
  5651  0C13                     l1368:	
  5652                           	line	683
  5653                           	
  5654  0C13                     l13288:	
  5655  0C13  3001               	movlw	low(01h)
  5656  0C14  07BF               	addwf	(CuaStart@i),f
  5657  0C15  1803               	skipnc
  5658  0C16  0AC0               	incf	(CuaStart@i+1),f
  5659  0C17  3000               	movlw	high(01h)
  5660  0C18  07C0               	addwf	(CuaStart@i+1),f
  5661                           	
  5662  0C19                     l1366:	
  5663  0C19  0840               	movf	(CuaStart@i+1),w
  5664  0C1A  3A80               	xorlw	80h
  5665  0C1B  00BA               	movwf	(??_CuaStart+0)+0
  5666  0C1C  0856               	movf	(CuaStart@pulse1+1),w
  5667  0C1D  3A80               	xorlw	80h
  5668  0C1E  023A               	subwf	(??_CuaStart+0)+0,w
  5669  0C1F  1D03               	skipz
  5670  0C20  2C23               	goto	u9445
  5671  0C21  0855               	movf	(CuaStart@pulse1),w
  5672  0C22  023F               	subwf	(CuaStart@i),w
  5673  0C23                     u9445:
  5674                           
  5675  0C23  1C03               	skipc
  5676  0C24  2C26               	goto	u9441
  5677  0C25  2C27               	goto	u9440
  5678  0C26                     u9441:
  5679  0C26  2BE7               	goto	l13276
  5680  0C27                     u9440:
  5681                           	
  5682  0C27                     l1372:	
  5683                           	line	699
  5684                           ;main.c: 695: }
  5685                           ;main.c: 696: }
  5686                           ;main.c: 699: RC4 = 1;
  5687  0C27  1283               	bcf	status, 5	;RP0=0, select bank0
  5688  0C28  1303               	bcf	status, 6	;RP1=0, select bank0
  5689  0C29  1607               	bsf	(60/8),(60)&7
  5690                           	line	700
  5691                           	
  5692  0C2A                     l13290:	
  5693                           ;main.c: 700: for (int i = 0; i < 50 * 8; i++) {
  5694  0C2A  01D1               	clrf	(CuaStart@i_2048)
  5695  0C2B  01D2               	clrf	(CuaStart@i_2048+1)
  5696                           	
  5697  0C2C                     l13292:	
  5698  0C2C  0852               	movf	(CuaStart@i_2048+1),w
  5699  0C2D  3A80               	xorlw	80h
  5700  0C2E  00FF               	movwf	btemp+1
  5701  0C2F  3081               	movlw	(high(0190h))^80h
  5702  0C30  027F               	subwf	btemp+1,w
  5703  0C31  1D03               	skipz
  5704  0C32  2C35               	goto	u9455
  5705  0C33  3090               	movlw	low(0190h)
  5706  0C34  0251               	subwf	(CuaStart@i_2048),w
  5707  0C35                     u9455:
  5708                           
  5709  0C35  1C03               	skipc
  5710  0C36  2C38               	goto	u9451
  5711  0C37  2C39               	goto	u9450
  5712  0C38                     u9451:
  5713  0C38  2C3B               	goto	l13296
  5714  0C39                     u9450:
  5715  0C39  2FD6               	goto	l13516
  5716                           	
  5717  0C3A                     l13294:	
  5718  0C3A  2FD6               	goto	l13516
  5719                           	
  5720  0C3B                     l1373:	
  5721                           	line	701
  5722                           	
  5723  0C3B                     l13296:	
  5724                           ;main.c: 701: MotorEpTruc();
  5725  0C3B  160A  158A  2645   	fcall	_MotorEpTruc
              120A  158A         
  5726                           	line	702
  5727                           	
  5728  0C40                     l13298:	
  5729                           ;main.c: 702: if (STOP == 1) {
  5730  0C40  1283               	bcf	status, 5	;RP0=0, select bank0
  5731  0C41  1303               	bcf	status, 6	;RP1=0, select bank0
  5732  0C42  085C               	movf	(_STOP),w	;volatile
  5733  0C43  3A01               	xorlw	01h
  5734  0C44  1D03               	skipz
  5735  0C45  2C47               	goto	u9461
  5736  0C46  2C48               	goto	u9460
  5737  0C47                     u9461:
  5738  0C47  2C67               	goto	l13308
  5739  0C48                     u9460:
  5740                           	line	703
  5741                           	
  5742  0C48                     l13300:	
  5743                           ;main.c: 703: RC6 = 0;
  5744  0C48  1307               	bcf	(62/8),(62)&7
  5745                           	line	704
  5746                           ;main.c: 704: while (RB7 == 1) {
  5747  0C49  2C5F               	goto	l13306
  5748                           	
  5749  0C4A                     l1377:	
  5750                           	line	705
  5751                           ;main.c: 705: RC5 = 1;
  5752  0C4A  1687               	bsf	(61/8),(61)&7
  5753                           	line	706
  5754                           	
  5755  0C4B                     l13302:	
  5756                           ;main.c: 706: _delay((unsigned long)((2500)*(8000000/4000000.0)));
  5757                           	opt asmopt_off
  5758  0C4B  3007               movlw	7
  5759  0C4C  00BB               movwf	((??_CuaStart+0)+0+1),f
  5760  0C4D  307D               	movlw	125
  5761  0C4E  00BA               movwf	((??_CuaStart+0)+0),f
  5762  0C4F                     u10657:
  5763  0C4F  0BBA               	decfsz	((??_CuaStart+0)+0),f
  5764  0C50  2C4F               	goto	u10657
  5765  0C51  0BBB               	decfsz	((??_CuaStart+0)+0+1),f
  5766  0C52  2C4F               	goto	u10657
  5767                           opt asmopt_on
  5768                           
  5769                           	line	707
  5770                           	
  5771  0C53                     l13304:	
  5772                           ;main.c: 707: RC5 = 0;
  5773  0C53  1283               	bcf	status, 5	;RP0=0, select bank0
  5774  0C54  1303               	bcf	status, 6	;RP1=0, select bank0
  5775  0C55  1287               	bcf	(61/8),(61)&7
  5776                           	line	708
  5777                           ;main.c: 708: _delay((unsigned long)((2500)*(8000000/4000000.0)));
  5778                           	opt asmopt_off
  5779  0C56  3007               movlw	7
  5780  0C57  00BB               movwf	((??_CuaStart+0)+0+1),f
  5781  0C58  307D               	movlw	125
  5782  0C59  00BA               movwf	((??_CuaStart+0)+0),f
  5783  0C5A                     u10667:
  5784  0C5A  0BBA               	decfsz	((??_CuaStart+0)+0),f
  5785  0C5B  2C5A               	goto	u10667
  5786  0C5C  0BBB               	decfsz	((??_CuaStart+0)+0+1),f
  5787  0C5D  2C5A               	goto	u10667
  5788                           opt asmopt_on
  5789                           
  5790  0C5E  2C5F               	goto	l13306
  5791                           	line	709
  5792                           	
  5793  0C5F                     l1376:	
  5794                           	line	704
  5795                           	
  5796  0C5F                     l13306:	
  5797  0C5F  1283               	bcf	status, 5	;RP0=0, select bank0
  5798  0C60  1303               	bcf	status, 6	;RP1=0, select bank0
  5799  0C61  1B86               	btfsc	(55/8),(55)&7
  5800  0C62  2C64               	goto	u9471
  5801  0C63  2C65               	goto	u9470
  5802  0C64                     u9471:
  5803  0C64  2C4A               	goto	l1377
  5804  0C65                     u9470:
  5805                           	
  5806  0C65                     l1378:	
  5807                           	line	710
  5808                           ;main.c: 709: }
  5809                           ;main.c: 710: RB1 = 0;
  5810  0C65  1086               	bcf	(49/8),(49)&7
  5811                           	line	711
  5812                           ;main.c: 711: break;
  5813  0C66  2FD6               	goto	l13516
  5814                           	line	712
  5815                           	
  5816  0C67                     l1375:	
  5817                           	line	700
  5818                           	
  5819  0C67                     l13308:	
  5820  0C67  3001               	movlw	low(01h)
  5821  0C68  07D1               	addwf	(CuaStart@i_2048),f
  5822  0C69  1803               	skipnc
  5823  0C6A  0AD2               	incf	(CuaStart@i_2048+1),f
  5824  0C6B  3000               	movlw	high(01h)
  5825  0C6C  07D2               	addwf	(CuaStart@i_2048+1),f
  5826                           	
  5827  0C6D                     l13310:	
  5828  0C6D  0852               	movf	(CuaStart@i_2048+1),w
  5829  0C6E  3A80               	xorlw	80h
  5830  0C6F  00FF               	movwf	btemp+1
  5831  0C70  3081               	movlw	(high(0190h))^80h
  5832  0C71  027F               	subwf	btemp+1,w
  5833  0C72  1D03               	skipz
  5834  0C73  2C76               	goto	u9485
  5835  0C74  3090               	movlw	low(0190h)
  5836  0C75  0251               	subwf	(CuaStart@i_2048),w
  5837  0C76                     u9485:
  5838                           
  5839  0C76  1C03               	skipc
  5840  0C77  2C79               	goto	u9481
  5841  0C78  2C7A               	goto	u9480
  5842  0C79                     u9481:
  5843  0C79  2C3B               	goto	l13296
  5844  0C7A                     u9480:
  5845  0C7A  2FD6               	goto	l13516
  5846                           	
  5847  0C7B                     l1374:	
  5848                           	line	715
  5849                           ;main.c: 712: }
  5850                           ;main.c: 713: }
  5851                           ;main.c: 715: while (Luoi < SoLuoi) {
  5852  0C7B  2FD6               	goto	l13516
  5853                           	
  5854  0C7C                     l1380:	
  5855                           	line	717
  5856                           	
  5857  0C7C                     l13312:	
  5858                           ;main.c: 717: for (int j = 0; j < MaiTho; j++) {
  5859  0C7C  1283               	bcf	status, 5	;RP0=0, select bank0
  5860  0C7D  1303               	bcf	status, 6	;RP1=0, select bank0
  5861  0C7E  01C1               	clrf	(CuaStart@j)
  5862  0C7F  01C2               	clrf	(CuaStart@j+1)
  5863  0C80  2CE4               	goto	l1381
  5864                           	
  5865  0C81                     l1382:	
  5866                           	line	718
  5867                           	
  5868  0C81                     l13314:	
  5869                           ;main.c: 718: lcd_gotoxy(0, 0);
  5870  0C81  1283               	bcf	status, 5	;RP0=0, select bank0
  5871  0C82  1303               	bcf	status, 6	;RP1=0, select bank0
  5872  0C83  01A4               	clrf	(?_lcd_gotoxy)
  5873  0C84  3000               	movlw	(0)
  5874  0C85  160A  118A  2152   	fcall	_lcd_gotoxy
              120A  158A         
  5875                           	line	719
  5876                           ;main.c: 719: lcd_puts("So Lan Mai:");
  5877  0C8A  304C               	movlw	((STR_51-__stringbase))&0ffh
  5878  0C8B  160A  118A  20C5   	fcall	_lcd_puts
              120A  158A         
  5879                           	line	720
  5880                           ;main.c: 720: lcd_gotoxy(12, 0);
  5881  0C90  1283               	bcf	status, 5	;RP0=0, select bank0
  5882  0C91  1303               	bcf	status, 6	;RP1=0, select bank0
  5883  0C92  01A4               	clrf	(?_lcd_gotoxy)
  5884  0C93  300C               	movlw	(0Ch)
  5885  0C94  160A  118A  2152   	fcall	_lcd_gotoxy
              120A  158A         
  5886                           	line	721
  5887                           	
  5888  0C99                     l13316:	
  5889                           ;main.c: 721: printf("%d", SLMaiTho + 1);
  5890  0C99  1683               	bsf	status, 5	;RP0=1, select bank1
  5891  0C9A  1303               	bcf	status, 6	;RP1=0, select bank1
  5892  0C9B  084A               	movf	(_SLMaiTho)^080h,w
  5893  0C9C  3E01               	addlw	low(01h)
  5894  0C9D  1283               	bcf	status, 5	;RP0=0, select bank0
  5895  0C9E  1303               	bcf	status, 6	;RP1=0, select bank0
  5896  0C9F  00AC               	movwf	(?_printf)
  5897  0CA0  3000               	movlw	high(01h)
  5898  0CA1  1803               	skipnc
  5899  0CA2  3001               	movlw	(high(01h)+1)&0ffh
  5900  0CA3  00AD               	movwf	((?_printf))+1
  5901  0CA4  30BA               	movlw	((STR_52-__stringbase))&0ffh
  5902  0CA5  120A  158A  200D   	fcall	_printf
              120A  158A         
  5903                           	line	722
  5904                           	
  5905  0CAA                     l13318:	
  5906                           ;main.c: 722: ChuTrinhMaiTho();
  5907  0CAA  160A  118A  22D4   	fcall	_ChuTrinhMaiTho
              120A  158A         
  5908                           	line	723
  5909                           	
  5910  0CAF                     l13320:	
  5911                           ;main.c: 723: SLMaiTho++;
  5912  0CAF  3001               	movlw	(01h)
  5913  0CB0  1283               	bcf	status, 5	;RP0=0, select bank0
  5914  0CB1  1303               	bcf	status, 6	;RP1=0, select bank0
  5915  0CB2  00BA               	movwf	(??_CuaStart+0)+0
  5916  0CB3  083A               	movf	(??_CuaStart+0)+0,w
  5917  0CB4  1683               	bsf	status, 5	;RP0=1, select bank1
  5918  0CB5  1303               	bcf	status, 6	;RP1=0, select bank1
  5919  0CB6  07CA               	addwf	(_SLMaiTho)^080h,f
  5920                           	line	724
  5921                           	
  5922  0CB7                     l13322:	
  5923                           ;main.c: 724: if (STOP == 1) {
  5924  0CB7  1283               	bcf	status, 5	;RP0=0, select bank0
  5925  0CB8  1303               	bcf	status, 6	;RP1=0, select bank0
  5926  0CB9  085C               	movf	(_STOP),w	;volatile
  5927  0CBA  3A01               	xorlw	01h
  5928  0CBB  1D03               	skipz
  5929  0CBC  2CBE               	goto	u9491
  5930  0CBD  2CBF               	goto	u9490
  5931  0CBE                     u9491:
  5932  0CBE  2CDE               	goto	l13332
  5933  0CBF                     u9490:
  5934                           	line	725
  5935                           	
  5936  0CBF                     l13324:	
  5937                           ;main.c: 725: RC6 = 0;
  5938  0CBF  1307               	bcf	(62/8),(62)&7
  5939                           	line	726
  5940                           ;main.c: 726: while (RB7 == 1) {
  5941  0CC0  2CD6               	goto	l13330
  5942                           	
  5943  0CC1                     l1385:	
  5944                           	line	727
  5945                           ;main.c: 727: RC5 = 1;
  5946  0CC1  1687               	bsf	(61/8),(61)&7
  5947                           	line	728
  5948                           	
  5949  0CC2                     l13326:	
  5950                           ;main.c: 728: _delay((unsigned long)((2500)*(8000000/4000000.0)));
  5951                           	opt asmopt_off
  5952  0CC2  3007               movlw	7
  5953  0CC3  00BB               movwf	((??_CuaStart+0)+0+1),f
  5954  0CC4  307D               	movlw	125
  5955  0CC5  00BA               movwf	((??_CuaStart+0)+0),f
  5956  0CC6                     u10677:
  5957  0CC6  0BBA               	decfsz	((??_CuaStart+0)+0),f
  5958  0CC7  2CC6               	goto	u10677
  5959  0CC8  0BBB               	decfsz	((??_CuaStart+0)+0+1),f
  5960  0CC9  2CC6               	goto	u10677
  5961                           opt asmopt_on
  5962                           
  5963                           	line	729
  5964                           	
  5965  0CCA                     l13328:	
  5966                           ;main.c: 729: RC5 = 0;
  5967  0CCA  1283               	bcf	status, 5	;RP0=0, select bank0
  5968  0CCB  1303               	bcf	status, 6	;RP1=0, select bank0
  5969  0CCC  1287               	bcf	(61/8),(61)&7
  5970                           	line	730
  5971                           ;main.c: 730: _delay((unsigned long)((2500)*(8000000/4000000.0)));
  5972                           	opt asmopt_off
  5973  0CCD  3007               movlw	7
  5974  0CCE  00BB               movwf	((??_CuaStart+0)+0+1),f
  5975  0CCF  307D               	movlw	125
  5976  0CD0  00BA               movwf	((??_CuaStart+0)+0),f
  5977  0CD1                     u10687:
  5978  0CD1  0BBA               	decfsz	((??_CuaStart+0)+0),f
  5979  0CD2  2CD1               	goto	u10687
  5980  0CD3  0BBB               	decfsz	((??_CuaStart+0)+0+1),f
  5981  0CD4  2CD1               	goto	u10687
  5982                           opt asmopt_on
  5983                           
  5984  0CD5  2CD6               	goto	l13330
  5985                           	line	731
  5986                           	
  5987  0CD6                     l1384:	
  5988                           	line	726
  5989                           	
  5990  0CD6                     l13330:	
  5991  0CD6  1283               	bcf	status, 5	;RP0=0, select bank0
  5992  0CD7  1303               	bcf	status, 6	;RP1=0, select bank0
  5993  0CD8  1B86               	btfsc	(55/8),(55)&7
  5994  0CD9  2CDB               	goto	u9501
  5995  0CDA  2CDC               	goto	u9500
  5996  0CDB                     u9501:
  5997  0CDB  2CC1               	goto	l1385
  5998  0CDC                     u9500:
  5999                           	
  6000  0CDC                     l1386:	
  6001                           	line	732
  6002                           ;main.c: 731: }
  6003                           ;main.c: 732: RB1 = 0;
  6004  0CDC  1086               	bcf	(49/8),(49)&7
  6005                           	line	733
  6006                           ;main.c: 733: break;
  6007  0CDD  2CF6               	goto	l13334
  6008                           	line	734
  6009                           	
  6010  0CDE                     l1383:	
  6011                           	line	717
  6012                           	
  6013  0CDE                     l13332:	
  6014  0CDE  3001               	movlw	low(01h)
  6015  0CDF  07C1               	addwf	(CuaStart@j),f
  6016  0CE0  1803               	skipnc
  6017  0CE1  0AC2               	incf	(CuaStart@j+1),f
  6018  0CE2  3000               	movlw	high(01h)
  6019  0CE3  07C2               	addwf	(CuaStart@j+1),f
  6020                           	
  6021  0CE4                     l1381:	
  6022  0CE4  0842               	movf	(CuaStart@j+1),w
  6023  0CE5  3A80               	xorlw	80h
  6024  0CE6  00BA               	movwf	(??_CuaStart+0)+0
  6025  0CE7  3080               	movlw	80h
  6026  0CE8  023A               	subwf	(??_CuaStart+0)+0,w
  6027  0CE9  1D03               	skipz
  6028  0CEA  2CF1               	goto	u9515
  6029  0CEB  1683               	bsf	status, 5	;RP0=1, select bank1
  6030  0CEC  1303               	bcf	status, 6	;RP1=0, select bank1
  6031  0CED  0849               	movf	(_MaiTho)^080h,w
  6032  0CEE  1283               	bcf	status, 5	;RP0=0, select bank0
  6033  0CEF  1303               	bcf	status, 6	;RP1=0, select bank0
  6034  0CF0  0241               	subwf	(CuaStart@j),w
  6035  0CF1                     u9515:
  6036                           
  6037  0CF1  1C03               	skipc
  6038  0CF2  2CF4               	goto	u9511
  6039  0CF3  2CF5               	goto	u9510
  6040  0CF4                     u9511:
  6041  0CF4  2C81               	goto	l13314
  6042  0CF5                     u9510:
  6043  0CF5  2CF6               	goto	l13334
  6044                           	
  6045  0CF6                     l1387:	
  6046                           	line	737
  6047                           	
  6048  0CF6                     l13334:	
  6049                           ;main.c: 734: }
  6050                           ;main.c: 735: }
  6051                           ;main.c: 737: if (STOP == 1)
  6052  0CF6  1283               	bcf	status, 5	;RP0=0, select bank0
  6053  0CF7  1303               	bcf	status, 6	;RP1=0, select bank0
  6054  0CF8  085C               	movf	(_STOP),w	;volatile
  6055  0CF9  3A01               	xorlw	01h
  6056  0CFA  1D03               	skipz
  6057  0CFB  2CFD               	goto	u9521
  6058  0CFC  2CFE               	goto	u9520
  6059  0CFD                     u9521:
  6060  0CFD  2D00               	goto	l13338
  6061  0CFE                     u9520:
  6062  0CFE  2FE0               	goto	l1389
  6063                           	line	738
  6064                           	
  6065  0CFF                     l13336:	
  6066                           ;main.c: 738: break;
  6067  0CFF  2FE0               	goto	l1389
  6068                           	
  6069  0D00                     l1388:	
  6070                           	line	739
  6071                           	
  6072  0D00                     l13338:	
  6073                           ;main.c: 739: lcd_putc('\f');
  6074  0D00  300C               	movlw	(0Ch)
  6075  0D01  160A  118A  23B9   	fcall	_lcd_putc
              120A  158A         
  6076                           	line	742
  6077                           	
  6078  0D06                     l13340:	
  6079                           ;main.c: 742: for (SoLan = 0; SoLan < LanMai; SoLan++)
  6080  0D06  1683               	bsf	status, 5	;RP0=1, select bank1
  6081  0D07  1303               	bcf	status, 6	;RP1=0, select bank1
  6082  0D08  01CB               	clrf	(_SoLan)^080h
  6083  0D09  2DDF               	goto	l13384
  6084                           	line	743
  6085                           	
  6086  0D0A                     l1391:	
  6087                           	line	744
  6088                           	
  6089  0D0A                     l13342:	
  6090                           ;main.c: 743: {
  6091                           ;main.c: 744: lcd_gotoxy(0, 0);
  6092  0D0A  1283               	bcf	status, 5	;RP0=0, select bank0
  6093  0D0B  1303               	bcf	status, 6	;RP1=0, select bank0
  6094  0D0C  01A4               	clrf	(?_lcd_gotoxy)
  6095  0D0D  3000               	movlw	(0)
  6096  0D0E  160A  118A  2152   	fcall	_lcd_gotoxy
              120A  158A         
  6097                           	line	745
  6098                           ;main.c: 745: lcd_puts("So Lan:");
  6099  0D13  309B               	movlw	((STR_53-__stringbase))&0ffh
  6100  0D14  160A  118A  20C5   	fcall	_lcd_puts
              120A  158A         
  6101                           	line	746
  6102                           ;main.c: 746: lcd_gotoxy(12, 0);
  6103  0D19  1283               	bcf	status, 5	;RP0=0, select bank0
  6104  0D1A  1303               	bcf	status, 6	;RP1=0, select bank0
  6105  0D1B  01A4               	clrf	(?_lcd_gotoxy)
  6106  0D1C  300C               	movlw	(0Ch)
  6107  0D1D  160A  118A  2152   	fcall	_lcd_gotoxy
              120A  158A         
  6108                           	line	747
  6109                           	
  6110  0D22                     l13344:	
  6111                           ;main.c: 747: printf("%d", SoLan + 1);
  6112  0D22  1683               	bsf	status, 5	;RP0=1, select bank1
  6113  0D23  1303               	bcf	status, 6	;RP1=0, select bank1
  6114  0D24  084B               	movf	(_SoLan)^080h,w
  6115  0D25  3E01               	addlw	low(01h)
  6116  0D26  1283               	bcf	status, 5	;RP0=0, select bank0
  6117  0D27  1303               	bcf	status, 6	;RP1=0, select bank0
  6118  0D28  00AC               	movwf	(?_printf)
  6119  0D29  3000               	movlw	high(01h)
  6120  0D2A  1803               	skipnc
  6121  0D2B  3001               	movlw	(high(01h)+1)&0ffh
  6122  0D2C  00AD               	movwf	((?_printf))+1
  6123  0D2D  30BA               	movlw	((STR_54-__stringbase))&0ffh
  6124  0D2E  120A  158A  200D   	fcall	_printf
              120A  158A         
  6125                           	line	748
  6126                           	
  6127  0D33                     l13346:	
  6128                           ;main.c: 748: lcd_gotoxy(0, 1);
  6129  0D33  1283               	bcf	status, 5	;RP0=0, select bank0
  6130  0D34  1303               	bcf	status, 6	;RP1=0, select bank0
  6131  0D35  01A4               	clrf	(?_lcd_gotoxy)
  6132  0D36  1403               	bsf	status,0
  6133  0D37  0DA4               	rlf	(?_lcd_gotoxy),f
  6134  0D38  3000               	movlw	(0)
  6135  0D39  160A  118A  2152   	fcall	_lcd_gotoxy
              120A  158A         
  6136                           	line	749
  6137                           	
  6138  0D3E                     l13348:	
  6139                           ;main.c: 749: lcd_puts("So Luoi:");
  6140  0D3E  308A               	movlw	((STR_55-__stringbase))&0ffh
  6141  0D3F  160A  118A  20C5   	fcall	_lcd_puts
              120A  158A         
  6142                           	line	750
  6143                           	
  6144  0D44                     l13350:	
  6145                           ;main.c: 750: lcd_gotoxy(12, 1);
  6146  0D44  1283               	bcf	status, 5	;RP0=0, select bank0
  6147  0D45  1303               	bcf	status, 6	;RP1=0, select bank0
  6148  0D46  01A4               	clrf	(?_lcd_gotoxy)
  6149  0D47  1403               	bsf	status,0
  6150  0D48  0DA4               	rlf	(?_lcd_gotoxy),f
  6151  0D49  300C               	movlw	(0Ch)
  6152  0D4A  160A  118A  2152   	fcall	_lcd_gotoxy
              120A  158A         
  6153                           	line	751
  6154                           ;main.c: 751: printf("%d", Luoi + 1);
  6155  0D4F  1683               	bsf	status, 5	;RP0=1, select bank1
  6156  0D50  1303               	bcf	status, 6	;RP1=0, select bank1
  6157  0D51  0848               	movf	(_Luoi)^080h,w
  6158  0D52  3E01               	addlw	low(01h)
  6159  0D53  1283               	bcf	status, 5	;RP0=0, select bank0
  6160  0D54  1303               	bcf	status, 6	;RP1=0, select bank0
  6161  0D55  00AC               	movwf	(?_printf)
  6162  0D56  3000               	movlw	high(01h)
  6163  0D57  1803               	skipnc
  6164  0D58  3001               	movlw	(high(01h)+1)&0ffh
  6165  0D59  00AD               	movwf	((?_printf))+1
  6166  0D5A  30BA               	movlw	((STR_56-__stringbase))&0ffh
  6167  0D5B  120A  158A  200D   	fcall	_printf
              120A  158A         
  6168                           	line	754
  6169                           	
  6170  0D60                     l13352:	
  6171                           ;main.c: 754: RC4 = 1;
  6172  0D60  1283               	bcf	status, 5	;RP0=0, select bank0
  6173  0D61  1303               	bcf	status, 6	;RP1=0, select bank0
  6174  0D62  1607               	bsf	(60/8),(60)&7
  6175                           	line	755
  6176                           	
  6177  0D63                     l13354:	
  6178                           ;main.c: 755: biennho2 = biennho2 + DoEp;
  6179  0D63  085A               	movf	(_DoEp),w
  6180  0D64  0778               	addwf	(_biennho2),w	;volatile
  6181  0D65  00F8               	movwf	(_biennho2)	;volatile
  6182  0D66  0879               	movf	(_biennho2+1),w	;volatile
  6183  0D67  1803               	skipnc
  6184  0D68  0A79               	incf	(_biennho2+1),w	;volatile
  6185  0D69  00F9               	movwf	((_biennho2))+1	;volatile
  6186                           	line	756
  6187                           	
  6188  0D6A                     l13356:	
  6189                           ;main.c: 756: for (int k = 0; k < DoEp * 8; k++)
  6190  0D6A  01C3               	clrf	(CuaStart@k)
  6191  0D6B  01C4               	clrf	(CuaStart@k+1)
  6192  0D6C  2D83               	goto	l13366
  6193                           	line	757
  6194                           	
  6195  0D6D                     l1393:	
  6196                           	line	758
  6197                           	
  6198  0D6D                     l13358:	
  6199                           ;main.c: 757: {
  6200                           ;main.c: 758: MotorEpTruc();
  6201  0D6D  160A  158A  2645   	fcall	_MotorEpTruc
              120A  158A         
  6202                           	line	759
  6203                           	
  6204  0D72                     l13360:	
  6205                           ;main.c: 759: if (STOP == 1)
  6206  0D72  1283               	bcf	status, 5	;RP0=0, select bank0
  6207  0D73  1303               	bcf	status, 6	;RP1=0, select bank0
  6208  0D74  085C               	movf	(_STOP),w	;volatile
  6209  0D75  3A01               	xorlw	01h
  6210  0D76  1D03               	skipz
  6211  0D77  2D79               	goto	u9531
  6212  0D78  2D7A               	goto	u9530
  6213  0D79                     u9531:
  6214  0D79  2D7C               	goto	l13364
  6215  0D7A                     u9530:
  6216  0D7A  2D9B               	goto	l1395
  6217                           	line	760
  6218                           	
  6219  0D7B                     l13362:	
  6220                           ;main.c: 760: break;
  6221  0D7B  2D9B               	goto	l1395
  6222                           	
  6223  0D7C                     l1394:	
  6224                           	line	756
  6225                           	
  6226  0D7C                     l13364:	
  6227  0D7C  3001               	movlw	low(01h)
  6228  0D7D  07C3               	addwf	(CuaStart@k),f
  6229  0D7E  1803               	skipnc
  6230  0D7F  0AC4               	incf	(CuaStart@k+1),f
  6231  0D80  3000               	movlw	high(01h)
  6232  0D81  07C4               	addwf	(CuaStart@k+1),f
  6233  0D82  2D83               	goto	l13366
  6234                           	
  6235  0D83                     l1392:	
  6236                           	
  6237  0D83                     l13366:	
  6238  0D83  085A               	movf	(_DoEp),w
  6239  0D84  00BA               	movwf	(??_CuaStart+0)+0
  6240  0D85  01BB               	clrf	(??_CuaStart+0)+0+1
  6241  0D86  3003               	movlw	03h
  6242  0D87  00FF               	movwf	btemp+1
  6243  0D88                     u9545:
  6244  0D88  1003               	clrc
  6245  0D89  0DBA               	rlf	(??_CuaStart+0)+0,f
  6246  0D8A  0DBB               	rlf	(??_CuaStart+0)+1,f
  6247  0D8B  0BFF               	decfsz	btemp+1,f
  6248  0D8C  2D88               	goto	u9545
  6249  0D8D  0844               	movf	(CuaStart@k+1),w
  6250  0D8E  3A80               	xorlw	80h
  6251  0D8F  00BC               	movwf	(??_CuaStart+2)+0
  6252  0D90  083B               	movf	1+(??_CuaStart+0)+0,w
  6253  0D91  3A80               	xorlw	80h
  6254  0D92  023C               	subwf	(??_CuaStart+2)+0,w
  6255  0D93  1D03               	skipz
  6256  0D94  2D97               	goto	u9555
  6257  0D95  083A               	movf	0+(??_CuaStart+0)+0,w
  6258  0D96  0243               	subwf	(CuaStart@k),w
  6259  0D97                     u9555:
  6260                           
  6261  0D97  1C03               	skipc
  6262  0D98  2D9A               	goto	u9551
  6263  0D99  2D9B               	goto	u9550
  6264  0D9A                     u9551:
  6265  0D9A  2D6D               	goto	l13358
  6266  0D9B                     u9550:
  6267                           	
  6268  0D9B                     l1395:	
  6269                           	line	763
  6270                           ;main.c: 761: }
  6271                           ;main.c: 763: RC6 = 1;
  6272  0D9B  1283               	bcf	status, 5	;RP0=0, select bank0
  6273  0D9C  1303               	bcf	status, 6	;RP1=0, select bank0
  6274  0D9D  1707               	bsf	(62/8),(62)&7
  6275                           	line	764
  6276                           	
  6277  0D9E                     l13368:	
  6278                           ;main.c: 764: maidao();
  6279  0D9E  160A  118A  2270   	fcall	_maidao
              120A  158A         
  6280                           	line	765
  6281                           ;main.c: 765: Delay(1);
  6282  0DA3  3001               	movlw	(01h)
  6283  0DA4  160A  158A  27AA   	fcall	_Delay
              120A  158A         
  6284                           	line	766
  6285                           	
  6286  0DA9                     l13370:	
  6287                           ;main.c: 766: RC6 = 0;
  6288  0DA9  1283               	bcf	status, 5	;RP0=0, select bank0
  6289  0DAA  1303               	bcf	status, 6	;RP1=0, select bank0
  6290  0DAB  1307               	bcf	(62/8),(62)&7
  6291                           	line	767
  6292                           ;main.c: 767: maidao();
  6293  0DAC  160A  118A  2270   	fcall	_maidao
              120A  158A         
  6294                           	line	769
  6295                           	
  6296  0DB1                     l13372:	
  6297                           ;main.c: 769: if (STOP == 1) {
  6298  0DB1  1283               	bcf	status, 5	;RP0=0, select bank0
  6299  0DB2  1303               	bcf	status, 6	;RP1=0, select bank0
  6300  0DB3  085C               	movf	(_STOP),w	;volatile
  6301  0DB4  3A01               	xorlw	01h
  6302  0DB5  1D03               	skipz
  6303  0DB6  2DB8               	goto	u9561
  6304  0DB7  2DB9               	goto	u9560
  6305  0DB8                     u9561:
  6306  0DB8  2DD8               	goto	l13382
  6307  0DB9                     u9560:
  6308                           	line	770
  6309                           	
  6310  0DB9                     l13374:	
  6311                           ;main.c: 770: RC6 = 0;
  6312  0DB9  1307               	bcf	(62/8),(62)&7
  6313                           	line	771
  6314                           ;main.c: 771: while (RB7 == 1) {
  6315  0DBA  2DD0               	goto	l13380
  6316                           	
  6317  0DBB                     l1398:	
  6318                           	line	772
  6319                           ;main.c: 772: RC5 = 1;
  6320  0DBB  1687               	bsf	(61/8),(61)&7
  6321                           	line	773
  6322                           	
  6323  0DBC                     l13376:	
  6324                           ;main.c: 773: _delay((unsigned long)((2500)*(8000000/4000000.0)));
  6325                           	opt asmopt_off
  6326  0DBC  3007               movlw	7
  6327  0DBD  00BB               movwf	((??_CuaStart+0)+0+1),f
  6328  0DBE  307D               	movlw	125
  6329  0DBF  00BA               movwf	((??_CuaStart+0)+0),f
  6330  0DC0                     u10697:
  6331  0DC0  0BBA               	decfsz	((??_CuaStart+0)+0),f
  6332  0DC1  2DC0               	goto	u10697
  6333  0DC2  0BBB               	decfsz	((??_CuaStart+0)+0+1),f
  6334  0DC3  2DC0               	goto	u10697
  6335                           opt asmopt_on
  6336                           
  6337                           	line	774
  6338                           	
  6339  0DC4                     l13378:	
  6340                           ;main.c: 774: RC5 = 0;
  6341  0DC4  1283               	bcf	status, 5	;RP0=0, select bank0
  6342  0DC5  1303               	bcf	status, 6	;RP1=0, select bank0
  6343  0DC6  1287               	bcf	(61/8),(61)&7
  6344                           	line	775
  6345                           ;main.c: 775: _delay((unsigned long)((2500)*(8000000/4000000.0)));
  6346                           	opt asmopt_off
  6347  0DC7  3007               movlw	7
  6348  0DC8  00BB               movwf	((??_CuaStart+0)+0+1),f
  6349  0DC9  307D               	movlw	125
  6350  0DCA  00BA               movwf	((??_CuaStart+0)+0),f
  6351  0DCB                     u10707:
  6352  0DCB  0BBA               	decfsz	((??_CuaStart+0)+0),f
  6353  0DCC  2DCB               	goto	u10707
  6354  0DCD  0BBB               	decfsz	((??_CuaStart+0)+0+1),f
  6355  0DCE  2DCB               	goto	u10707
  6356                           opt asmopt_on
  6357                           
  6358  0DCF  2DD0               	goto	l13380
  6359                           	line	776
  6360                           	
  6361  0DD0                     l1397:	
  6362                           	line	771
  6363                           	
  6364  0DD0                     l13380:	
  6365  0DD0  1283               	bcf	status, 5	;RP0=0, select bank0
  6366  0DD1  1303               	bcf	status, 6	;RP1=0, select bank0
  6367  0DD2  1B86               	btfsc	(55/8),(55)&7
  6368  0DD3  2DD5               	goto	u9571
  6369  0DD4  2DD6               	goto	u9570
  6370  0DD5                     u9571:
  6371  0DD5  2DBB               	goto	l1398
  6372  0DD6                     u9570:
  6373                           	
  6374  0DD6                     l1399:	
  6375                           	line	777
  6376                           ;main.c: 776: }
  6377                           ;main.c: 777: RB1 = 0;
  6378  0DD6  1086               	bcf	(49/8),(49)&7
  6379                           	line	778
  6380                           ;main.c: 778: break;
  6381  0DD7  2DEA               	goto	l13386
  6382                           	line	779
  6383                           	
  6384  0DD8                     l1396:	
  6385                           	line	742
  6386                           	
  6387  0DD8                     l13382:	
  6388  0DD8  3001               	movlw	(01h)
  6389  0DD9  00BA               	movwf	(??_CuaStart+0)+0
  6390  0DDA  083A               	movf	(??_CuaStart+0)+0,w
  6391  0DDB  1683               	bsf	status, 5	;RP0=1, select bank1
  6392  0DDC  1303               	bcf	status, 6	;RP1=0, select bank1
  6393  0DDD  07CB               	addwf	(_SoLan)^080h,f
  6394  0DDE  2DDF               	goto	l13384
  6395                           	
  6396  0DDF                     l1390:	
  6397                           	
  6398  0DDF                     l13384:	
  6399  0DDF  1283               	bcf	status, 5	;RP0=0, select bank0
  6400  0DE0  1303               	bcf	status, 6	;RP1=0, select bank0
  6401  0DE1  085B               	movf	(_LanMai),w
  6402  0DE2  1683               	bsf	status, 5	;RP0=1, select bank1
  6403  0DE3  1303               	bcf	status, 6	;RP1=0, select bank1
  6404  0DE4  024B               	subwf	(_SoLan)^080h,w
  6405  0DE5  1C03               	skipc
  6406  0DE6  2DE8               	goto	u9581
  6407  0DE7  2DE9               	goto	u9580
  6408  0DE8                     u9581:
  6409  0DE8  2D0A               	goto	l13342
  6410  0DE9                     u9580:
  6411  0DE9  2DEA               	goto	l13386
  6412                           	
  6413  0DEA                     l1400:	
  6414                           	line	781
  6415                           	
  6416  0DEA                     l13386:	
  6417                           ;main.c: 779: }
  6418                           ;main.c: 780: }
  6419                           ;main.c: 781: if (STOP == 1)
  6420  0DEA  1283               	bcf	status, 5	;RP0=0, select bank0
  6421  0DEB  085C               	movf	(_STOP),w	;volatile
  6422  0DEC  3A01               	xorlw	01h
  6423  0DED  1D03               	skipz
  6424  0DEE  2DF0               	goto	u9591
  6425  0DEF  2DF1               	goto	u9590
  6426  0DF0                     u9591:
  6427  0DF0  2DF3               	goto	l1401
  6428  0DF1                     u9590:
  6429  0DF1  2FE0               	goto	l1389
  6430                           	line	782
  6431                           	
  6432  0DF2                     l13388:	
  6433                           ;main.c: 782: break;
  6434  0DF2  2FE0               	goto	l1389
  6435                           	
  6436  0DF3                     l1401:	
  6437                           	line	784
  6438                           ;main.c: 784: RE2 = 0;
  6439  0DF3  1109               	bcf	(74/8),(74)&7
  6440                           	line	786
  6441                           ;main.c: 786: RC4 = 0;
  6442  0DF4  1207               	bcf	(60/8),(60)&7
  6443                           	line	787
  6444                           	
  6445  0DF5                     l13390:	
  6446                           ;main.c: 787: for (int k1 = 0; k1 < (biennho2 + 50) * 8; k1++)
  6447  0DF5  01C5               	clrf	(CuaStart@k1)
  6448  0DF6  01C6               	clrf	(CuaStart@k1+1)
  6449  0DF7  2E0E               	goto	l13400
  6450                           	line	788
  6451                           	
  6452  0DF8                     l1403:	
  6453                           	line	789
  6454                           	
  6455  0DF8                     l13392:	
  6456                           ;main.c: 788: {
  6457                           ;main.c: 789: MotorEpTruc();
  6458  0DF8  160A  158A  2645   	fcall	_MotorEpTruc
              120A  158A         
  6459                           	line	790
  6460                           	
  6461  0DFD                     l13394:	
  6462                           ;main.c: 790: if (STOP == 1)
  6463  0DFD  1283               	bcf	status, 5	;RP0=0, select bank0
  6464  0DFE  1303               	bcf	status, 6	;RP1=0, select bank0
  6465  0DFF  085C               	movf	(_STOP),w	;volatile
  6466  0E00  3A01               	xorlw	01h
  6467  0E01  1D03               	skipz
  6468  0E02  2E04               	goto	u9601
  6469  0E03  2E05               	goto	u9600
  6470  0E04                     u9601:
  6471  0E04  2E07               	goto	l13398
  6472  0E05                     u9600:
  6473  0E05  2E2F               	goto	l1405
  6474                           	line	791
  6475                           	
  6476  0E06                     l13396:	
  6477                           ;main.c: 791: break;
  6478  0E06  2E2F               	goto	l1405
  6479                           	
  6480  0E07                     l1404:	
  6481                           	line	787
  6482                           	
  6483  0E07                     l13398:	
  6484  0E07  3001               	movlw	low(01h)
  6485  0E08  07C5               	addwf	(CuaStart@k1),f
  6486  0E09  1803               	skipnc
  6487  0E0A  0AC6               	incf	(CuaStart@k1+1),f
  6488  0E0B  3000               	movlw	high(01h)
  6489  0E0C  07C6               	addwf	(CuaStart@k1+1),f
  6490  0E0D  2E0E               	goto	l13400
  6491                           	
  6492  0E0E                     l1402:	
  6493                           	
  6494  0E0E                     l13400:	
  6495  0E0E  0879               	movf	(_biennho2+1),w	;volatile
  6496  0E0F  00BB               	movwf	(??_CuaStart+0)+0+1
  6497  0E10  0878               	movf	(_biennho2),w	;volatile
  6498  0E11  00BA               	movwf	(??_CuaStart+0)+0
  6499  0E12  3003               	movlw	03h
  6500  0E13  00FF               	movwf	btemp+1
  6501  0E14                     u9615:
  6502  0E14  1003               	clrc
  6503  0E15  0DBA               	rlf	(??_CuaStart+0)+0,f
  6504  0E16  0DBB               	rlf	(??_CuaStart+0)+1,f
  6505  0E17  0BFF               	decfsz	btemp+1,f
  6506  0E18  2E14               	goto	u9615
  6507  0E19  083A               	movf	0+(??_CuaStart+0)+0,w
  6508  0E1A  3E90               	addlw	low(0190h)
  6509  0E1B  00BC               	movwf	(??_CuaStart+2)+0
  6510  0E1C  083B               	movf	1+(??_CuaStart+0)+0,w
  6511  0E1D  1803               	skipnc
  6512  0E1E  3E01               	addlw	1
  6513  0E1F  3E01               	addlw	high(0190h)
  6514  0E20  00BD               	movwf	1+(??_CuaStart+2)+0
  6515  0E21  0846               	movf	(CuaStart@k1+1),w
  6516  0E22  3A80               	xorlw	80h
  6517  0E23  00BE               	movwf	(??_CuaStart+4)+0
  6518  0E24  083D               	movf	1+(??_CuaStart+2)+0,w
  6519  0E25  3A80               	xorlw	80h
  6520  0E26  023E               	subwf	(??_CuaStart+4)+0,w
  6521  0E27  1D03               	skipz
  6522  0E28  2E2B               	goto	u9625
  6523  0E29  083C               	movf	0+(??_CuaStart+2)+0,w
  6524  0E2A  0245               	subwf	(CuaStart@k1),w
  6525  0E2B                     u9625:
  6526                           
  6527  0E2B  1C03               	skipc
  6528  0E2C  2E2E               	goto	u9621
  6529  0E2D  2E2F               	goto	u9620
  6530  0E2E                     u9621:
  6531  0E2E  2DF8               	goto	l13392
  6532  0E2F                     u9620:
  6533                           	
  6534  0E2F                     l1405:	
  6535                           	line	794
  6536                           ;main.c: 792: }
  6537                           ;main.c: 794: RC6 = 0;
  6538  0E2F  1283               	bcf	status, 5	;RP0=0, select bank0
  6539  0E30  1303               	bcf	status, 6	;RP1=0, select bank0
  6540  0E31  1307               	bcf	(62/8),(62)&7
  6541                           	line	795
  6542                           	
  6543  0E32                     l13402:	
  6544                           ;main.c: 795: for (int i = 0; i < pulse1; i++) {
  6545  0E32  01C7               	clrf	(CuaStart@i_2058)
  6546  0E33  01C8               	clrf	(CuaStart@i_2058+1)
  6547  0E34  2E67               	goto	l1406
  6548                           	
  6549  0E35                     l1407:	
  6550                           	line	796
  6551                           	
  6552  0E35                     l13404:	
  6553                           ;main.c: 796: motorX();
  6554  0E35  160A  158A  2613   	fcall	_motorX
              120A  158A         
  6555                           	line	797
  6556                           	
  6557  0E3A                     l13406:	
  6558                           ;main.c: 797: if (STOP == 1) {
  6559  0E3A  1283               	bcf	status, 5	;RP0=0, select bank0
  6560  0E3B  1303               	bcf	status, 6	;RP1=0, select bank0
  6561  0E3C  085C               	movf	(_STOP),w	;volatile
  6562  0E3D  3A01               	xorlw	01h
  6563  0E3E  1D03               	skipz
  6564  0E3F  2E41               	goto	u9631
  6565  0E40  2E42               	goto	u9630
  6566  0E41                     u9631:
  6567  0E41  2E61               	goto	l13416
  6568  0E42                     u9630:
  6569                           	line	798
  6570                           	
  6571  0E42                     l13408:	
  6572                           ;main.c: 798: RC6 = 0;
  6573  0E42  1307               	bcf	(62/8),(62)&7
  6574                           	line	799
  6575                           ;main.c: 799: while (RB7 == 1) {
  6576  0E43  2E59               	goto	l13414
  6577                           	
  6578  0E44                     l1410:	
  6579                           	line	800
  6580                           ;main.c: 800: RC5 = 1;
  6581  0E44  1687               	bsf	(61/8),(61)&7
  6582                           	line	801
  6583                           	
  6584  0E45                     l13410:	
  6585                           ;main.c: 801: _delay((unsigned long)((2500)*(8000000/4000000.0)));
  6586                           	opt asmopt_off
  6587  0E45  3007               movlw	7
  6588  0E46  00BB               movwf	((??_CuaStart+0)+0+1),f
  6589  0E47  307D               	movlw	125
  6590  0E48  00BA               movwf	((??_CuaStart+0)+0),f
  6591  0E49                     u10717:
  6592  0E49  0BBA               	decfsz	((??_CuaStart+0)+0),f
  6593  0E4A  2E49               	goto	u10717
  6594  0E4B  0BBB               	decfsz	((??_CuaStart+0)+0+1),f
  6595  0E4C  2E49               	goto	u10717
  6596                           opt asmopt_on
  6597                           
  6598                           	line	802
  6599                           	
  6600  0E4D                     l13412:	
  6601                           ;main.c: 802: RC5 = 0;
  6602  0E4D  1283               	bcf	status, 5	;RP0=0, select bank0
  6603  0E4E  1303               	bcf	status, 6	;RP1=0, select bank0
  6604  0E4F  1287               	bcf	(61/8),(61)&7
  6605                           	line	803
  6606                           ;main.c: 803: _delay((unsigned long)((2500)*(8000000/4000000.0)));
  6607                           	opt asmopt_off
  6608  0E50  3007               movlw	7
  6609  0E51  00BB               movwf	((??_CuaStart+0)+0+1),f
  6610  0E52  307D               	movlw	125
  6611  0E53  00BA               movwf	((??_CuaStart+0)+0),f
  6612  0E54                     u10727:
  6613  0E54  0BBA               	decfsz	((??_CuaStart+0)+0),f
  6614  0E55  2E54               	goto	u10727
  6615  0E56  0BBB               	decfsz	((??_CuaStart+0)+0+1),f
  6616  0E57  2E54               	goto	u10727
  6617                           opt asmopt_on
  6618                           
  6619  0E58  2E59               	goto	l13414
  6620                           	line	804
  6621                           	
  6622  0E59                     l1409:	
  6623                           	line	799
  6624                           	
  6625  0E59                     l13414:	
  6626  0E59  1283               	bcf	status, 5	;RP0=0, select bank0
  6627  0E5A  1303               	bcf	status, 6	;RP1=0, select bank0
  6628  0E5B  1B86               	btfsc	(55/8),(55)&7
  6629  0E5C  2E5E               	goto	u9641
  6630  0E5D  2E5F               	goto	u9640
  6631  0E5E                     u9641:
  6632  0E5E  2E44               	goto	l1410
  6633  0E5F                     u9640:
  6634                           	
  6635  0E5F                     l1411:	
  6636                           	line	805
  6637                           ;main.c: 804: }
  6638                           ;main.c: 805: RB1 = 0;
  6639  0E5F  1086               	bcf	(49/8),(49)&7
  6640                           	line	806
  6641                           ;main.c: 806: break;
  6642  0E60  2E76               	goto	l13418
  6643                           	line	807
  6644                           	
  6645  0E61                     l1408:	
  6646                           	line	795
  6647                           	
  6648  0E61                     l13416:	
  6649  0E61  3001               	movlw	low(01h)
  6650  0E62  07C7               	addwf	(CuaStart@i_2058),f
  6651  0E63  1803               	skipnc
  6652  0E64  0AC8               	incf	(CuaStart@i_2058+1),f
  6653  0E65  3000               	movlw	high(01h)
  6654  0E66  07C8               	addwf	(CuaStart@i_2058+1),f
  6655                           	
  6656  0E67                     l1406:	
  6657  0E67  0848               	movf	(CuaStart@i_2058+1),w
  6658  0E68  3A80               	xorlw	80h
  6659  0E69  00BA               	movwf	(??_CuaStart+0)+0
  6660  0E6A  0856               	movf	(CuaStart@pulse1+1),w
  6661  0E6B  3A80               	xorlw	80h
  6662  0E6C  023A               	subwf	(??_CuaStart+0)+0,w
  6663  0E6D  1D03               	skipz
  6664  0E6E  2E71               	goto	u9655
  6665  0E6F  0855               	movf	(CuaStart@pulse1),w
  6666  0E70  0247               	subwf	(CuaStart@i_2058),w
  6667  0E71                     u9655:
  6668                           
  6669  0E71  1C03               	skipc
  6670  0E72  2E74               	goto	u9651
  6671  0E73  2E75               	goto	u9650
  6672  0E74                     u9651:
  6673  0E74  2E35               	goto	l13404
  6674  0E75                     u9650:
  6675  0E75  2E76               	goto	l13418
  6676                           	
  6677  0E76                     l1412:	
  6678                           	line	809
  6679                           	
  6680  0E76                     l13418:	
  6681                           ;main.c: 807: }
  6682                           ;main.c: 808: }
  6683                           ;main.c: 809: if (STOP == 1)
  6684  0E76  1283               	bcf	status, 5	;RP0=0, select bank0
  6685  0E77  1303               	bcf	status, 6	;RP1=0, select bank0
  6686  0E78  085C               	movf	(_STOP),w	;volatile
  6687  0E79  3A01               	xorlw	01h
  6688  0E7A  1D03               	skipz
  6689  0E7B  2E7D               	goto	u9661
  6690  0E7C  2E7E               	goto	u9660
  6691  0E7D                     u9661:
  6692  0E7D  2E80               	goto	l13422
  6693  0E7E                     u9660:
  6694  0E7E  2FE0               	goto	l1389
  6695                           	line	810
  6696                           	
  6697  0E7F                     l13420:	
  6698                           ;main.c: 810: break;
  6699  0E7F  2FE0               	goto	l1389
  6700                           	
  6701  0E80                     l1413:	
  6702                           	line	812
  6703                           	
  6704  0E80                     l13422:	
  6705                           ;main.c: 812: for (int i1 = 0; i1 < pulse3; i1++) {
  6706  0E80  01C9               	clrf	(CuaStart@i1)
  6707  0E81  01CA               	clrf	(CuaStart@i1+1)
  6708  0E82  2E98               	goto	l1414
  6709                           	
  6710  0E83                     l1415:	
  6711                           	line	813
  6712                           	
  6713  0E83                     l13424:	
  6714                           ;main.c: 813: motorY();
  6715  0E83  160A  158A  262C   	fcall	_motorY
              120A  158A         
  6716                           	line	814
  6717                           	
  6718  0E88                     l13426:	
  6719                           ;main.c: 814: if (STOP == 1)
  6720  0E88  1283               	bcf	status, 5	;RP0=0, select bank0
  6721  0E89  1303               	bcf	status, 6	;RP1=0, select bank0
  6722  0E8A  085C               	movf	(_STOP),w	;volatile
  6723  0E8B  3A01               	xorlw	01h
  6724  0E8C  1D03               	skipz
  6725  0E8D  2E8F               	goto	u9671
  6726  0E8E  2E90               	goto	u9670
  6727  0E8F                     u9671:
  6728  0E8F  2E92               	goto	l13430
  6729  0E90                     u9670:
  6730  0E90  2EA7               	goto	l13432
  6731                           	line	815
  6732                           	
  6733  0E91                     l13428:	
  6734                           ;main.c: 815: break;
  6735  0E91  2EA7               	goto	l13432
  6736                           	
  6737  0E92                     l1416:	
  6738                           	line	812
  6739                           	
  6740  0E92                     l13430:	
  6741  0E92  3001               	movlw	low(01h)
  6742  0E93  07C9               	addwf	(CuaStart@i1),f
  6743  0E94  1803               	skipnc
  6744  0E95  0ACA               	incf	(CuaStart@i1+1),f
  6745  0E96  3000               	movlw	high(01h)
  6746  0E97  07CA               	addwf	(CuaStart@i1+1),f
  6747                           	
  6748  0E98                     l1414:	
  6749  0E98  084A               	movf	(CuaStart@i1+1),w
  6750  0E99  3A80               	xorlw	80h
  6751  0E9A  00BA               	movwf	(??_CuaStart+0)+0
  6752  0E9B  0850               	movf	(CuaStart@pulse3+1),w
  6753  0E9C  3A80               	xorlw	80h
  6754  0E9D  023A               	subwf	(??_CuaStart+0)+0,w
  6755  0E9E  1D03               	skipz
  6756  0E9F  2EA2               	goto	u9685
  6757  0EA0  084F               	movf	(CuaStart@pulse3),w
  6758  0EA1  0249               	subwf	(CuaStart@i1),w
  6759  0EA2                     u9685:
  6760                           
  6761  0EA2  1C03               	skipc
  6762  0EA3  2EA5               	goto	u9681
  6763  0EA4  2EA6               	goto	u9680
  6764  0EA5                     u9681:
  6765  0EA5  2E83               	goto	l13424
  6766  0EA6                     u9680:
  6767  0EA6  2EA7               	goto	l13432
  6768                           	
  6769  0EA7                     l1417:	
  6770                           	line	819
  6771                           	
  6772  0EA7                     l13432:	
  6773                           ;main.c: 816: }
  6774                           ;main.c: 819: chuyenluoi();
  6775  0EA7  160A  118A  21D9   	fcall	_chuyenluoi
              120A  158A         
  6776                           	line	820
  6777                           	
  6778  0EAC                     l13434:	
  6779                           ;main.c: 820: if (STOP == 1) {
  6780  0EAC  1283               	bcf	status, 5	;RP0=0, select bank0
  6781  0EAD  1303               	bcf	status, 6	;RP1=0, select bank0
  6782  0EAE  085C               	movf	(_STOP),w	;volatile
  6783  0EAF  3A01               	xorlw	01h
  6784  0EB0  1D03               	skipz
  6785  0EB1  2EB3               	goto	u9691
  6786  0EB2  2EB4               	goto	u9690
  6787  0EB3                     u9691:
  6788  0EB3  2ED3               	goto	l13444
  6789  0EB4                     u9690:
  6790                           	line	821
  6791                           	
  6792  0EB4                     l13436:	
  6793                           ;main.c: 821: RC6 = 0;
  6794  0EB4  1307               	bcf	(62/8),(62)&7
  6795                           	line	822
  6796                           ;main.c: 822: while (RB7 == 1) {
  6797  0EB5  2ECB               	goto	l13442
  6798                           	
  6799  0EB6                     l1420:	
  6800                           	line	823
  6801                           ;main.c: 823: RC5 = 1;
  6802  0EB6  1687               	bsf	(61/8),(61)&7
  6803                           	line	824
  6804                           	
  6805  0EB7                     l13438:	
  6806                           ;main.c: 824: _delay((unsigned long)((2500)*(8000000/4000000.0)));
  6807                           	opt asmopt_off
  6808  0EB7  3007               movlw	7
  6809  0EB8  00BB               movwf	((??_CuaStart+0)+0+1),f
  6810  0EB9  307D               	movlw	125
  6811  0EBA  00BA               movwf	((??_CuaStart+0)+0),f
  6812  0EBB                     u10737:
  6813  0EBB  0BBA               	decfsz	((??_CuaStart+0)+0),f
  6814  0EBC  2EBB               	goto	u10737
  6815  0EBD  0BBB               	decfsz	((??_CuaStart+0)+0+1),f
  6816  0EBE  2EBB               	goto	u10737
  6817                           opt asmopt_on
  6818                           
  6819                           	line	825
  6820                           	
  6821  0EBF                     l13440:	
  6822                           ;main.c: 825: RC5 = 0;
  6823  0EBF  1283               	bcf	status, 5	;RP0=0, select bank0
  6824  0EC0  1303               	bcf	status, 6	;RP1=0, select bank0
  6825  0EC1  1287               	bcf	(61/8),(61)&7
  6826                           	line	826
  6827                           ;main.c: 826: _delay((unsigned long)((2500)*(8000000/4000000.0)));
  6828                           	opt asmopt_off
  6829  0EC2  3007               movlw	7
  6830  0EC3  00BB               movwf	((??_CuaStart+0)+0+1),f
  6831  0EC4  307D               	movlw	125
  6832  0EC5  00BA               movwf	((??_CuaStart+0)+0),f
  6833  0EC6                     u10747:
  6834  0EC6  0BBA               	decfsz	((??_CuaStart+0)+0),f
  6835  0EC7  2EC6               	goto	u10747
  6836  0EC8  0BBB               	decfsz	((??_CuaStart+0)+0+1),f
  6837  0EC9  2EC6               	goto	u10747
  6838                           opt asmopt_on
  6839                           
  6840  0ECA  2ECB               	goto	l13442
  6841                           	line	827
  6842                           	
  6843  0ECB                     l1419:	
  6844                           	line	822
  6845                           	
  6846  0ECB                     l13442:	
  6847  0ECB  1283               	bcf	status, 5	;RP0=0, select bank0
  6848  0ECC  1303               	bcf	status, 6	;RP1=0, select bank0
  6849  0ECD  1B86               	btfsc	(55/8),(55)&7
  6850  0ECE  2ED0               	goto	u9701
  6851  0ECF  2ED1               	goto	u9700
  6852  0ED0                     u9701:
  6853  0ED0  2EB6               	goto	l1420
  6854  0ED1                     u9700:
  6855                           	
  6856  0ED1                     l1421:	
  6857                           	line	828
  6858                           ;main.c: 827: }
  6859                           ;main.c: 828: RB1 = 0;
  6860  0ED1  1086               	bcf	(49/8),(49)&7
  6861                           	line	829
  6862                           ;main.c: 829: break;
  6863  0ED2  2FE0               	goto	l1389
  6864                           	line	830
  6865                           	
  6866  0ED3                     l1418:	
  6867                           	line	831
  6868                           	
  6869  0ED3                     l13444:	
  6870                           ;main.c: 830: }
  6871                           ;main.c: 831: Luoi++;
  6872  0ED3  3001               	movlw	(01h)
  6873  0ED4  00BA               	movwf	(??_CuaStart+0)+0
  6874  0ED5  083A               	movf	(??_CuaStart+0)+0,w
  6875  0ED6  1683               	bsf	status, 5	;RP0=1, select bank1
  6876  0ED7  1303               	bcf	status, 6	;RP1=0, select bank1
  6877  0ED8  07C8               	addwf	(_Luoi)^080h,f
  6878                           	line	833
  6879                           	
  6880  0ED9                     l13446:	
  6881                           ;main.c: 833: RC6 = 1;
  6882  0ED9  1283               	bcf	status, 5	;RP0=0, select bank0
  6883  0EDA  1303               	bcf	status, 6	;RP1=0, select bank0
  6884  0EDB  1707               	bsf	(62/8),(62)&7
  6885                           	line	834
  6886                           	
  6887  0EDC                     l13448:	
  6888                           ;main.c: 834: RC4 = 1;
  6889  0EDC  1607               	bsf	(60/8),(60)&7
  6890                           	line	836
  6891                           	
  6892  0EDD                     l13450:	
  6893                           ;main.c: 836: SLMaiTho = 0;
  6894  0EDD  1683               	bsf	status, 5	;RP0=1, select bank1
  6895  0EDE  1303               	bcf	status, 6	;RP1=0, select bank1
  6896  0EDF  01CA               	clrf	(_SLMaiTho)^080h
  6897                           	line	837
  6898                           	
  6899  0EE0                     l13452:	
  6900                           ;main.c: 837: biennho2 = 0;
  6901  0EE0  01F8               	clrf	(_biennho2)	;volatile
  6902  0EE1  01F9               	clrf	(_biennho2+1)	;volatile
  6903                           	line	838
  6904                           	
  6905  0EE2                     l13454:	
  6906                           ;main.c: 838: RE2 = 1;
  6907  0EE2  1283               	bcf	status, 5	;RP0=0, select bank0
  6908  0EE3  1303               	bcf	status, 6	;RP1=0, select bank0
  6909  0EE4  1509               	bsf	(74/8),(74)&7
  6910                           	line	840
  6911                           	
  6912  0EE5                     l13456:	
  6913                           ;main.c: 840: for (int i2 = 0; i2 < pulse3; i2++) {
  6914  0EE5  01CB               	clrf	(CuaStart@i2)
  6915  0EE6  01CC               	clrf	(CuaStart@i2+1)
  6916  0EE7  2EFD               	goto	l1422
  6917                           	
  6918  0EE8                     l1423:	
  6919                           	line	841
  6920                           	
  6921  0EE8                     l13458:	
  6922                           ;main.c: 841: motorY();
  6923  0EE8  160A  158A  262C   	fcall	_motorY
              120A  158A         
  6924                           	line	842
  6925                           	
  6926  0EED                     l13460:	
  6927                           ;main.c: 842: if (STOP == 1)
  6928  0EED  1283               	bcf	status, 5	;RP0=0, select bank0
  6929  0EEE  1303               	bcf	status, 6	;RP1=0, select bank0
  6930  0EEF  085C               	movf	(_STOP),w	;volatile
  6931  0EF0  3A01               	xorlw	01h
  6932  0EF1  1D03               	skipz
  6933  0EF2  2EF4               	goto	u9711
  6934  0EF3  2EF5               	goto	u9710
  6935  0EF4                     u9711:
  6936  0EF4  2EF7               	goto	l13464
  6937  0EF5                     u9710:
  6938  0EF5  2F0C               	goto	l13466
  6939                           	line	843
  6940                           	
  6941  0EF6                     l13462:	
  6942                           ;main.c: 843: break;
  6943  0EF6  2F0C               	goto	l13466
  6944                           	
  6945  0EF7                     l1424:	
  6946                           	line	840
  6947                           	
  6948  0EF7                     l13464:	
  6949  0EF7  3001               	movlw	low(01h)
  6950  0EF8  07CB               	addwf	(CuaStart@i2),f
  6951  0EF9  1803               	skipnc
  6952  0EFA  0ACC               	incf	(CuaStart@i2+1),f
  6953  0EFB  3000               	movlw	high(01h)
  6954  0EFC  07CC               	addwf	(CuaStart@i2+1),f
  6955                           	
  6956  0EFD                     l1422:	
  6957  0EFD  084C               	movf	(CuaStart@i2+1),w
  6958  0EFE  3A80               	xorlw	80h
  6959  0EFF  00BA               	movwf	(??_CuaStart+0)+0
  6960  0F00  0850               	movf	(CuaStart@pulse3+1),w
  6961  0F01  3A80               	xorlw	80h
  6962  0F02  023A               	subwf	(??_CuaStart+0)+0,w
  6963  0F03  1D03               	skipz
  6964  0F04  2F07               	goto	u9725
  6965  0F05  084F               	movf	(CuaStart@pulse3),w
  6966  0F06  024B               	subwf	(CuaStart@i2),w
  6967  0F07                     u9725:
  6968                           
  6969  0F07  1C03               	skipc
  6970  0F08  2F0A               	goto	u9721
  6971  0F09  2F0B               	goto	u9720
  6972  0F0A                     u9721:
  6973  0F0A  2EE8               	goto	l13458
  6974  0F0B                     u9720:
  6975  0F0B  2F0C               	goto	l13466
  6976                           	
  6977  0F0C                     l1425:	
  6978                           	line	845
  6979                           	
  6980  0F0C                     l13466:	
  6981                           ;main.c: 844: }
  6982                           ;main.c: 845: if (demdao < (SoLuoi - 1)) {
  6983  0F0C  1283               	bcf	status, 5	;RP0=0, select bank0
  6984  0F0D  1303               	bcf	status, 6	;RP1=0, select bank0
  6985  0F0E  085D               	movf	(_SoLuoi),w
  6986  0F0F  3EFF               	addlw	low(-1)
  6987  0F10  00BA               	movwf	(??_CuaStart+0)+0
  6988  0F11  30FF               	movlw	high(-1)
  6989  0F12  1803               	skipnc
  6990  0F13  3000               	movlw	(high(-1)+1)&0ffh
  6991  0F14  00BB               	movwf	((??_CuaStart+0)+0)+1
  6992  0F15  083B               	movf	1+(??_CuaStart+0)+0,w
  6993  0F16  3A80               	xorlw	80h
  6994  0F17  3C80               	sublw	080h
  6995  0F18  1D03               	skipz
  6996  0F19  2F1E               	goto	u9735
  6997  0F1A  083A               	movf	0+(??_CuaStart+0)+0,w
  6998  0F1B  1683               	bsf	status, 5	;RP0=1, select bank1
  6999  0F1C  1303               	bcf	status, 6	;RP1=0, select bank1
  7000  0F1D  0251               	subwf	(_demdao)^080h,w	;volatile
  7001  0F1E                     u9735:
  7002                           
  7003  0F1E  1803               	skipnc
  7004  0F1F  2F21               	goto	u9731
  7005  0F20  2F22               	goto	u9730
  7006  0F21                     u9731:
  7007  0F21  2F71               	goto	l13486
  7008  0F22                     u9730:
  7009                           	line	846
  7010                           	
  7011  0F22                     l13468:	
  7012                           ;main.c: 846: for (int i = 0; i < pulse1; i++) {
  7013  0F22  1283               	bcf	status, 5	;RP0=0, select bank0
  7014  0F23  1303               	bcf	status, 6	;RP1=0, select bank0
  7015  0F24  01CD               	clrf	(CuaStart@i_2061)
  7016  0F25  01CE               	clrf	(CuaStart@i_2061+1)
  7017  0F26  2F59               	goto	l1427
  7018                           	
  7019  0F27                     l1428:	
  7020                           	line	847
  7021                           	
  7022  0F27                     l13470:	
  7023                           ;main.c: 847: motorX();
  7024  0F27  160A  158A  2613   	fcall	_motorX
              120A  158A         
  7025                           	line	848
  7026                           	
  7027  0F2C                     l13472:	
  7028                           ;main.c: 848: if (STOP == 1) {
  7029  0F2C  1283               	bcf	status, 5	;RP0=0, select bank0
  7030  0F2D  1303               	bcf	status, 6	;RP1=0, select bank0
  7031  0F2E  085C               	movf	(_STOP),w	;volatile
  7032  0F2F  3A01               	xorlw	01h
  7033  0F30  1D03               	skipz
  7034  0F31  2F33               	goto	u9741
  7035  0F32  2F34               	goto	u9740
  7036  0F33                     u9741:
  7037  0F33  2F53               	goto	l13482
  7038  0F34                     u9740:
  7039                           	line	849
  7040                           	
  7041  0F34                     l13474:	
  7042                           ;main.c: 849: RC6 = 0;
  7043  0F34  1307               	bcf	(62/8),(62)&7
  7044                           	line	850
  7045                           ;main.c: 850: while (RB7 == 1) {
  7046  0F35  2F4B               	goto	l13480
  7047                           	
  7048  0F36                     l1431:	
  7049                           	line	851
  7050                           ;main.c: 851: RC5 = 1;
  7051  0F36  1687               	bsf	(61/8),(61)&7
  7052                           	line	852
  7053                           	
  7054  0F37                     l13476:	
  7055                           ;main.c: 852: _delay((unsigned long)((2500)*(8000000/4000000.0)));
  7056                           	opt asmopt_off
  7057  0F37  3007               movlw	7
  7058  0F38  00BB               movwf	((??_CuaStart+0)+0+1),f
  7059  0F39  307D               	movlw	125
  7060  0F3A  00BA               movwf	((??_CuaStart+0)+0),f
  7061  0F3B                     u10757:
  7062  0F3B  0BBA               	decfsz	((??_CuaStart+0)+0),f
  7063  0F3C  2F3B               	goto	u10757
  7064  0F3D  0BBB               	decfsz	((??_CuaStart+0)+0+1),f
  7065  0F3E  2F3B               	goto	u10757
  7066                           opt asmopt_on
  7067                           
  7068                           	line	853
  7069                           	
  7070  0F3F                     l13478:	
  7071                           ;main.c: 853: RC5 = 0;
  7072  0F3F  1283               	bcf	status, 5	;RP0=0, select bank0
  7073  0F40  1303               	bcf	status, 6	;RP1=0, select bank0
  7074  0F41  1287               	bcf	(61/8),(61)&7
  7075                           	line	854
  7076                           ;main.c: 854: _delay((unsigned long)((2500)*(8000000/4000000.0)));
  7077                           	opt asmopt_off
  7078  0F42  3007               movlw	7
  7079  0F43  00BB               movwf	((??_CuaStart+0)+0+1),f
  7080  0F44  307D               	movlw	125
  7081  0F45  00BA               movwf	((??_CuaStart+0)+0),f
  7082  0F46                     u10767:
  7083  0F46  0BBA               	decfsz	((??_CuaStart+0)+0),f
  7084  0F47  2F46               	goto	u10767
  7085  0F48  0BBB               	decfsz	((??_CuaStart+0)+0+1),f
  7086  0F49  2F46               	goto	u10767
  7087                           opt asmopt_on
  7088                           
  7089  0F4A  2F4B               	goto	l13480
  7090                           	line	855
  7091                           	
  7092  0F4B                     l1430:	
  7093                           	line	850
  7094                           	
  7095  0F4B                     l13480:	
  7096  0F4B  1283               	bcf	status, 5	;RP0=0, select bank0
  7097  0F4C  1303               	bcf	status, 6	;RP1=0, select bank0
  7098  0F4D  1B86               	btfsc	(55/8),(55)&7
  7099  0F4E  2F50               	goto	u9751
  7100  0F4F  2F51               	goto	u9750
  7101  0F50                     u9751:
  7102  0F50  2F36               	goto	l1431
  7103  0F51                     u9750:
  7104                           	
  7105  0F51                     l1432:	
  7106                           	line	856
  7107                           ;main.c: 855: }
  7108                           ;main.c: 856: RB1 = 0;
  7109  0F51  1086               	bcf	(49/8),(49)&7
  7110                           	line	857
  7111                           ;main.c: 857: break;
  7112  0F52  2F68               	goto	l13484
  7113                           	line	858
  7114                           	
  7115  0F53                     l1429:	
  7116                           	line	846
  7117                           	
  7118  0F53                     l13482:	
  7119  0F53  3001               	movlw	low(01h)
  7120  0F54  07CD               	addwf	(CuaStart@i_2061),f
  7121  0F55  1803               	skipnc
  7122  0F56  0ACE               	incf	(CuaStart@i_2061+1),f
  7123  0F57  3000               	movlw	high(01h)
  7124  0F58  07CE               	addwf	(CuaStart@i_2061+1),f
  7125                           	
  7126  0F59                     l1427:	
  7127  0F59  084E               	movf	(CuaStart@i_2061+1),w
  7128  0F5A  3A80               	xorlw	80h
  7129  0F5B  00BA               	movwf	(??_CuaStart+0)+0
  7130  0F5C  0856               	movf	(CuaStart@pulse1+1),w
  7131  0F5D  3A80               	xorlw	80h
  7132  0F5E  023A               	subwf	(??_CuaStart+0)+0,w
  7133  0F5F  1D03               	skipz
  7134  0F60  2F63               	goto	u9765
  7135  0F61  0855               	movf	(CuaStart@pulse1),w
  7136  0F62  024D               	subwf	(CuaStart@i_2061),w
  7137  0F63                     u9765:
  7138                           
  7139  0F63  1C03               	skipc
  7140  0F64  2F66               	goto	u9761
  7141  0F65  2F67               	goto	u9760
  7142  0F66                     u9761:
  7143  0F66  2F27               	goto	l13470
  7144  0F67                     u9760:
  7145  0F67  2F68               	goto	l13484
  7146                           	
  7147  0F68                     l1433:	
  7148                           	line	860
  7149                           	
  7150  0F68                     l13484:	
  7151                           ;main.c: 858: }
  7152                           ;main.c: 859: }
  7153                           ;main.c: 860: demdao++;
  7154  0F68  3001               	movlw	(01h)
  7155  0F69  1283               	bcf	status, 5	;RP0=0, select bank0
  7156  0F6A  1303               	bcf	status, 6	;RP1=0, select bank0
  7157  0F6B  00BA               	movwf	(??_CuaStart+0)+0
  7158  0F6C  083A               	movf	(??_CuaStart+0)+0,w
  7159  0F6D  1683               	bsf	status, 5	;RP0=1, select bank1
  7160  0F6E  1303               	bcf	status, 6	;RP1=0, select bank1
  7161  0F6F  07D1               	addwf	(_demdao)^080h,f	;volatile
  7162  0F70  2F71               	goto	l13486
  7163                           	line	861
  7164                           	
  7165  0F71                     l1426:	
  7166                           	line	862
  7167                           	
  7168  0F71                     l13486:	
  7169                           ;main.c: 861: }
  7170                           ;main.c: 862: RC4 = 1;
  7171  0F71  1283               	bcf	status, 5	;RP0=0, select bank0
  7172  0F72  1303               	bcf	status, 6	;RP1=0, select bank0
  7173  0F73  1607               	bsf	(60/8),(60)&7
  7174                           	line	863
  7175                           	
  7176  0F74                     l13488:	
  7177                           ;main.c: 863: for (int i = 0; i < 50 * 8; i++) {
  7178  0F74  01D3               	clrf	(CuaStart@i_2062)
  7179  0F75  01D4               	clrf	(CuaStart@i_2062+1)
  7180                           	
  7181  0F76                     l13490:	
  7182  0F76  0854               	movf	(CuaStart@i_2062+1),w
  7183  0F77  3A80               	xorlw	80h
  7184  0F78  00FF               	movwf	btemp+1
  7185  0F79  3081               	movlw	(high(0190h))^80h
  7186  0F7A  027F               	subwf	btemp+1,w
  7187  0F7B  1D03               	skipz
  7188  0F7C  2F7F               	goto	u9775
  7189  0F7D  3090               	movlw	low(0190h)
  7190  0F7E  0253               	subwf	(CuaStart@i_2062),w
  7191  0F7F                     u9775:
  7192                           
  7193  0F7F  1C03               	skipc
  7194  0F80  2F82               	goto	u9771
  7195  0F81  2F83               	goto	u9770
  7196  0F82                     u9771:
  7197  0F82  2F85               	goto	l13494
  7198  0F83                     u9770:
  7199  0F83  2FC5               	goto	l13510
  7200                           	
  7201  0F84                     l13492:	
  7202  0F84  2FC5               	goto	l13510
  7203                           	
  7204  0F85                     l1434:	
  7205                           	line	864
  7206                           	
  7207  0F85                     l13494:	
  7208                           ;main.c: 864: MotorEpTruc();
  7209  0F85  160A  158A  2645   	fcall	_MotorEpTruc
              120A  158A         
  7210                           	line	865
  7211                           	
  7212  0F8A                     l13496:	
  7213                           ;main.c: 865: if (STOP == 1) {
  7214  0F8A  1283               	bcf	status, 5	;RP0=0, select bank0
  7215  0F8B  1303               	bcf	status, 6	;RP1=0, select bank0
  7216  0F8C  085C               	movf	(_STOP),w	;volatile
  7217  0F8D  3A01               	xorlw	01h
  7218  0F8E  1D03               	skipz
  7219  0F8F  2F91               	goto	u9781
  7220  0F90  2F92               	goto	u9780
  7221  0F91                     u9781:
  7222  0F91  2FB1               	goto	l13506
  7223  0F92                     u9780:
  7224                           	line	866
  7225                           	
  7226  0F92                     l13498:	
  7227                           ;main.c: 866: RC6 = 0;
  7228  0F92  1307               	bcf	(62/8),(62)&7
  7229                           	line	867
  7230                           ;main.c: 867: while (RB7 == 1) {
  7231  0F93  2FA9               	goto	l13504
  7232                           	
  7233  0F94                     l1438:	
  7234                           	line	868
  7235                           ;main.c: 868: RC5 = 1;
  7236  0F94  1687               	bsf	(61/8),(61)&7
  7237                           	line	869
  7238                           	
  7239  0F95                     l13500:	
  7240                           ;main.c: 869: _delay((unsigned long)((2500)*(8000000/4000000.0)));
  7241                           	opt asmopt_off
  7242  0F95  3007               movlw	7
  7243  0F96  00BB               movwf	((??_CuaStart+0)+0+1),f
  7244  0F97  307D               	movlw	125
  7245  0F98  00BA               movwf	((??_CuaStart+0)+0),f
  7246  0F99                     u10777:
  7247  0F99  0BBA               	decfsz	((??_CuaStart+0)+0),f
  7248  0F9A  2F99               	goto	u10777
  7249  0F9B  0BBB               	decfsz	((??_CuaStart+0)+0+1),f
  7250  0F9C  2F99               	goto	u10777
  7251                           opt asmopt_on
  7252                           
  7253                           	line	870
  7254                           	
  7255  0F9D                     l13502:	
  7256                           ;main.c: 870: RC5 = 0;
  7257  0F9D  1283               	bcf	status, 5	;RP0=0, select bank0
  7258  0F9E  1303               	bcf	status, 6	;RP1=0, select bank0
  7259  0F9F  1287               	bcf	(61/8),(61)&7
  7260                           	line	871
  7261                           ;main.c: 871: _delay((unsigned long)((2500)*(8000000/4000000.0)));
  7262                           	opt asmopt_off
  7263  0FA0  3007               movlw	7
  7264  0FA1  00BB               movwf	((??_CuaStart+0)+0+1),f
  7265  0FA2  307D               	movlw	125
  7266  0FA3  00BA               movwf	((??_CuaStart+0)+0),f
  7267  0FA4                     u10787:
  7268  0FA4  0BBA               	decfsz	((??_CuaStart+0)+0),f
  7269  0FA5  2FA4               	goto	u10787
  7270  0FA6  0BBB               	decfsz	((??_CuaStart+0)+0+1),f
  7271  0FA7  2FA4               	goto	u10787
  7272                           opt asmopt_on
  7273                           
  7274  0FA8  2FA9               	goto	l13504
  7275                           	line	872
  7276                           	
  7277  0FA9                     l1437:	
  7278                           	line	867
  7279                           	
  7280  0FA9                     l13504:	
  7281  0FA9  1283               	bcf	status, 5	;RP0=0, select bank0
  7282  0FAA  1303               	bcf	status, 6	;RP1=0, select bank0
  7283  0FAB  1B86               	btfsc	(55/8),(55)&7
  7284  0FAC  2FAE               	goto	u9791
  7285  0FAD  2FAF               	goto	u9790
  7286  0FAE                     u9791:
  7287  0FAE  2F94               	goto	l1438
  7288  0FAF                     u9790:
  7289                           	
  7290  0FAF                     l1439:	
  7291                           	line	873
  7292                           ;main.c: 872: }
  7293                           ;main.c: 873: RB1 = 0;
  7294  0FAF  1086               	bcf	(49/8),(49)&7
  7295                           	line	874
  7296                           ;main.c: 874: break;
  7297  0FB0  2FC5               	goto	l13510
  7298                           	line	875
  7299                           	
  7300  0FB1                     l1436:	
  7301                           	line	863
  7302                           	
  7303  0FB1                     l13506:	
  7304  0FB1  3001               	movlw	low(01h)
  7305  0FB2  07D3               	addwf	(CuaStart@i_2062),f
  7306  0FB3  1803               	skipnc
  7307  0FB4  0AD4               	incf	(CuaStart@i_2062+1),f
  7308  0FB5  3000               	movlw	high(01h)
  7309  0FB6  07D4               	addwf	(CuaStart@i_2062+1),f
  7310                           	
  7311  0FB7                     l13508:	
  7312  0FB7  0854               	movf	(CuaStart@i_2062+1),w
  7313  0FB8  3A80               	xorlw	80h
  7314  0FB9  00FF               	movwf	btemp+1
  7315  0FBA  3081               	movlw	(high(0190h))^80h
  7316  0FBB  027F               	subwf	btemp+1,w
  7317  0FBC  1D03               	skipz
  7318  0FBD  2FC0               	goto	u9805
  7319  0FBE  3090               	movlw	low(0190h)
  7320  0FBF  0253               	subwf	(CuaStart@i_2062),w
  7321  0FC0                     u9805:
  7322                           
  7323  0FC0  1C03               	skipc
  7324  0FC1  2FC3               	goto	u9801
  7325  0FC2  2FC4               	goto	u9800
  7326  0FC3                     u9801:
  7327  0FC3  2F85               	goto	l13494
  7328  0FC4                     u9800:
  7329  0FC4  2FC5               	goto	l13510
  7330                           	
  7331  0FC5                     l1435:	
  7332                           	line	877
  7333                           	
  7334  0FC5                     l13510:	
  7335                           ;main.c: 875: }
  7336                           ;main.c: 876: }
  7337                           ;main.c: 877: if (STOP == 1)
  7338  0FC5  1283               	bcf	status, 5	;RP0=0, select bank0
  7339  0FC6  1303               	bcf	status, 6	;RP1=0, select bank0
  7340  0FC7  085C               	movf	(_STOP),w	;volatile
  7341  0FC8  3A01               	xorlw	01h
  7342  0FC9  1D03               	skipz
  7343  0FCA  2FCC               	goto	u9811
  7344  0FCB  2FCD               	goto	u9810
  7345  0FCC                     u9811:
  7346  0FCC  2FCF               	goto	l13514
  7347  0FCD                     u9810:
  7348  0FCD  2FE0               	goto	l1389
  7349                           	line	878
  7350                           	
  7351  0FCE                     l13512:	
  7352                           ;main.c: 878: break;
  7353  0FCE  2FE0               	goto	l1389
  7354                           	
  7355  0FCF                     l1440:	
  7356                           	line	880
  7357                           	
  7358  0FCF                     l13514:	
  7359                           ;main.c: 880: lcd_putc('\f');
  7360  0FCF  300C               	movlw	(0Ch)
  7361  0FD0  160A  118A  23B9   	fcall	_lcd_putc
              120A  158A         
  7362  0FD5  2FD6               	goto	l13516
  7363                           	line	881
  7364                           	
  7365  0FD6                     l1379:	
  7366                           	line	715
  7367                           	
  7368  0FD6                     l13516:	
  7369  0FD6  1283               	bcf	status, 5	;RP0=0, select bank0
  7370  0FD7  1303               	bcf	status, 6	;RP1=0, select bank0
  7371  0FD8  085D               	movf	(_SoLuoi),w
  7372  0FD9  1683               	bsf	status, 5	;RP0=1, select bank1
  7373  0FDA  1303               	bcf	status, 6	;RP1=0, select bank1
  7374  0FDB  0248               	subwf	(_Luoi)^080h,w
  7375  0FDC  1C03               	skipc
  7376  0FDD  2FDF               	goto	u9821
  7377  0FDE  2FE0               	goto	u9820
  7378  0FDF                     u9821:
  7379  0FDF  2C7C               	goto	l13312
  7380  0FE0                     u9820:
  7381                           	
  7382  0FE0                     l1389:	
  7383                           	line	883
  7384                           ;main.c: 881: }
  7385                           ;main.c: 883: RC6 = 0;
  7386  0FE0  1283               	bcf	status, 5	;RP0=0, select bank0
  7387  0FE1  1307               	bcf	(62/8),(62)&7
  7388                           	line	884
  7389                           ;main.c: 884: while (RB7 == 1) {
  7390  0FE2  2FF8               	goto	l13522
  7391                           	
  7392  0FE3                     l1442:	
  7393                           	line	885
  7394                           ;main.c: 885: RC5 = 1;
  7395  0FE3  1687               	bsf	(61/8),(61)&7
  7396                           	line	886
  7397                           	
  7398  0FE4                     l13518:	
  7399                           ;main.c: 886: _delay((unsigned long)((2500)*(8000000/4000000.0)));
  7400                           	opt asmopt_off
  7401  0FE4  3007               movlw	7
  7402  0FE5  00BB               movwf	((??_CuaStart+0)+0+1),f
  7403  0FE6  307D               	movlw	125
  7404  0FE7  00BA               movwf	((??_CuaStart+0)+0),f
  7405  0FE8                     u10797:
  7406  0FE8  0BBA               	decfsz	((??_CuaStart+0)+0),f
  7407  0FE9  2FE8               	goto	u10797
  7408  0FEA  0BBB               	decfsz	((??_CuaStart+0)+0+1),f
  7409  0FEB  2FE8               	goto	u10797
  7410                           opt asmopt_on
  7411                           
  7412                           	line	887
  7413                           	
  7414  0FEC                     l13520:	
  7415                           ;main.c: 887: RC5 = 0;
  7416  0FEC  1283               	bcf	status, 5	;RP0=0, select bank0
  7417  0FED  1303               	bcf	status, 6	;RP1=0, select bank0
  7418  0FEE  1287               	bcf	(61/8),(61)&7
  7419                           	line	888
  7420                           ;main.c: 888: _delay((unsigned long)((2500)*(8000000/4000000.0)));
  7421                           	opt asmopt_off
  7422  0FEF  3007               movlw	7
  7423  0FF0  00BB               movwf	((??_CuaStart+0)+0+1),f
  7424  0FF1  307D               	movlw	125
  7425  0FF2  00BA               movwf	((??_CuaStart+0)+0),f
  7426  0FF3                     u10807:
  7427  0FF3  0BBA               	decfsz	((??_CuaStart+0)+0),f
  7428  0FF4  2FF3               	goto	u10807
  7429  0FF5  0BBB               	decfsz	((??_CuaStart+0)+0+1),f
  7430  0FF6  2FF3               	goto	u10807
  7431                           opt asmopt_on
  7432                           
  7433  0FF7  2FF8               	goto	l13522
  7434                           	line	889
  7435                           	
  7436  0FF8                     l1441:	
  7437                           	line	884
  7438                           	
  7439  0FF8                     l13522:	
  7440  0FF8  1283               	bcf	status, 5	;RP0=0, select bank0
  7441  0FF9  1303               	bcf	status, 6	;RP1=0, select bank0
  7442  0FFA  1B86               	btfsc	(55/8),(55)&7
  7443  0FFB  2FFD               	goto	u9831
  7444  0FFC  2FFE               	goto	u9830
  7445  0FFD                     u9831:
  7446  0FFD  2FE3               	goto	l1442
  7447  0FFE                     u9830:
  7448  0FFE  2FFF               	goto	l1444
  7449                           	
  7450  0FFF                     l1443:	
  7451                           	line	890
  7452                           	
  7453  0FFF                     l1444:	
  7454  0FFF  0008               	return
  7455                           	opt stack 0
  7456                           GLOBAL	__end_of_CuaStart
  7457  1000                     	__end_of_CuaStart:
  7458 ;; =============== function _CuaStart ends ============
  7459                           
  7460                           	signat	_CuaStart,88
  7461                           	global	_printf
  7462                           psect	text1412,local,class=CODE,delta=2
  7463                           global __ptext1412
  7464  080D                     __ptext1412:
  7465                           
  7466 ;; *************** function _printf *****************
  7467 ;; Defined at:
  7468 ;;		line 461 in file "C:\Program Files (x86)\HI-TECH Software\PICC\9.83\lib\doprnt.c"
  7469 ;; Parameters:    Size  Location     Type
  7470 ;;  f               1    wreg     PTR const unsigned char 
  7471 ;;		 -> STR_63(3), STR_61(3), STR_58(3), STR_56(3), 
  7472 ;;		 -> STR_54(3), STR_52(3), STR_50(3), STR_44(3), 
  7473 ;;		 -> STR_41(3), STR_39(3), STR_36(3), STR_31(3), 
  7474 ;;		 -> STR_27(3), STR_22(3), STR_17(3), STR_13(3), 
  7475 ;;		 -> STR_11(3), STR_8(3), STR_6(3), STR_3(3), 
  7476 ;; Auto vars:     Size  Location     Type
  7477 ;;  f               1   19[BANK0 ] PTR const unsigned char 
  7478 ;;		 -> STR_63(3), STR_61(3), STR_58(3), STR_56(3), 
  7479 ;;		 -> STR_54(3), STR_52(3), STR_50(3), STR_44(3), 
  7480 ;;		 -> STR_41(3), STR_39(3), STR_36(3), STR_31(3), 
  7481 ;;		 -> STR_27(3), STR_22(3), STR_17(3), STR_13(3), 
  7482 ;;		 -> STR_11(3), STR_8(3), STR_6(3), STR_3(3), 
  7483 ;;  _val            4   21[BANK0 ] struct .
  7484 ;;  c               1   25[BANK0 ] char 
  7485 ;;  prec            1   20[BANK0 ] char 
  7486 ;;  flag            1   18[BANK0 ] unsigned char 
  7487 ;;  ap              1   17[BANK0 ] PTR void [1]
  7488 ;;		 -> ?_printf(2), 
  7489 ;; Return value:  Size  Location     Type
  7490 ;;                  2   12[BANK0 ] int 
  7491 ;; Registers used:
  7492 ;;		wreg, fsr0l, fsr0h, status,2, status,0, btemp+1, pclath, cstack
  7493 ;; Tracked objects:
  7494 ;;		On entry : 0/0
  7495 ;;		On exit  : 0/0
  7496 ;;		Unchanged: 0/0
  7497 ;; Data sizes:     COMMON   BANK0   BANK1   BANK3   BANK2
  7498 ;;      Params:         0       2       0       0       0
  7499 ;;      Locals:         0       9       0       0       0
  7500 ;;      Temps:          0       3       0       0       0
  7501 ;;      Totals:         0      14       0       0       0
  7502 ;;Total ram usage:       14 bytes
  7503 ;; Hardware stack levels used:    1
  7504 ;; Hardware stack levels required when called:    5
  7505 ;; This function calls:
  7506 ;;		_putch
  7507 ;;		___lwdiv
  7508 ;;		___lwmod
  7509 ;; This function is called by:
  7510 ;;		_main
  7511 ;;		_CuaStart
  7512 ;;		_CuaStart2
  7513 ;; This function uses a non-reentrant model
  7514 ;;
  7515                           psect	text1412
  7516                           	file	"C:\Program Files (x86)\HI-TECH Software\PICC\9.83\sources\doprnt.c"
  7517                           	line	461
  7518                           	global	__size_of_printf
  7519  00F2                     	__size_of_printf	equ	__end_of_printf-_printf
  7520                           	
  7521  080D                     _printf:	
  7522                           	opt	stack 1
  7523                           ; Regs used in _printf: [wreg-fsr0h+status,2+status,0+btemp+1+pclath+cstack]
  7524                           ;printf@f stored from wreg
  7525                           	line	537
  7526  080D  1283               	bcf	status, 5	;RP0=0, select bank0
  7527  080E  1303               	bcf	status, 6	;RP1=0, select bank0
  7528  080F  00B3               	movwf	(printf@f)
  7529                           	
  7530  0810                     l13220:	
  7531  0810  302C               	movlw	(?_printf)&0ffh
  7532  0811  00AE               	movwf	(??_printf+0)+0
  7533  0812  082E               	movf	(??_printf+0)+0,w
  7534  0813  00B1               	movwf	(printf@ap)
  7535                           	line	540
  7536  0814  28E8               	goto	l13264
  7537                           	
  7538  0815                     l5965:	
  7539                           	line	542
  7540                           	
  7541  0815                     l13222:	
  7542  0815  0839               	movf	(printf@c),w
  7543  0816  3A25               	xorlw	025h
  7544  0817  1903               	skipnz
  7545  0818  281A               	goto	u9341
  7546  0819  281B               	goto	u9340
  7547  081A                     u9341:
  7548  081A  2822               	goto	l5966
  7549  081B                     u9340:
  7550                           	line	545
  7551                           	
  7552  081B                     l13224:	
  7553  081B  0839               	movf	(printf@c),w
  7554  081C  160A  158A  25A2   	fcall	_putch
              120A  158A         
  7555                           	line	546
  7556  0821  28E8               	goto	l13264
  7557                           	line	547
  7558                           	
  7559  0822                     l5966:	
  7560                           	line	552
  7561  0822  01B2               	clrf	(printf@flag)
  7562                           	line	638
  7563  0823  2829               	goto	l13228
  7564                           	line	640
  7565                           	
  7566  0824                     l5968:	
  7567                           	line	641
  7568  0824  28FE               	goto	l5983
  7569                           	line	700
  7570                           	
  7571  0825                     l5970:	
  7572  0825  283E               	goto	l13230
  7573                           	line	701
  7574                           	
  7575  0826                     l5971:	
  7576                           	line	702
  7577  0826  283E               	goto	l13230
  7578                           	line	805
  7579                           	
  7580  0827                     l5973:	
  7581                           	line	816
  7582  0827  28E8               	goto	l13264
  7583                           	line	825
  7584                           	
  7585  0828                     l13226:	
  7586  0828  283E               	goto	l13230
  7587                           	line	638
  7588                           	
  7589  0829                     l5967:	
  7590                           	
  7591  0829                     l13228:	
  7592  0829  3001               	movlw	01h
  7593  082A  07B3               	addwf	(printf@f),f
  7594  082B  30FF               	movlw	-01h
  7595  082C  0733               	addwf	(printf@f),w
  7596  082D  0084               	movwf	fsr0
  7597  082E  160A  118A  2000   	fcall	stringdir
              120A  158A         
  7598  0833  00B9               	movwf	(printf@c)
  7599                           	; Switch size 1, requested type "space"
  7600                           ; Number of cases is 3, Range of values is 0 to 105
  7601                           ; switch strategies available:
  7602                           ; Name         Instructions Cycles
  7603                           ; simple_byte           10     6 (average)
  7604                           ; jumptable            260     6 (fixed)
  7605                           ; rangetable           110     6 (fixed)
  7606                           ; spacedrange          218     9 (fixed)
  7607                           ; locatedrange         106     3 (fixed)
  7608                           ;	Chosen strategy is simple_byte
  7609                           
  7610                           	opt asmopt_off
  7611  0834  3A00               	xorlw	0^0	; case 0
  7612  0835  1903               	skipnz
  7613  0836  28FE               	goto	l5983
  7614  0837  3A64               	xorlw	100^0	; case 100
  7615  0838  1903               	skipnz
  7616  0839  283E               	goto	l13230
  7617  083A  3A0D               	xorlw	105^100	; case 105
  7618  083B  1903               	skipnz
  7619  083C  283E               	goto	l13230
  7620  083D  28E8               	goto	l13264
  7621                           	opt asmopt_on
  7622                           
  7623                           	line	825
  7624                           	
  7625  083E                     l5972:	
  7626                           	line	1254
  7627                           	
  7628  083E                     l13230:	
  7629  083E  0831               	movf	(printf@ap),w
  7630  083F  0084               	movwf	fsr0
  7631  0840  1383               	bcf	status, 7	;select IRP bank0
  7632  0841  0800               	movf	indf,w
  7633  0842  00B5               	movwf	(printf@_val)
  7634  0843  0A84               	incf	fsr0,f
  7635  0844  0800               	movf	indf,w
  7636  0845  00B6               	movwf	(printf@_val+1)
  7637                           	
  7638  0846                     l13232:	
  7639  0846  3002               	movlw	(02h)
  7640  0847  00AE               	movwf	(??_printf+0)+0
  7641  0848  082E               	movf	(??_printf+0)+0,w
  7642  0849  07B1               	addwf	(printf@ap),f
  7643                           	line	1256
  7644                           	
  7645  084A                     l13234:	
  7646  084A  1FB6               	btfss	(printf@_val+1),7
  7647  084B  284D               	goto	u9351
  7648  084C  284E               	goto	u9350
  7649  084D                     u9351:
  7650  084D  2858               	goto	l13240
  7651  084E                     u9350:
  7652                           	line	1257
  7653                           	
  7654  084E                     l13236:	
  7655  084E  3003               	movlw	(03h)
  7656  084F  00AE               	movwf	(??_printf+0)+0
  7657  0850  082E               	movf	(??_printf+0)+0,w
  7658  0851  04B2               	iorwf	(printf@flag),f
  7659                           	line	1258
  7660                           	
  7661  0852                     l13238:	
  7662  0852  09B5               	comf	(printf@_val),f
  7663  0853  09B6               	comf	(printf@_val+1),f
  7664  0854  0AB5               	incf	(printf@_val),f
  7665  0855  1903               	skipnz
  7666  0856  0AB6               	incf	(printf@_val+1),f
  7667  0857  2858               	goto	l13240
  7668                           	line	1259
  7669                           	
  7670  0858                     l5974:	
  7671                           	line	1300
  7672                           	
  7673  0858                     l13240:	
  7674  0858  01B9               	clrf	(printf@c)
  7675  0859  1403               	bsf	status,0
  7676  085A  0DB9               	rlf	(printf@c),f
  7677                           	
  7678  085B                     l13242:	
  7679  085B  0839               	movf	(printf@c),w
  7680  085C  3A05               	xorlw	05h
  7681  085D  1D03               	skipz
  7682  085E  2860               	goto	u9361
  7683  085F  2861               	goto	u9360
  7684  0860                     u9361:
  7685  0860  2863               	goto	l13246
  7686  0861                     u9360:
  7687  0861  288B               	goto	l13254
  7688                           	
  7689  0862                     l13244:	
  7690  0862  288B               	goto	l13254
  7691                           	line	1301
  7692                           	
  7693  0863                     l5975:	
  7694                           	
  7695  0863                     l13246:	
  7696  0863  0839               	movf	(printf@c),w
  7697  0864  00AE               	movwf	(??_printf+0)+0
  7698  0865  072E               	addwf	(??_printf+0)+0,w
  7699  0866  3E01               	addlw	low((_dpowers-__stringbase))
  7700  0867  0084               	movwf	fsr0
  7701  0868  160A  118A  2000   	fcall	stringdir
              120A  158A         
  7702  086D  00AF               	movwf	(??_printf+1)+0
  7703  086E  160A  118A  2000   	fcall	stringdir
              120A  158A         
  7704  0873  00B0               	movwf	(??_printf+1)+0+1
  7705  0874  0830               	movf	1+(??_printf+1)+0,w
  7706  0875  0236               	subwf	(printf@_val+1),w
  7707  0876  1D03               	skipz
  7708  0877  287A               	goto	u9375
  7709  0878  082F               	movf	0+(??_printf+1)+0,w
  7710  0879  0235               	subwf	(printf@_val),w
  7711  087A                     u9375:
  7712  087A  1803               	skipnc
  7713  087B  287D               	goto	u9371
  7714  087C  287E               	goto	u9370
  7715  087D                     u9371:
  7716  087D  2880               	goto	l13250
  7717  087E                     u9370:
  7718  087E  288B               	goto	l13254
  7719                           	line	1302
  7720                           	
  7721  087F                     l13248:	
  7722  087F  288B               	goto	l13254
  7723                           	
  7724  0880                     l5977:	
  7725                           	line	1300
  7726                           	
  7727  0880                     l13250:	
  7728  0880  3001               	movlw	(01h)
  7729  0881  00AE               	movwf	(??_printf+0)+0
  7730  0882  082E               	movf	(??_printf+0)+0,w
  7731  0883  07B9               	addwf	(printf@c),f
  7732                           	
  7733  0884                     l13252:	
  7734  0884  0839               	movf	(printf@c),w
  7735  0885  3A05               	xorlw	05h
  7736  0886  1D03               	skipz
  7737  0887  2889               	goto	u9381
  7738  0888  288A               	goto	u9380
  7739  0889                     u9381:
  7740  0889  2863               	goto	l13246
  7741  088A                     u9380:
  7742  088A  288B               	goto	l13254
  7743                           	
  7744  088B                     l5976:	
  7745                           	line	1433
  7746                           	
  7747  088B                     l13254:	
  7748  088B  0832               	movf	(printf@flag),w
  7749  088C  3903               	andlw	03h
  7750  088D  1903               	btfsc	status,2
  7751  088E  2890               	goto	u9391
  7752  088F  2891               	goto	u9390
  7753  0890                     u9391:
  7754  0890  2898               	goto	l13258
  7755  0891                     u9390:
  7756                           	line	1434
  7757                           	
  7758  0891                     l13256:	
  7759  0891  302D               	movlw	(02Dh)
  7760  0892  160A  158A  25A2   	fcall	_putch
              120A  158A         
  7761  0897  2898               	goto	l13258
  7762                           	
  7763  0898                     l5978:	
  7764                           	line	1467
  7765                           	
  7766  0898                     l13258:	
  7767  0898  1283               	bcf	status, 5	;RP0=0, select bank0
  7768  0899  1303               	bcf	status, 6	;RP1=0, select bank0
  7769  089A  0839               	movf	(printf@c),w
  7770  089B  00AE               	movwf	(??_printf+0)+0
  7771  089C  082E               	movf	(??_printf+0)+0,w
  7772  089D  00B4               	movwf	(printf@prec)
  7773                           	line	1469
  7774  089E  28DA               	goto	l13262
  7775                           	
  7776  089F                     l5980:	
  7777                           	line	1484
  7778                           	
  7779  089F                     l13260:	
  7780  089F  300A               	movlw	low(0Ah)
  7781  08A0  00A7               	movwf	(?___lwmod)
  7782  08A1  3000               	movlw	high(0Ah)
  7783  08A2  00A8               	movwf	((?___lwmod))+1
  7784  08A3  0834               	movf	(printf@prec),w
  7785  08A4  00AE               	movwf	(??_printf+0)+0
  7786  08A5  072E               	addwf	(??_printf+0)+0,w
  7787  08A6  3E01               	addlw	low((_dpowers-__stringbase))
  7788  08A7  0084               	movwf	fsr0
  7789  08A8  160A  118A  2000   	fcall	stringdir
              120A  158A         
  7790  08AD  00A0               	movwf	(?___lwdiv)
  7791  08AE  160A  118A  2000   	fcall	stringdir
              120A  158A         
  7792  08B3  00A1               	movwf	(?___lwdiv+1)
  7793  08B4  0836               	movf	(printf@_val+1),w
  7794  08B5  01A3               	clrf	1+(?___lwdiv)+02h
  7795  08B6  07A3               	addwf	1+(?___lwdiv)+02h
  7796  08B7  0835               	movf	(printf@_val),w
  7797  08B8  01A2               	clrf	0+(?___lwdiv)+02h
  7798  08B9  07A2               	addwf	0+(?___lwdiv)+02h
  7799                           
  7800  08BA  160A  118A  2220   	fcall	___lwdiv
              120A  158A         
  7801  08BF  1283               	bcf	status, 5	;RP0=0, select bank0
  7802  08C0  1303               	bcf	status, 6	;RP1=0, select bank0
  7803  08C1  0821               	movf	(1+(?___lwdiv)),w
  7804  08C2  01AA               	clrf	1+(?___lwmod)+02h
  7805  08C3  07AA               	addwf	1+(?___lwmod)+02h
  7806  08C4  0820               	movf	(0+(?___lwdiv)),w
  7807  08C5  01A9               	clrf	0+(?___lwmod)+02h
  7808  08C6  07A9               	addwf	0+(?___lwmod)+02h
  7809                           
  7810  08C7  160A  118A  2193   	fcall	___lwmod
              120A  158A         
  7811  08CC  1283               	bcf	status, 5	;RP0=0, select bank0
  7812  08CD  1303               	bcf	status, 6	;RP1=0, select bank0
  7813  08CE  0827               	movf	(0+(?___lwmod)),w
  7814  08CF  3E30               	addlw	030h
  7815  08D0  00AF               	movwf	(??_printf+1)+0
  7816  08D1  082F               	movf	(??_printf+1)+0,w
  7817  08D2  00B9               	movwf	(printf@c)
  7818                           	line	1516
  7819  08D3  0839               	movf	(printf@c),w
  7820  08D4  160A  158A  25A2   	fcall	_putch
              120A  158A         
  7821  08D9  28DA               	goto	l13262
  7822                           	line	1517
  7823                           	
  7824  08DA                     l5979:	
  7825                           	line	1469
  7826                           	
  7827  08DA                     l13262:	
  7828  08DA  30FF               	movlw	(-1)
  7829  08DB  1283               	bcf	status, 5	;RP0=0, select bank0
  7830  08DC  1303               	bcf	status, 6	;RP1=0, select bank0
  7831  08DD  00AE               	movwf	(??_printf+0)+0
  7832  08DE  082E               	movf	(??_printf+0)+0,w
  7833  08DF  07B4               	addwf	(printf@prec),f
  7834  08E0  0834               	movf	((printf@prec)),w
  7835  08E1  3AFF               	xorlw	-1
  7836  08E2  1D03               	skipz
  7837  08E3  28E5               	goto	u9401
  7838  08E4  28E6               	goto	u9400
  7839  08E5                     u9401:
  7840  08E5  289F               	goto	l13260
  7841  08E6                     u9400:
  7842  08E6  28E8               	goto	l13264
  7843                           	
  7844  08E7                     l5981:	
  7845  08E7  28E8               	goto	l13264
  7846                           	line	1525
  7847                           	
  7848  08E8                     l5964:	
  7849                           	line	540
  7850                           	
  7851  08E8                     l13264:	
  7852  08E8  3001               	movlw	01h
  7853  08E9  1283               	bcf	status, 5	;RP0=0, select bank0
  7854  08EA  1303               	bcf	status, 6	;RP1=0, select bank0
  7855  08EB  07B3               	addwf	(printf@f),f
  7856  08EC  30FF               	movlw	-01h
  7857  08ED  0733               	addwf	(printf@f),w
  7858  08EE  0084               	movwf	fsr0
  7859  08EF  160A  118A  2000   	fcall	stringdir
              120A  158A         
  7860  08F4  00AE               	movwf	(??_printf+0)+0
  7861  08F5  082E               	movf	(??_printf+0)+0,w
  7862  08F6  00B9               	movwf	(printf@c)
  7863  08F7  08B9               	movf	((printf@c)),f
  7864  08F8  1D03               	skipz
  7865  08F9  28FB               	goto	u9411
  7866  08FA  28FC               	goto	u9410
  7867  08FB                     u9411:
  7868  08FB  2815               	goto	l13222
  7869  08FC                     u9410:
  7870  08FC  28FE               	goto	l5983
  7871                           	
  7872  08FD                     l5982:	
  7873  08FD  28FE               	goto	l5983
  7874                           	line	1527
  7875                           	
  7876  08FE                     l5969:	
  7877                           	line	1533
  7878                           ;	Return value of _printf is never used
  7879                           	
  7880  08FE                     l5983:	
  7881  08FE  0008               	return
  7882                           	opt stack 0
  7883                           GLOBAL	__end_of_printf
  7884  08FF                     	__end_of_printf:
  7885 ;; =============== function _printf ends ============
  7886                           
  7887                           	signat	_printf,602
  7888                           	global	_putch
  7889                           psect	text1413,local,class=CODE,delta=2
  7890                           global __ptext1413
  7891  1DA2                     __ptext1413:
  7892                           
  7893 ;; *************** function _putch *****************
  7894 ;; Defined at:
  7895 ;;		line 272 in file "lcd4x20.c"
  7896 ;; Parameters:    Size  Location     Type
  7897 ;;  c               1    wreg     unsigned char 
  7898 ;; Auto vars:     Size  Location     Type
  7899 ;;  c               1   10[BANK0 ] unsigned char 
  7900 ;; Return value:  Size  Location     Type
  7901 ;;		None               void
  7902 ;; Registers used:
  7903 ;;		wreg, fsr0l, fsr0h, status,2, status,0, pclath, cstack
  7904 ;; Tracked objects:
  7905 ;;		On entry : 0/0
  7906 ;;		On exit  : 0/0
  7907 ;;		Unchanged: 0/0
  7908 ;; Data sizes:     COMMON   BANK0   BANK1   BANK3   BANK2
  7909 ;;      Params:         0       0       0       0       0
  7910 ;;      Locals:         0       1       0       0       0
  7911 ;;      Temps:          0       0       0       0       0
  7912 ;;      Totals:         0       1       0       0       0
  7913 ;;Total ram usage:        1 bytes
  7914 ;; Hardware stack levels used:    1
  7915 ;; Hardware stack levels required when called:    4
  7916 ;; This function calls:
  7917 ;;		_lcd_putc
  7918 ;; This function is called by:
  7919 ;;		_printf
  7920 ;; This function uses a non-reentrant model
  7921 ;;
  7922                           psect	text1413
  7923                           	file	"lcd4x20.c"
  7924                           	line	272
  7925                           	global	__size_of_putch
  7926  000A                     	__size_of_putch	equ	__end_of_putch-_putch
  7927                           	
  7928  1DA2                     _putch:	
  7929                           	opt	stack 1
  7930                           ; Regs used in _putch: [wreg-fsr0h+status,2+status,0+pclath+cstack]
  7931                           ;putch@c stored from wreg
  7932  1DA2  1283               	bcf	status, 5	;RP0=0, select bank0
  7933  1DA3  1303               	bcf	status, 6	;RP1=0, select bank0
  7934  1DA4  00AA               	movwf	(putch@c)
  7935                           	line	273
  7936                           	
  7937  1DA5                     l13218:	
  7938                           ;lcd4x20.c: 273: lcd_putc(c);
  7939  1DA5  082A               	movf	(putch@c),w
  7940  1DA6  160A  118A  23B9   	fcall	_lcd_putc
              160A  158A         
  7941                           	line	274
  7942                           	
  7943  1DAB                     l4857:	
  7944  1DAB  0008               	return
  7945                           	opt stack 0
  7946                           GLOBAL	__end_of_putch
  7947  1DAC                     	__end_of_putch:
  7948 ;; =============== function _putch ends ============
  7949                           
  7950                           	signat	_putch,4216
  7951                           	global	_lcd_puts
  7952                           psect	text1414,local,class=CODE,delta=2
  7953                           global __ptext1414
  7954  10C5                     __ptext1414:
  7955                           
  7956 ;; *************** function _lcd_puts *****************
  7957 ;; Defined at:
  7958 ;;		line 319 in file "lcd4x20.c"
  7959 ;; Parameters:    Size  Location     Type
  7960 ;;  s               1    wreg     PTR const unsigned char 
  7961 ;;		 -> STR_62(9), STR_60(8), STR_59(17), STR_57(12), 
  7962 ;;		 -> STR_55(9), STR_53(8), STR_51(12), STR_49(12), 
  7963 ;;		 -> STR_48(9), STR_47(9), STR_46(19), STR_45(4), 
  7964 ;;		 -> STR_43(3), STR_42(7), STR_40(12), STR_38(3), 
  7965 ;;		 -> STR_37(11), STR_35(9), STR_34(12), STR_33(4), 
  7966 ;;		 -> STR_32(8), STR_30(2), STR_29(4), STR_28(2), 
  7967 ;;		 -> STR_26(2), STR_25(2), STR_24(4), STR_23(2), 
  7968 ;;		 -> STR_21(2), STR_20(2), STR_19(4), STR_18(2), 
  7969 ;;		 -> STR_16(2), STR_15(2), STR_14(6), STR_12(2), 
  7970 ;;		 -> STR_10(3), STR_9(7), STR_7(12), STR_5(3), 
  7971 ;;		 -> STR_4(11), STR_2(9), STR_1(17), 
  7972 ;; Auto vars:     Size  Location     Type
  7973 ;;  s               1   11[BANK0 ] PTR const unsigned char 
  7974 ;;		 -> STR_62(9), STR_60(8), STR_59(17), STR_57(12), 
  7975 ;;		 -> STR_55(9), STR_53(8), STR_51(12), STR_49(12), 
  7976 ;;		 -> STR_48(9), STR_47(9), STR_46(19), STR_45(4), 
  7977 ;;		 -> STR_43(3), STR_42(7), STR_40(12), STR_38(3), 
  7978 ;;		 -> STR_37(11), STR_35(9), STR_34(12), STR_33(4), 
  7979 ;;		 -> STR_32(8), STR_30(2), STR_29(4), STR_28(2), 
  7980 ;;		 -> STR_26(2), STR_25(2), STR_24(4), STR_23(2), 
  7981 ;;		 -> STR_21(2), STR_20(2), STR_19(4), STR_18(2), 
  7982 ;;		 -> STR_16(2), STR_15(2), STR_14(6), STR_12(2), 
  7983 ;;		 -> STR_10(3), STR_9(7), STR_7(12), STR_5(3), 
  7984 ;;		 -> STR_4(11), STR_2(9), STR_1(17), 
  7985 ;; Return value:  Size  Location     Type
  7986 ;;		None               void
  7987 ;; Registers used:
  7988 ;;		wreg, fsr0l, fsr0h, status,2, status,0, pclath, cstack
  7989 ;; Tracked objects:
  7990 ;;		On entry : 0/0
  7991 ;;		On exit  : 0/0
  7992 ;;		Unchanged: 0/0
  7993 ;; Data sizes:     COMMON   BANK0   BANK1   BANK3   BANK2
  7994 ;;      Params:         0       0       0       0       0
  7995 ;;      Locals:         0       1       0       0       0
  7996 ;;      Temps:          0       1       0       0       0
  7997 ;;      Totals:         0       2       0       0       0
  7998 ;;Total ram usage:        2 bytes
  7999 ;; Hardware stack levels used:    1
  8000 ;; Hardware stack levels required when called:    4
  8001 ;; This function calls:
  8002 ;;		_lcd_putc
  8003 ;; This function is called by:
  8004 ;;		_main
  8005 ;;		_CuaStart
  8006 ;;		_CuaStart2
  8007 ;; This function uses a non-reentrant model
  8008 ;;
  8009                           psect	text1414
  8010                           	file	"lcd4x20.c"
  8011                           	line	319
  8012                           	global	__size_of_lcd_puts
  8013  0025                     	__size_of_lcd_puts	equ	__end_of_lcd_puts-_lcd_puts
  8014                           	
  8015  10C5                     _lcd_puts:	
  8016                           	opt	stack 2
  8017                           ; Regs used in _lcd_puts: [wreg-fsr0h+status,2+status,0+pclath+cstack]
  8018                           ;lcd_puts@s stored from wreg
  8019  10C5  1283               	bcf	status, 5	;RP0=0, select bank0
  8020  10C6  1303               	bcf	status, 6	;RP1=0, select bank0
  8021  10C7  00AB               	movwf	(lcd_puts@s)
  8022                           	line	323
  8023                           	
  8024  10C8                     l13210:	
  8025                           ;lcd4x20.c: 323: while(*s)
  8026  10C8  28DC               	goto	l13216
  8027                           	
  8028  10C9                     l4873:	
  8029                           	line	325
  8030                           	
  8031  10C9                     l13212:	
  8032                           ;lcd4x20.c: 324: {
  8033                           ;lcd4x20.c: 325: lcd_putc(*s++);
  8034  10C9  082B               	movf	(lcd_puts@s),w
  8035  10CA  0084               	movwf	fsr0
  8036  10CB  160A  118A  2000   	fcall	stringdir
              160A  118A         
  8037  10D0  160A  118A  23B9   	fcall	_lcd_putc
              160A  118A         
  8038                           	
  8039  10D5                     l13214:	
  8040  10D5  3001               	movlw	(01h)
  8041  10D6  1283               	bcf	status, 5	;RP0=0, select bank0
  8042  10D7  1303               	bcf	status, 6	;RP1=0, select bank0
  8043  10D8  00AA               	movwf	(??_lcd_puts+0)+0
  8044  10D9  082A               	movf	(??_lcd_puts+0)+0,w
  8045  10DA  07AB               	addwf	(lcd_puts@s),f
  8046  10DB  28DC               	goto	l13216
  8047                           	line	326
  8048                           	
  8049  10DC                     l4872:	
  8050                           	line	323
  8051                           	
  8052  10DC                     l13216:	
  8053  10DC  082B               	movf	(lcd_puts@s),w
  8054  10DD  0084               	movwf	fsr0
  8055  10DE  160A  118A  2000   	fcall	stringdir
              160A  118A         
  8056  10E3  3800               	iorlw	0
  8057  10E4  1D03               	skipz
  8058  10E5  28E7               	goto	u9331
  8059  10E6  28E8               	goto	u9330
  8060  10E7                     u9331:
  8061  10E7  28C9               	goto	l13212
  8062  10E8                     u9330:
  8063  10E8  28E9               	goto	l4875
  8064                           	
  8065  10E9                     l4874:	
  8066                           	line	327
  8067                           	
  8068  10E9                     l4875:	
  8069  10E9  0008               	return
  8070                           	opt stack 0
  8071                           GLOBAL	__end_of_lcd_puts
  8072  10EA                     	__end_of_lcd_puts:
  8073 ;; =============== function _lcd_puts ends ============
  8074                           
  8075                           	signat	_lcd_puts,4216
  8076                           	global	_ChuTrinhMaiTho
  8077                           psect	text1415,local,class=CODE,delta=2
  8078                           global __ptext1415
  8079  12D4                     __ptext1415:
  8080                           
  8081 ;; *************** function _ChuTrinhMaiTho *****************
  8082 ;; Defined at:
  8083 ;;		line 923 in file "main.c"
  8084 ;; Parameters:    Size  Location     Type
  8085 ;;		None
  8086 ;; Auto vars:     Size  Location     Type
  8087 ;;  i               2   19[BANK0 ] int 
  8088 ;;  pulse2          2   17[BANK0 ] int 
  8089 ;;  tong2           2   15[BANK0 ] int 
  8090 ;; Return value:  Size  Location     Type
  8091 ;;		None               void
  8092 ;; Registers used:
  8093 ;;		wreg, status,2, status,0, btemp+1, pclath, cstack
  8094 ;; Tracked objects:
  8095 ;;		On entry : 0/0
  8096 ;;		On exit  : 0/0
  8097 ;;		Unchanged: 0/0
  8098 ;; Data sizes:     COMMON   BANK0   BANK1   BANK3   BANK2
  8099 ;;      Params:         0       0       0       0       0
  8100 ;;      Locals:         0       6       0       0       0
  8101 ;;      Temps:          0       3       0       0       0
  8102 ;;      Totals:         0       9       0       0       0
  8103 ;;Total ram usage:        9 bytes
  8104 ;; Hardware stack levels used:    1
  8105 ;; Hardware stack levels required when called:    3
  8106 ;; This function calls:
  8107 ;;		_MotorEpTruc
  8108 ;;		_maidao
  8109 ;;		_Delay
  8110 ;; This function is called by:
  8111 ;;		_CuaStart
  8112 ;; This function uses a non-reentrant model
  8113 ;;
  8114                           psect	text1415
  8115                           	file	"main.c"
  8116                           	line	923
  8117                           	global	__size_of_ChuTrinhMaiTho
  8118  006F                     	__size_of_ChuTrinhMaiTho	equ	__end_of_ChuTrinhMaiTho-_ChuTrinhMaiTho
  8119                           	
  8120  12D4                     _ChuTrinhMaiTho:	
  8121                           	opt	stack 3
  8122                           ; Regs used in _ChuTrinhMaiTho: [wreg+status,2+status,0+btemp+1+pclath+cstack]
  8123                           	line	924
  8124                           	
  8125  12D4                     l13182:	
  8126                           ;main.c: 924: int tong2 = 0;
  8127  12D4  1283               	bcf	status, 5	;RP0=0, select bank0
  8128  12D5  1303               	bcf	status, 6	;RP1=0, select bank0
  8129  12D6  01AF               	clrf	(ChuTrinhMaiTho@tong2)
  8130  12D7  01B0               	clrf	(ChuTrinhMaiTho@tong2+1)
  8131                           	line	925
  8132                           	
  8133  12D8                     l13184:	
  8134                           ;main.c: 925: int pulse2 = 5;
  8135  12D8  3005               	movlw	low(05h)
  8136  12D9  00B1               	movwf	(ChuTrinhMaiTho@pulse2)
  8137  12DA  3000               	movlw	high(05h)
  8138  12DB  00B2               	movwf	((ChuTrinhMaiTho@pulse2))+1
  8139                           	line	927
  8140                           	
  8141  12DC                     l13186:	
  8142                           ;main.c: 927: RC4 = 1;
  8143  12DC  1607               	bsf	(60/8),(60)&7
  8144                           	line	928
  8145                           	
  8146  12DD                     l13188:	
  8147                           ;main.c: 928: for (int i = 0; i < pulse2 * 8; i++) {
  8148  12DD  01B3               	clrf	(ChuTrinhMaiTho@i)
  8149  12DE  01B4               	clrf	(ChuTrinhMaiTho@i+1)
  8150  12DF  2B13               	goto	l13204
  8151                           	
  8152  12E0                     l1457:	
  8153                           	line	929
  8154                           	
  8155  12E0                     l13190:	
  8156                           ;main.c: 929: MotorEpTruc();
  8157  12E0  160A  158A  2645   	fcall	_MotorEpTruc
              160A  118A         
  8158                           	line	930
  8159                           	
  8160  12E5                     l13192:	
  8161                           ;main.c: 930: if (STOP == 1) {
  8162  12E5  1283               	bcf	status, 5	;RP0=0, select bank0
  8163  12E6  1303               	bcf	status, 6	;RP1=0, select bank0
  8164  12E7  085C               	movf	(_STOP),w	;volatile
  8165  12E8  3A01               	xorlw	01h
  8166  12E9  1D03               	skipz
  8167  12EA  2AEC               	goto	u9291
  8168  12EB  2AED               	goto	u9290
  8169  12EC                     u9291:
  8170  12EC  2B0C               	goto	l13202
  8171  12ED                     u9290:
  8172                           	line	931
  8173                           	
  8174  12ED                     l13194:	
  8175                           ;main.c: 931: RC6 = 0;
  8176  12ED  1307               	bcf	(62/8),(62)&7
  8177                           	line	932
  8178                           ;main.c: 932: while (RB7 == 1) {
  8179  12EE  2B04               	goto	l13200
  8180                           	
  8181  12EF                     l1460:	
  8182                           	line	933
  8183                           ;main.c: 933: RC5 = 1;
  8184  12EF  1687               	bsf	(61/8),(61)&7
  8185                           	line	934
  8186                           	
  8187  12F0                     l13196:	
  8188                           ;main.c: 934: _delay((unsigned long)((2500)*(8000000/4000000.0)));
  8189                           	opt asmopt_off
  8190  12F0  3007               movlw	7
  8191  12F1  00AD               movwf	((??_ChuTrinhMaiTho+0)+0+1),f
  8192  12F2  307D               	movlw	125
  8193  12F3  00AC               movwf	((??_ChuTrinhMaiTho+0)+0),f
  8194  12F4                     u10817:
  8195  12F4  0BAC               	decfsz	((??_ChuTrinhMaiTho+0)+0),f
  8196  12F5  2AF4               	goto	u10817
  8197  12F6  0BAD               	decfsz	((??_ChuTrinhMaiTho+0)+0+1),f
  8198  12F7  2AF4               	goto	u10817
  8199                           opt asmopt_on
  8200                           
  8201                           	line	935
  8202                           	
  8203  12F8                     l13198:	
  8204                           ;main.c: 935: RC5 = 0;
  8205  12F8  1283               	bcf	status, 5	;RP0=0, select bank0
  8206  12F9  1303               	bcf	status, 6	;RP1=0, select bank0
  8207  12FA  1287               	bcf	(61/8),(61)&7
  8208                           	line	936
  8209                           ;main.c: 936: _delay((unsigned long)((2500)*(8000000/4000000.0)));
  8210                           	opt asmopt_off
  8211  12FB  3007               movlw	7
  8212  12FC  00AD               movwf	((??_ChuTrinhMaiTho+0)+0+1),f
  8213  12FD  307D               	movlw	125
  8214  12FE  00AC               movwf	((??_ChuTrinhMaiTho+0)+0),f
  8215  12FF                     u10827:
  8216  12FF  0BAC               	decfsz	((??_ChuTrinhMaiTho+0)+0),f
  8217  1300  2AFF               	goto	u10827
  8218  1301  0BAD               	decfsz	((??_ChuTrinhMaiTho+0)+0+1),f
  8219  1302  2AFF               	goto	u10827
  8220                           opt asmopt_on
  8221                           
  8222  1303  2B04               	goto	l13200
  8223                           	line	937
  8224                           	
  8225  1304                     l1459:	
  8226                           	line	932
  8227                           	
  8228  1304                     l13200:	
  8229  1304  1283               	bcf	status, 5	;RP0=0, select bank0
  8230  1305  1303               	bcf	status, 6	;RP1=0, select bank0
  8231  1306  1B86               	btfsc	(55/8),(55)&7
  8232  1307  2B09               	goto	u9301
  8233  1308  2B0A               	goto	u9300
  8234  1309                     u9301:
  8235  1309  2AEF               	goto	l1460
  8236  130A                     u9300:
  8237                           	
  8238  130A                     l1461:	
  8239                           	line	938
  8240                           ;main.c: 937: }
  8241                           ;main.c: 938: RB1 = 0;
  8242  130A  1086               	bcf	(49/8),(49)&7
  8243                           	line	939
  8244                           ;main.c: 939: break;
  8245  130B  2B2C               	goto	l1462
  8246                           	line	940
  8247                           	
  8248  130C                     l1458:	
  8249                           	line	928
  8250                           	
  8251  130C                     l13202:	
  8252  130C  3001               	movlw	low(01h)
  8253  130D  07B3               	addwf	(ChuTrinhMaiTho@i),f
  8254  130E  1803               	skipnc
  8255  130F  0AB4               	incf	(ChuTrinhMaiTho@i+1),f
  8256  1310  3000               	movlw	high(01h)
  8257  1311  07B4               	addwf	(ChuTrinhMaiTho@i+1),f
  8258  1312  2B13               	goto	l13204
  8259                           	
  8260  1313                     l1456:	
  8261                           	
  8262  1313                     l13204:	
  8263  1313  0832               	movf	(ChuTrinhMaiTho@pulse2+1),w
  8264  1314  00AD               	movwf	(??_ChuTrinhMaiTho+0)+0+1
  8265  1315  0831               	movf	(ChuTrinhMaiTho@pulse2),w
  8266  1316  00AC               	movwf	(??_ChuTrinhMaiTho+0)+0
  8267  1317  3003               	movlw	03h
  8268  1318  00FF               	movwf	btemp+1
  8269  1319                     u9315:
  8270  1319  1003               	clrc
  8271  131A  0DAC               	rlf	(??_ChuTrinhMaiTho+0)+0,f
  8272  131B  0DAD               	rlf	(??_ChuTrinhMaiTho+0)+1,f
  8273  131C  0BFF               	decfsz	btemp+1,f
  8274  131D  2B19               	goto	u9315
  8275  131E  0834               	movf	(ChuTrinhMaiTho@i+1),w
  8276  131F  3A80               	xorlw	80h
  8277  1320  00AE               	movwf	(??_ChuTrinhMaiTho+2)+0
  8278  1321  082D               	movf	1+(??_ChuTrinhMaiTho+0)+0,w
  8279  1322  3A80               	xorlw	80h
  8280  1323  022E               	subwf	(??_ChuTrinhMaiTho+2)+0,w
  8281  1324  1D03               	skipz
  8282  1325  2B28               	goto	u9325
  8283  1326  082C               	movf	0+(??_ChuTrinhMaiTho+0)+0,w
  8284  1327  0233               	subwf	(ChuTrinhMaiTho@i),w
  8285  1328                     u9325:
  8286                           
  8287  1328  1C03               	skipc
  8288  1329  2B2B               	goto	u9321
  8289  132A  2B2C               	goto	u9320
  8290  132B                     u9321:
  8291  132B  2AE0               	goto	l13190
  8292  132C                     u9320:
  8293                           	
  8294  132C                     l1462:	
  8295                           	line	943
  8296                           ;main.c: 940: }
  8297                           ;main.c: 941: }
  8298                           ;main.c: 943: RC6 = 1;
  8299  132C  1283               	bcf	status, 5	;RP0=0, select bank0
  8300  132D  1303               	bcf	status, 6	;RP1=0, select bank0
  8301  132E  1707               	bsf	(62/8),(62)&7
  8302                           	line	944
  8303                           	
  8304  132F                     l13206:	
  8305                           ;main.c: 944: maidao();
  8306  132F  160A  118A  2270   	fcall	_maidao
              160A  118A         
  8307                           	line	945
  8308                           ;main.c: 945: Delay(1);
  8309  1334  3001               	movlw	(01h)
  8310  1335  160A  158A  27AA   	fcall	_Delay
              160A  118A         
  8311                           	line	946
  8312                           	
  8313  133A                     l13208:	
  8314                           ;main.c: 946: RC6 = 0;
  8315  133A  1283               	bcf	status, 5	;RP0=0, select bank0
  8316  133B  1303               	bcf	status, 6	;RP1=0, select bank0
  8317  133C  1307               	bcf	(62/8),(62)&7
  8318                           	line	947
  8319                           ;main.c: 947: maidao();
  8320  133D  160A  118A  2270   	fcall	_maidao
              160A  118A         
  8321                           	line	949
  8322                           	
  8323  1342                     l1463:	
  8324  1342  0008               	return
  8325                           	opt stack 0
  8326                           GLOBAL	__end_of_ChuTrinhMaiTho
  8327  1343                     	__end_of_ChuTrinhMaiTho:
  8328 ;; =============== function _ChuTrinhMaiTho ends ============
  8329                           
  8330                           	signat	_ChuTrinhMaiTho,88
  8331                           	global	_lcd_putc
  8332                           psect	text1416,local,class=CODE,delta=2
  8333                           global __ptext1416
  8334  13B9                     __ptext1416:
  8335                           
  8336 ;; *************** function _lcd_putc *****************
  8337 ;; Defined at:
  8338 ;;		line 236 in file "lcd4x20.c"
  8339 ;; Parameters:    Size  Location     Type
  8340 ;;  c               1    wreg     unsigned char 
  8341 ;; Auto vars:     Size  Location     Type
  8342 ;;  c               1    9[BANK0 ] unsigned char 
  8343 ;; Return value:  Size  Location     Type
  8344 ;;		None               void
  8345 ;; Registers used:
  8346 ;;		wreg, fsr0l, fsr0h, status,2, status,0, pclath, cstack
  8347 ;; Tracked objects:
  8348 ;;		On entry : 0/0
  8349 ;;		On exit  : 0/0
  8350 ;;		Unchanged: 0/0
  8351 ;; Data sizes:     COMMON   BANK0   BANK1   BANK3   BANK2
  8352 ;;      Params:         0       0       0       0       0
  8353 ;;      Locals:         0       1       0       0       0
  8354 ;;      Temps:          0       1       0       0       0
  8355 ;;      Totals:         0       2       0       0       0
  8356 ;;Total ram usage:        2 bytes
  8357 ;; Hardware stack levels used:    1
  8358 ;; Hardware stack levels required when called:    3
  8359 ;; This function calls:
  8360 ;;		_lcd_put_byte
  8361 ;;		_lcd_busy
  8362 ;;		_lcd_gotoxy
  8363 ;; This function is called by:
  8364 ;;		_main
  8365 ;;		_CuaStart
  8366 ;;		_putch
  8367 ;;		_lcd_puts
  8368 ;;		_CuaStart2
  8369 ;; This function uses a non-reentrant model
  8370 ;;
  8371                           psect	text1416
  8372                           	file	"lcd4x20.c"
  8373                           	line	236
  8374                           	global	__size_of_lcd_putc
  8375  0087                     	__size_of_lcd_putc	equ	__end_of_lcd_putc-_lcd_putc
  8376                           	
  8377  13B9                     _lcd_putc:	
  8378                           	opt	stack 3
  8379                           ; Regs used in _lcd_putc: [wreg-fsr0h+status,2+status,0+pclath+cstack]
  8380                           ;lcd_putc@c stored from wreg
  8381  13B9  1283               	bcf	status, 5	;RP0=0, select bank0
  8382  13BA  1303               	bcf	status, 6	;RP1=0, select bank0
  8383  13BB  00A9               	movwf	(lcd_putc@c)
  8384                           	line	240
  8385                           	
  8386  13BC                     l13158:	
  8387                           ;lcd4x20.c: 240: switch(c)
  8388  13BC  2C2F               	goto	l13180
  8389                           	line	242
  8390                           ;lcd4x20.c: 241: {
  8391                           ;lcd4x20.c: 242: case '\f':
  8392                           	
  8393  13BD                     l4836:	
  8394                           	line	243
  8395                           	
  8396  13BD                     l13160:	
  8397                           ;lcd4x20.c: 243: lcd_put_byte(0,0x01);
  8398  13BD  01F4               	clrf	(?_lcd_put_byte)
  8399  13BE  1403               	bsf	status,0
  8400  13BF  0DF4               	rlf	(?_lcd_put_byte),f
  8401  13C0  3000               	movlw	(0)
  8402  13C1  160A  118A  2624   	fcall	_lcd_put_byte
              160A  118A         
  8403                           	line	244
  8404                           ;lcd4x20.c: 244: while(lcd_busy());
  8405  13C6  2BC8               	goto	l13162
  8406                           	
  8407  13C7                     l4838:	
  8408  13C7  2BC8               	goto	l13162
  8409                           	
  8410  13C8                     l4837:	
  8411                           	
  8412  13C8                     l13162:	
  8413  13C8  160A  118A  20EA   	fcall	_lcd_busy
              160A  118A         
  8414  13CD  3800               	iorlw	0
  8415  13CE  1D03               	skipz
  8416  13CF  2BD1               	goto	u9251
  8417  13D0  2BD2               	goto	u9250
  8418  13D1                     u9251:
  8419  13D1  2BC8               	goto	l13162
  8420  13D2                     u9250:
  8421  13D2  2C3F               	goto	l4854
  8422                           	
  8423  13D3                     l4839:	
  8424                           	line	245
  8425                           ;lcd4x20.c: 245: break;
  8426  13D3  2C3F               	goto	l4854
  8427                           	line	246
  8428                           ;lcd4x20.c: 246: case '\r':
  8429                           	
  8430  13D4                     l4841:	
  8431                           	line	247
  8432                           	
  8433  13D4                     l13164:	
  8434                           ;lcd4x20.c: 247: lcd_put_byte(0,0x02);
  8435  13D4  3002               	movlw	(02h)
  8436  13D5  1283               	bcf	status, 5	;RP0=0, select bank0
  8437  13D6  1303               	bcf	status, 6	;RP1=0, select bank0
  8438  13D7  00A8               	movwf	(??_lcd_putc+0)+0
  8439  13D8  0828               	movf	(??_lcd_putc+0)+0,w
  8440  13D9  00F4               	movwf	(?_lcd_put_byte)
  8441  13DA  3000               	movlw	(0)
  8442  13DB  160A  118A  2624   	fcall	_lcd_put_byte
              160A  118A         
  8443                           	line	248
  8444                           ;lcd4x20.c: 248: while(lcd_busy());
  8445  13E0  2BE2               	goto	l13166
  8446                           	
  8447  13E1                     l4843:	
  8448  13E1  2BE2               	goto	l13166
  8449                           	
  8450  13E2                     l4842:	
  8451                           	
  8452  13E2                     l13166:	
  8453  13E2  160A  118A  20EA   	fcall	_lcd_busy
              160A  118A         
  8454  13E7  3800               	iorlw	0
  8455  13E8  1D03               	skipz
  8456  13E9  2BEB               	goto	u9261
  8457  13EA  2BEC               	goto	u9260
  8458  13EB                     u9261:
  8459  13EB  2BE2               	goto	l13166
  8460  13EC                     u9260:
  8461  13EC  2C3F               	goto	l4854
  8462                           	
  8463  13ED                     l4844:	
  8464                           	line	249
  8465                           ;lcd4x20.c: 249: break;
  8466  13ED  2C3F               	goto	l4854
  8467                           	line	250
  8468                           ;lcd4x20.c: 250: case '\n':
  8469                           	
  8470  13EE                     l4845:	
  8471                           	line	251
  8472                           	
  8473  13EE                     l13168:	
  8474                           ;lcd4x20.c: 251: lcd_gotoxy(0,1);
  8475  13EE  1283               	bcf	status, 5	;RP0=0, select bank0
  8476  13EF  1303               	bcf	status, 6	;RP1=0, select bank0
  8477  13F0  01A4               	clrf	(?_lcd_gotoxy)
  8478  13F1  1403               	bsf	status,0
  8479  13F2  0DA4               	rlf	(?_lcd_gotoxy),f
  8480  13F3  3000               	movlw	(0)
  8481  13F4  160A  118A  2152   	fcall	_lcd_gotoxy
              160A  118A         
  8482                           	line	252
  8483                           ;lcd4x20.c: 252: break;
  8484  13F9  2C3F               	goto	l4854
  8485                           	line	253
  8486                           ;lcd4x20.c: 253: case '\b':
  8487                           	
  8488  13FA                     l4846:	
  8489                           	line	254
  8490                           	
  8491  13FA                     l13170:	
  8492                           ;lcd4x20.c: 254: lcd_put_byte(0,0x10);
  8493  13FA  3010               	movlw	(010h)
  8494  13FB  1283               	bcf	status, 5	;RP0=0, select bank0
  8495  13FC  1303               	bcf	status, 6	;RP1=0, select bank0
  8496  13FD  00A8               	movwf	(??_lcd_putc+0)+0
  8497  13FE  0828               	movf	(??_lcd_putc+0)+0,w
  8498  13FF  00F4               	movwf	(?_lcd_put_byte)
  8499  1400  3000               	movlw	(0)
  8500  1401  160A  118A  2624   	fcall	_lcd_put_byte
              160A  118A         
  8501                           	line	255
  8502                           ;lcd4x20.c: 255: while(lcd_busy());
  8503  1406  2C08               	goto	l13172
  8504                           	
  8505  1407                     l4848:	
  8506  1407  2C08               	goto	l13172
  8507                           	
  8508  1408                     l4847:	
  8509                           	
  8510  1408                     l13172:	
  8511  1408  160A  118A  20EA   	fcall	_lcd_busy
              160A  118A         
  8512  140D  3800               	iorlw	0
  8513  140E  1D03               	skipz
  8514  140F  2C11               	goto	u9271
  8515  1410  2C12               	goto	u9270
  8516  1411                     u9271:
  8517  1411  2C08               	goto	l13172
  8518  1412                     u9270:
  8519  1412  2C3F               	goto	l4854
  8520                           	
  8521  1413                     l4849:	
  8522                           	line	256
  8523                           ;lcd4x20.c: 256: break;
  8524  1413  2C3F               	goto	l4854
  8525                           	line	257
  8526                           ;lcd4x20.c: 257: default:
  8527                           	
  8528  1414                     l4850:	
  8529                           	line	260
  8530                           	
  8531  1414                     l13174:	
  8532                           ;lcd4x20.c: 260: lcd_put_byte(1,c);
  8533  1414  1283               	bcf	status, 5	;RP0=0, select bank0
  8534  1415  1303               	bcf	status, 6	;RP1=0, select bank0
  8535  1416  0829               	movf	(lcd_putc@c),w
  8536  1417  00A8               	movwf	(??_lcd_putc+0)+0
  8537  1418  0828               	movf	(??_lcd_putc+0)+0,w
  8538  1419  00F4               	movwf	(?_lcd_put_byte)
  8539  141A  3001               	movlw	(01h)
  8540  141B  160A  118A  2624   	fcall	_lcd_put_byte
              160A  118A         
  8541                           	line	261
  8542                           ;lcd4x20.c: 261: while(lcd_busy());
  8543  1420  2C22               	goto	l13176
  8544                           	
  8545  1421                     l4852:	
  8546  1421  2C22               	goto	l13176
  8547                           	
  8548  1422                     l4851:	
  8549                           	
  8550  1422                     l13176:	
  8551  1422  160A  118A  20EA   	fcall	_lcd_busy
              160A  118A         
  8552  1427  3800               	iorlw	0
  8553  1428  1D03               	skipz
  8554  1429  2C2B               	goto	u9281
  8555  142A  2C2C               	goto	u9280
  8556  142B                     u9281:
  8557  142B  2C22               	goto	l13176
  8558  142C                     u9280:
  8559  142C  2C3F               	goto	l4854
  8560                           	
  8561  142D                     l4853:	
  8562                           	line	263
  8563                           ;lcd4x20.c: 263: break;
  8564  142D  2C3F               	goto	l4854
  8565                           	line	264
  8566                           	
  8567  142E                     l13178:	
  8568                           ;lcd4x20.c: 264: }
  8569  142E  2C3F               	goto	l4854
  8570                           	line	240
  8571                           	
  8572  142F                     l4835:	
  8573                           	
  8574  142F                     l13180:	
  8575  142F  1283               	bcf	status, 5	;RP0=0, select bank0
  8576  1430  1303               	bcf	status, 6	;RP1=0, select bank0
  8577  1431  0829               	movf	(lcd_putc@c),w
  8578                           	; Switch size 1, requested type "space"
  8579                           ; Number of cases is 4, Range of values is 8 to 13
  8580                           ; switch strategies available:
  8581                           ; Name         Instructions Cycles
  8582                           ; simple_byte           13     7 (average)
  8583                           ; direct_byte           29    11 (fixed)
  8584                           ; jumptable            263     9 (fixed)
  8585                           ;	Chosen strategy is simple_byte
  8586                           
  8587                           	opt asmopt_off
  8588  1432  3A08               	xorlw	8^0	; case 8
  8589  1433  1903               	skipnz
  8590  1434  2BFA               	goto	l13170
  8591  1435  3A02               	xorlw	10^8	; case 10
  8592  1436  1903               	skipnz
  8593  1437  2BEE               	goto	l13168
  8594  1438  3A06               	xorlw	12^10	; case 12
  8595  1439  1903               	skipnz
  8596  143A  2BBD               	goto	l13160
  8597  143B  3A01               	xorlw	13^12	; case 13
  8598  143C  1903               	skipnz
  8599  143D  2BD4               	goto	l13164
  8600  143E  2C14               	goto	l13174
  8601                           	opt asmopt_on
  8602                           
  8603                           	line	264
  8604                           	
  8605  143F                     l4840:	
  8606                           	line	265
  8607                           	
  8608  143F                     l4854:	
  8609  143F  0008               	return
  8610                           	opt stack 0
  8611                           GLOBAL	__end_of_lcd_putc
  8612  1440                     	__end_of_lcd_putc:
  8613 ;; =============== function _lcd_putc ends ============
  8614                           
  8615                           	signat	_lcd_putc,4216
  8616                           	global	_maidao
  8617                           psect	text1417,local,class=CODE,delta=2
  8618                           global __ptext1417
  8619  1270                     __ptext1417:
  8620                           
  8621 ;; *************** function _maidao *****************
  8622 ;; Defined at:
  8623 ;;		line 952 in file "main.c"
  8624 ;; Parameters:    Size  Location     Type
  8625 ;;		None
  8626 ;; Auto vars:     Size  Location     Type
  8627 ;;  i               2   10[BANK0 ] int 
  8628 ;;  domaix          2    8[BANK0 ] int 
  8629 ;;  domaiy          2    6[BANK0 ] int 
  8630 ;; Return value:  Size  Location     Type
  8631 ;;		None               void
  8632 ;; Registers used:
  8633 ;;		wreg, status,2, status,0, pclath, cstack
  8634 ;; Tracked objects:
  8635 ;;		On entry : 0/0
  8636 ;;		On exit  : 0/0
  8637 ;;		Unchanged: 0/0
  8638 ;; Data sizes:     COMMON   BANK0   BANK1   BANK3   BANK2
  8639 ;;      Params:         0       0       0       0       0
  8640 ;;      Locals:         0       6       0       0       0
  8641 ;;      Temps:          0       2       0       0       0
  8642 ;;      Totals:         0       8       0       0       0
  8643 ;;Total ram usage:        8 bytes
  8644 ;; Hardware stack levels used:    1
  8645 ;; Hardware stack levels required when called:    2
  8646 ;; This function calls:
  8647 ;;		___wmul
  8648 ;;		_motorX
  8649 ;; This function is called by:
  8650 ;;		_CuaStart
  8651 ;;		_ChuTrinhMaiTho
  8652 ;; This function uses a non-reentrant model
  8653 ;;
  8654                           psect	text1417
  8655                           	file	"main.c"
  8656                           	line	952
  8657                           	global	__size_of_maidao
  8658  0064                     	__size_of_maidao	equ	__end_of_maidao-_maidao
  8659                           	
  8660  1270                     _maidao:	
  8661                           	opt	stack 4
  8662                           ; Regs used in _maidao: [wreg+status,2+status,0+pclath+cstack]
  8663                           	line	953
  8664                           	
  8665  1270                     l13138:	
  8666                           ;main.c: 953: int domaix = 0, domaiy = 0;
  8667  1270  1283               	bcf	status, 5	;RP0=0, select bank0
  8668  1271  1303               	bcf	status, 6	;RP1=0, select bank0
  8669  1272  01A8               	clrf	(maidao@domaix)
  8670  1273  01A9               	clrf	(maidao@domaix+1)
  8671  1274  01A6               	clrf	(maidao@domaiy)
  8672  1275  01A7               	clrf	(maidao@domaiy+1)
  8673                           	line	954
  8674                           	
  8675  1276                     l13140:	
  8676                           ;main.c: 954: domaix = ChieuDai * 20 - 400;
  8677  1276  0877               	movf	(_ChieuDai+1),w
  8678  1277  01A1               	clrf	(?___wmul+1)
  8679  1278  07A1               	addwf	(?___wmul+1)
  8680  1279  0876               	movf	(_ChieuDai),w
  8681  127A  01A0               	clrf	(?___wmul)
  8682  127B  07A0               	addwf	(?___wmul)
  8683                           
  8684  127C  3014               	movlw	low(014h)
  8685  127D  00A2               	movwf	0+(?___wmul)+02h
  8686  127E  3000               	movlw	high(014h)
  8687  127F  00A3               	movwf	(0+(?___wmul)+02h)+1
  8688  1280  160A  158A  27D4   	fcall	___wmul
              160A  118A         
  8689  1285  1283               	bcf	status, 5	;RP0=0, select bank0
  8690  1286  1303               	bcf	status, 6	;RP1=0, select bank0
  8691  1287  0820               	movf	(0+(?___wmul)),w
  8692  1288  3E70               	addlw	low(-400)
  8693  1289  00A8               	movwf	(maidao@domaix)
  8694  128A  0821               	movf	(1+(?___wmul)),w
  8695  128B  1803               	skipnc
  8696  128C  3E01               	addlw	1
  8697  128D  3EFE               	addlw	high(-400)
  8698  128E  00A9               	movwf	1+(maidao@domaix)
  8699                           	line	956
  8700                           	
  8701  128F                     l13142:	
  8702                           ;main.c: 956: for (int i = 0; i < domaix; i++) {
  8703  128F  01AA               	clrf	(maidao@i)
  8704  1290  01AB               	clrf	(maidao@i+1)
  8705  1291  2AC4               	goto	l1466
  8706                           	
  8707  1292                     l1467:	
  8708                           	line	957
  8709                           	
  8710  1292                     l13144:	
  8711                           ;main.c: 957: motorX();
  8712  1292  160A  158A  2613   	fcall	_motorX
              160A  118A         
  8713                           	line	958
  8714                           	
  8715  1297                     l13146:	
  8716                           ;main.c: 958: if (STOP == 1) {
  8717  1297  1283               	bcf	status, 5	;RP0=0, select bank0
  8718  1298  1303               	bcf	status, 6	;RP1=0, select bank0
  8719  1299  085C               	movf	(_STOP),w	;volatile
  8720  129A  3A01               	xorlw	01h
  8721  129B  1D03               	skipz
  8722  129C  2A9E               	goto	u9221
  8723  129D  2A9F               	goto	u9220
  8724  129E                     u9221:
  8725  129E  2ABE               	goto	l13156
  8726  129F                     u9220:
  8727                           	line	959
  8728                           	
  8729  129F                     l13148:	
  8730                           ;main.c: 959: RC6 = 0;
  8731  129F  1307               	bcf	(62/8),(62)&7
  8732                           	line	960
  8733                           ;main.c: 960: while (RB7 == 1) {
  8734  12A0  2AB6               	goto	l13154
  8735                           	
  8736  12A1                     l1470:	
  8737                           	line	961
  8738                           ;main.c: 961: RC5 = 1;
  8739  12A1  1687               	bsf	(61/8),(61)&7
  8740                           	line	962
  8741                           	
  8742  12A2                     l13150:	
  8743                           ;main.c: 962: _delay((unsigned long)((2500)*(8000000/4000000.0)));
  8744                           	opt asmopt_off
  8745  12A2  3007               movlw	7
  8746  12A3  00A5               movwf	((??_maidao+0)+0+1),f
  8747  12A4  307D               	movlw	125
  8748  12A5  00A4               movwf	((??_maidao+0)+0),f
  8749  12A6                     u10837:
  8750  12A6  0BA4               	decfsz	((??_maidao+0)+0),f
  8751  12A7  2AA6               	goto	u10837
  8752  12A8  0BA5               	decfsz	((??_maidao+0)+0+1),f
  8753  12A9  2AA6               	goto	u10837
  8754                           opt asmopt_on
  8755                           
  8756                           	line	963
  8757                           	
  8758  12AA                     l13152:	
  8759                           ;main.c: 963: RC5 = 0;
  8760  12AA  1283               	bcf	status, 5	;RP0=0, select bank0
  8761  12AB  1303               	bcf	status, 6	;RP1=0, select bank0
  8762  12AC  1287               	bcf	(61/8),(61)&7
  8763                           	line	964
  8764                           ;main.c: 964: _delay((unsigned long)((2500)*(8000000/4000000.0)));
  8765                           	opt asmopt_off
  8766  12AD  3007               movlw	7
  8767  12AE  00A5               movwf	((??_maidao+0)+0+1),f
  8768  12AF  307D               	movlw	125
  8769  12B0  00A4               movwf	((??_maidao+0)+0),f
  8770  12B1                     u10847:
  8771  12B1  0BA4               	decfsz	((??_maidao+0)+0),f
  8772  12B2  2AB1               	goto	u10847
  8773  12B3  0BA5               	decfsz	((??_maidao+0)+0+1),f
  8774  12B4  2AB1               	goto	u10847
  8775                           opt asmopt_on
  8776                           
  8777  12B5  2AB6               	goto	l13154
  8778                           	line	965
  8779                           	
  8780  12B6                     l1469:	
  8781                           	line	960
  8782                           	
  8783  12B6                     l13154:	
  8784  12B6  1283               	bcf	status, 5	;RP0=0, select bank0
  8785  12B7  1303               	bcf	status, 6	;RP1=0, select bank0
  8786  12B8  1B86               	btfsc	(55/8),(55)&7
  8787  12B9  2ABB               	goto	u9231
  8788  12BA  2ABC               	goto	u9230
  8789  12BB                     u9231:
  8790  12BB  2AA1               	goto	l1470
  8791  12BC                     u9230:
  8792                           	
  8793  12BC                     l1471:	
  8794                           	line	966
  8795                           ;main.c: 965: }
  8796                           ;main.c: 966: RB1 = 0;
  8797  12BC  1086               	bcf	(49/8),(49)&7
  8798                           	line	967
  8799                           ;main.c: 967: break;
  8800  12BD  2AD3               	goto	l1473
  8801                           	line	968
  8802                           	
  8803  12BE                     l1468:	
  8804                           	line	956
  8805                           	
  8806  12BE                     l13156:	
  8807  12BE  3001               	movlw	low(01h)
  8808  12BF  07AA               	addwf	(maidao@i),f
  8809  12C0  1803               	skipnc
  8810  12C1  0AAB               	incf	(maidao@i+1),f
  8811  12C2  3000               	movlw	high(01h)
  8812  12C3  07AB               	addwf	(maidao@i+1),f
  8813                           	
  8814  12C4                     l1466:	
  8815  12C4  082B               	movf	(maidao@i+1),w
  8816  12C5  3A80               	xorlw	80h
  8817  12C6  00A4               	movwf	(??_maidao+0)+0
  8818  12C7  0829               	movf	(maidao@domaix+1),w
  8819  12C8  3A80               	xorlw	80h
  8820  12C9  0224               	subwf	(??_maidao+0)+0,w
  8821  12CA  1D03               	skipz
  8822  12CB  2ACE               	goto	u9245
  8823  12CC  0828               	movf	(maidao@domaix),w
  8824  12CD  022A               	subwf	(maidao@i),w
  8825  12CE                     u9245:
  8826                           
  8827  12CE  1C03               	skipc
  8828  12CF  2AD1               	goto	u9241
  8829  12D0  2AD2               	goto	u9240
  8830  12D1                     u9241:
  8831  12D1  2A92               	goto	l13144
  8832  12D2                     u9240:
  8833  12D2  2AD3               	goto	l1473
  8834                           	
  8835  12D3                     l1472:	
  8836                           	line	970
  8837                           	
  8838  12D3                     l1473:	
  8839  12D3  0008               	return
  8840                           	opt stack 0
  8841                           GLOBAL	__end_of_maidao
  8842  12D4                     	__end_of_maidao:
  8843 ;; =============== function _maidao ends ============
  8844                           
  8845                           	signat	_maidao,88
  8846                           	global	_lcd_gotoxy
  8847                           psect	text1418,local,class=CODE,delta=2
  8848                           global __ptext1418
  8849  1152                     __ptext1418:
  8850                           
  8851 ;; *************** function _lcd_gotoxy *****************
  8852 ;; Defined at:
  8853 ;;		line 284 in file "lcd4x20.c"
  8854 ;; Parameters:    Size  Location     Type
  8855 ;;  col             1    wreg     unsigned char 
  8856 ;;  row             1    4[BANK0 ] unsigned char 
  8857 ;; Auto vars:     Size  Location     Type
  8858 ;;  col             1    6[BANK0 ] unsigned char 
  8859 ;;  address         1    7[BANK0 ] unsigned char 
  8860 ;; Return value:  Size  Location     Type
  8861 ;;		None               void
  8862 ;; Registers used:
  8863 ;;		wreg, fsr0l, fsr0h, status,2, status,0, pclath, cstack
  8864 ;; Tracked objects:
  8865 ;;		On entry : 0/0
  8866 ;;		On exit  : 0/0
  8867 ;;		Unchanged: 0/0
  8868 ;; Data sizes:     COMMON   BANK0   BANK1   BANK3   BANK2
  8869 ;;      Params:         0       1       0       0       0
  8870 ;;      Locals:         0       2       0       0       0
  8871 ;;      Temps:          0       1       0       0       0
  8872 ;;      Totals:         0       4       0       0       0
  8873 ;;Total ram usage:        4 bytes
  8874 ;; Hardware stack levels used:    1
  8875 ;; Hardware stack levels required when called:    2
  8876 ;; This function calls:
  8877 ;;		_lcd_put_byte
  8878 ;;		_lcd_busy
  8879 ;; This function is called by:
  8880 ;;		_main
  8881 ;;		_CuaStart
  8882 ;;		_lcd_putc
  8883 ;;		_CuaStart2
  8884 ;; This function uses a non-reentrant model
  8885 ;;
  8886                           psect	text1418
  8887                           	file	"lcd4x20.c"
  8888                           	line	284
  8889                           	global	__size_of_lcd_gotoxy
  8890  0041                     	__size_of_lcd_gotoxy	equ	__end_of_lcd_gotoxy-_lcd_gotoxy
  8891                           	
  8892  1152                     _lcd_gotoxy:	
  8893                           	opt	stack 3
  8894                           ; Regs used in _lcd_gotoxy: [wreg-fsr0h+status,2+status,0+pclath+cstack]
  8895                           ;lcd_gotoxy@col stored from wreg
  8896  1152  1283               	bcf	status, 5	;RP0=0, select bank0
  8897  1153  1303               	bcf	status, 6	;RP1=0, select bank0
  8898  1154  00A6               	movwf	(lcd_gotoxy@col)
  8899                           	line	289
  8900                           	
  8901  1155                     l13120:	
  8902                           ;lcd4x20.c: 286: unsigned char address;
  8903                           ;lcd4x20.c: 289: switch(row)
  8904  1155  2968               	goto	l13130
  8905                           	line	291
  8906                           ;lcd4x20.c: 290: {
  8907                           ;lcd4x20.c: 291: case 0:
  8908                           	
  8909  1156                     l4861:	
  8910                           	line	292
  8911                           ;lcd4x20.c: 292: address=0x00;
  8912  1156  01A7               	clrf	(lcd_gotoxy@address)
  8913                           	line	293
  8914                           ;lcd4x20.c: 293: break;
  8915  1157  2976               	goto	l13132
  8916                           	line	294
  8917                           ;lcd4x20.c: 294: case 1:
  8918                           	
  8919  1158                     l4863:	
  8920                           	line	295
  8921                           	
  8922  1158                     l13122:	
  8923                           ;lcd4x20.c: 295: address=0x40;
  8924  1158  3040               	movlw	(040h)
  8925  1159  00A5               	movwf	(??_lcd_gotoxy+0)+0
  8926  115A  0825               	movf	(??_lcd_gotoxy+0)+0,w
  8927  115B  00A7               	movwf	(lcd_gotoxy@address)
  8928                           	line	296
  8929                           ;lcd4x20.c: 296: break;
  8930  115C  2976               	goto	l13132
  8931                           	line	297
  8932                           ;lcd4x20.c: 297: case 2:
  8933                           	
  8934  115D                     l4864:	
  8935                           	line	298
  8936                           	
  8937  115D                     l13124:	
  8938                           ;lcd4x20.c: 298: address=0x14;
  8939  115D  3014               	movlw	(014h)
  8940  115E  00A5               	movwf	(??_lcd_gotoxy+0)+0
  8941  115F  0825               	movf	(??_lcd_gotoxy+0)+0,w
  8942  1160  00A7               	movwf	(lcd_gotoxy@address)
  8943                           	line	299
  8944                           ;lcd4x20.c: 299: break;
  8945  1161  2976               	goto	l13132
  8946                           	line	300
  8947                           ;lcd4x20.c: 300: case 3:
  8948                           	
  8949  1162                     l4865:	
  8950                           	line	301
  8951                           	
  8952  1162                     l13126:	
  8953                           ;lcd4x20.c: 301: address=0x54;
  8954  1162  3054               	movlw	(054h)
  8955  1163  00A5               	movwf	(??_lcd_gotoxy+0)+0
  8956  1164  0825               	movf	(??_lcd_gotoxy+0)+0,w
  8957  1165  00A7               	movwf	(lcd_gotoxy@address)
  8958                           	line	302
  8959                           ;lcd4x20.c: 302: break;
  8960  1166  2976               	goto	l13132
  8961                           	line	303
  8962                           	
  8963  1167                     l13128:	
  8964                           ;lcd4x20.c: 303: }
  8965  1167  2976               	goto	l13132
  8966                           	line	289
  8967                           	
  8968  1168                     l4860:	
  8969                           	
  8970  1168                     l13130:	
  8971  1168  0824               	movf	(lcd_gotoxy@row),w
  8972                           	; Switch size 1, requested type "space"
  8973                           ; Number of cases is 4, Range of values is 0 to 3
  8974                           ; switch strategies available:
  8975                           ; Name         Instructions Cycles
  8976                           ; simple_byte           13     7 (average)
  8977                           ; direct_byte           20     8 (fixed)
  8978                           ; jumptable            260     6 (fixed)
  8979                           ; rangetable             8     6 (fixed)
  8980                           ; spacedrange           14     9 (fixed)
  8981                           ; locatedrange           4     3 (fixed)
  8982                           ;	Chosen strategy is simple_byte
  8983                           
  8984                           	opt asmopt_off
  8985  1169  3A00               	xorlw	0^0	; case 0
  8986  116A  1903               	skipnz
  8987  116B  2956               	goto	l4861
  8988  116C  3A01               	xorlw	1^0	; case 1
  8989  116D  1903               	skipnz
  8990  116E  2958               	goto	l13122
  8991  116F  3A03               	xorlw	2^1	; case 2
  8992  1170  1903               	skipnz
  8993  1171  295D               	goto	l13124
  8994  1172  3A01               	xorlw	3^2	; case 3
  8995  1173  1903               	skipnz
  8996  1174  2962               	goto	l13126
  8997  1175  2976               	goto	l13132
  8998                           	opt asmopt_on
  8999                           
  9000                           	line	303
  9001                           	
  9002  1176                     l4862:	
  9003                           	line	305
  9004                           	
  9005  1176                     l13132:	
  9006                           ;lcd4x20.c: 305: address += col;
  9007  1176  0826               	movf	(lcd_gotoxy@col),w
  9008  1177  00A5               	movwf	(??_lcd_gotoxy+0)+0
  9009  1178  0825               	movf	(??_lcd_gotoxy+0)+0,w
  9010  1179  07A7               	addwf	(lcd_gotoxy@address),f
  9011                           	line	307
  9012                           	
  9013  117A                     l13134:	
  9014                           ;lcd4x20.c: 307: lcd_put_byte(0,0x80|address);
  9015  117A  0827               	movf	(lcd_gotoxy@address),w
  9016  117B  3880               	iorlw	080h
  9017  117C  00A5               	movwf	(??_lcd_gotoxy+0)+0
  9018  117D  0825               	movf	(??_lcd_gotoxy+0)+0,w
  9019  117E  00F4               	movwf	(?_lcd_put_byte)
  9020  117F  3000               	movlw	(0)
  9021  1180  160A  118A  2624   	fcall	_lcd_put_byte
              160A  118A         
  9022                           	line	309
  9023                           ;lcd4x20.c: 309: while(lcd_busy());
  9024  1185  2987               	goto	l13136
  9025                           	
  9026  1186                     l4867:	
  9027  1186  2987               	goto	l13136
  9028                           	
  9029  1187                     l4866:	
  9030                           	
  9031  1187                     l13136:	
  9032  1187  160A  118A  20EA   	fcall	_lcd_busy
              160A  118A         
  9033  118C  3800               	iorlw	0
  9034  118D  1D03               	skipz
  9035  118E  2990               	goto	u9211
  9036  118F  2991               	goto	u9210
  9037  1190                     u9211:
  9038  1190  2987               	goto	l13136
  9039  1191                     u9210:
  9040  1191  2992               	goto	l4869
  9041                           	
  9042  1192                     l4868:	
  9043                           	line	310
  9044                           	
  9045  1192                     l4869:	
  9046  1192  0008               	return
  9047                           	opt stack 0
  9048                           GLOBAL	__end_of_lcd_gotoxy
  9049  1193                     	__end_of_lcd_gotoxy:
  9050 ;; =============== function _lcd_gotoxy ends ============
  9051                           
  9052                           	signat	_lcd_gotoxy,8312
  9053                           	global	_lcd_init
  9054                           psect	text1419,local,class=CODE,delta=2
  9055                           global __ptext1419
  9056  16E0                     __ptext1419:
  9057                           
  9058 ;; *************** function _lcd_init *****************
  9059 ;; Defined at:
  9060 ;;		line 45 in file "lcd4x20.c"
  9061 ;; Parameters:    Size  Location     Type
  9062 ;;		None
  9063 ;; Auto vars:     Size  Location     Type
  9064 ;;  i               1    0        unsigned char 
  9065 ;; Return value:  Size  Location     Type
  9066 ;;		None               void
  9067 ;; Registers used:
  9068 ;;		wreg, status,2, status,0, pclath, cstack
  9069 ;; Tracked objects:
  9070 ;;		On entry : 0/0
  9071 ;;		On exit  : 0/0
  9072 ;;		Unchanged: 0/0
  9073 ;; Data sizes:     COMMON   BANK0   BANK1   BANK3   BANK2
  9074 ;;      Params:         0       0       0       0       0
  9075 ;;      Locals:         0       0       0       0       0
  9076 ;;      Temps:          0       3       0       0       0
  9077 ;;      Totals:         0       3       0       0       0
  9078 ;;Total ram usage:        3 bytes
  9079 ;; Hardware stack levels used:    1
  9080 ;; Hardware stack levels required when called:    2
  9081 ;; This function calls:
  9082 ;;		_lcd_put_byte
  9083 ;;		_lcd_busy
  9084 ;; This function is called by:
  9085 ;;		_main
  9086 ;; This function uses a non-reentrant model
  9087 ;;
  9088                           psect	text1419
  9089                           	file	"lcd4x20.c"
  9090                           	line	45
  9091                           	global	__size_of_lcd_init
  9092  0120                     	__size_of_lcd_init	equ	__end_of_lcd_init-_lcd_init
  9093                           	
  9094  16E0                     _lcd_init:	
  9095                           	opt	stack 5
  9096                           ; Regs used in _lcd_init: [wreg+status,2+status,0+pclath+cstack]
  9097                           	line	50
  9098                           	
  9099  16E0                     l13082:	
  9100                           ;lcd4x20.c: 47: unsigned char i;
  9101                           ;lcd4x20.c: 50: TRISE0 = 0;
  9102  16E0  1683               	bsf	status, 5	;RP0=1, select bank1
  9103  16E1  1303               	bcf	status, 6	;RP1=0, select bank1
  9104  16E2  1009               	bcf	(1096/8)^080h,(1096)&7
  9105                           	line	51
  9106                           ;lcd4x20.c: 51: TRISA4 = 0;
  9107  16E3  1205               	bcf	(1068/8)^080h,(1068)&7
  9108                           	line	52
  9109                           ;lcd4x20.c: 52: TRISA5 = 0;
  9110  16E4  1285               	bcf	(1069/8)^080h,(1069)&7
  9111                           	line	54
  9112                           ;lcd4x20.c: 54: TRISA0 = 0;
  9113  16E5  1005               	bcf	(1064/8)^080h,(1064)&7
  9114                           	line	55
  9115                           ;lcd4x20.c: 55: TRISA1 = 0;
  9116  16E6  1085               	bcf	(1065/8)^080h,(1065)&7
  9117                           	line	56
  9118                           ;lcd4x20.c: 56: TRISA2 = 0;
  9119  16E7  1105               	bcf	(1066/8)^080h,(1066)&7
  9120                           	line	57
  9121                           ;lcd4x20.c: 57: TRISA3 = 0;
  9122  16E8  1185               	bcf	(1067/8)^080h,(1067)&7
  9123                           	line	59
  9124                           ;lcd4x20.c: 59: RE0 = 0;
  9125  16E9  1283               	bcf	status, 5	;RP0=0, select bank0
  9126  16EA  1303               	bcf	status, 6	;RP1=0, select bank0
  9127  16EB  1009               	bcf	(72/8),(72)&7
  9128                           	line	60
  9129                           ;lcd4x20.c: 60: RA4 = 0;
  9130  16EC  1205               	bcf	(44/8),(44)&7
  9131                           	line	61
  9132                           ;lcd4x20.c: 61: RA5 = 0;
  9133  16ED  1285               	bcf	(45/8),(45)&7
  9134                           	line	63
  9135                           	
  9136  16EE                     l13084:	
  9137                           ;lcd4x20.c: 63: _delay((unsigned long)((100)*(8000000/4000.0)));
  9138                           	opt asmopt_off
  9139  16EE  3002               movlw  2
  9140  16EF  00A6               movwf	((??_lcd_init+0)+0+2),f
  9141  16F0  3004               movlw	4
  9142  16F1  00A5               movwf	((??_lcd_init+0)+0+1),f
  9143  16F2  30BA               	movlw	186
  9144  16F3  00A4               movwf	((??_lcd_init+0)+0),f
  9145  16F4                     u10857:
  9146  16F4  0BA4               	decfsz	((??_lcd_init+0)+0),f
  9147  16F5  2EF4               	goto	u10857
  9148  16F6  0BA5               	decfsz	((??_lcd_init+0)+0+1),f
  9149  16F7  2EF4               	goto	u10857
  9150  16F8  0BA6               	decfsz	((??_lcd_init+0)+0+2),f
  9151  16F9  2EF4               	goto	u10857
  9152  16FA  0064               	clrwdt
  9153                           opt asmopt_on
  9154                           
  9155                           	line	66
  9156                           	
  9157  16FB                     l13086:	
  9158                           ;lcd4x20.c: 66: lcd_put_byte(0,0x30);
  9159  16FB  3030               	movlw	(030h)
  9160  16FC  1283               	bcf	status, 5	;RP0=0, select bank0
  9161  16FD  1303               	bcf	status, 6	;RP1=0, select bank0
  9162  16FE  00A4               	movwf	(??_lcd_init+0)+0
  9163  16FF  0824               	movf	(??_lcd_init+0)+0,w
  9164  1700  00F4               	movwf	(?_lcd_put_byte)
  9165  1701  3000               	movlw	(0)
  9166  1702  160A  118A  2624   	fcall	_lcd_put_byte
              160A  118A         
  9167                           	line	67
  9168                           	
  9169  1707                     l13088:	
  9170                           ;lcd4x20.c: 67: _delay((unsigned long)((50)*(8000000/4000.0)));
  9171                           	opt asmopt_off
  9172  1707  3082               movlw	130
  9173  1708  1283               	bcf	status, 5	;RP0=0, select bank0
  9174  1709  1303               	bcf	status, 6	;RP1=0, select bank0
  9175  170A  00A5               movwf	((??_lcd_init+0)+0+1),f
  9176  170B  30DD               	movlw	221
  9177  170C  00A4               movwf	((??_lcd_init+0)+0),f
  9178  170D                     u10867:
  9179  170D  0BA4               	decfsz	((??_lcd_init+0)+0),f
  9180  170E  2F0D               	goto	u10867
  9181  170F  0BA5               	decfsz	((??_lcd_init+0)+0+1),f
  9182  1710  2F0D               	goto	u10867
  9183  1711  2F12               	nop2
  9184                           opt asmopt_on
  9185                           
  9186                           	line	68
  9187                           ;lcd4x20.c: 68: lcd_put_byte(0,0x30);
  9188  1712  3030               	movlw	(030h)
  9189  1713  1283               	bcf	status, 5	;RP0=0, select bank0
  9190  1714  1303               	bcf	status, 6	;RP1=0, select bank0
  9191  1715  00A4               	movwf	(??_lcd_init+0)+0
  9192  1716  0824               	movf	(??_lcd_init+0)+0,w
  9193  1717  00F4               	movwf	(?_lcd_put_byte)
  9194  1718  3000               	movlw	(0)
  9195  1719  160A  118A  2624   	fcall	_lcd_put_byte
              160A  118A         
  9196                           	line	69
  9197                           	
  9198  171E                     l13090:	
  9199                           ;lcd4x20.c: 69: _delay((unsigned long)((50)*(8000000/4000.0)));
  9200                           	opt asmopt_off
  9201  171E  3082               movlw	130
  9202  171F  1283               	bcf	status, 5	;RP0=0, select bank0
  9203  1720  1303               	bcf	status, 6	;RP1=0, select bank0
  9204  1721  00A5               movwf	((??_lcd_init+0)+0+1),f
  9205  1722  30DD               	movlw	221
  9206  1723  00A4               movwf	((??_lcd_init+0)+0),f
  9207  1724                     u10877:
  9208  1724  0BA4               	decfsz	((??_lcd_init+0)+0),f
  9209  1725  2F24               	goto	u10877
  9210  1726  0BA5               	decfsz	((??_lcd_init+0)+0+1),f
  9211  1727  2F24               	goto	u10877
  9212  1728  2F29               	nop2
  9213                           opt asmopt_on
  9214                           
  9215                           	line	70
  9216                           	
  9217  1729                     l13092:	
  9218                           ;lcd4x20.c: 70: lcd_put_byte(0,0x32);
  9219  1729  3032               	movlw	(032h)
  9220  172A  1283               	bcf	status, 5	;RP0=0, select bank0
  9221  172B  1303               	bcf	status, 6	;RP1=0, select bank0
  9222  172C  00A4               	movwf	(??_lcd_init+0)+0
  9223  172D  0824               	movf	(??_lcd_init+0)+0,w
  9224  172E  00F4               	movwf	(?_lcd_put_byte)
  9225  172F  3000               	movlw	(0)
  9226  1730  160A  118A  2624   	fcall	_lcd_put_byte
              160A  118A         
  9227                           	line	71
  9228                           ;lcd4x20.c: 71: _delay((unsigned long)((100)*(8000000/4000.0)));
  9229                           	opt asmopt_off
  9230  1735  3002               movlw  2
  9231  1736  1283               	bcf	status, 5	;RP0=0, select bank0
  9232  1737  1303               	bcf	status, 6	;RP1=0, select bank0
  9233  1738  00A6               movwf	((??_lcd_init+0)+0+2),f
  9234  1739  3004               movlw	4
  9235  173A  00A5               movwf	((??_lcd_init+0)+0+1),f
  9236  173B  30BA               	movlw	186
  9237  173C  00A4               movwf	((??_lcd_init+0)+0),f
  9238  173D                     u10887:
  9239  173D  0BA4               	decfsz	((??_lcd_init+0)+0),f
  9240  173E  2F3D               	goto	u10887
  9241  173F  0BA5               	decfsz	((??_lcd_init+0)+0+1),f
  9242  1740  2F3D               	goto	u10887
  9243  1741  0BA6               	decfsz	((??_lcd_init+0)+0+2),f
  9244  1742  2F3D               	goto	u10887
  9245  1743  0064               	clrwdt
  9246                           opt asmopt_on
  9247                           
  9248                           	line	72
  9249                           ;lcd4x20.c: 72: _delay((unsigned long)((100)*(8000000/4000.0)));
  9250                           	opt asmopt_off
  9251  1744  3002               movlw  2
  9252  1745  1283               	bcf	status, 5	;RP0=0, select bank0
  9253  1746  1303               	bcf	status, 6	;RP1=0, select bank0
  9254  1747  00A6               movwf	((??_lcd_init+0)+0+2),f
  9255  1748  3004               movlw	4
  9256  1749  00A5               movwf	((??_lcd_init+0)+0+1),f
  9257  174A  30BA               	movlw	186
  9258  174B  00A4               movwf	((??_lcd_init+0)+0),f
  9259  174C                     u10897:
  9260  174C  0BA4               	decfsz	((??_lcd_init+0)+0),f
  9261  174D  2F4C               	goto	u10897
  9262  174E  0BA5               	decfsz	((??_lcd_init+0)+0+1),f
  9263  174F  2F4C               	goto	u10897
  9264  1750  0BA6               	decfsz	((??_lcd_init+0)+0+2),f
  9265  1751  2F4C               	goto	u10897
  9266  1752  0064               	clrwdt
  9267                           opt asmopt_on
  9268                           
  9269                           	line	73
  9270                           ;lcd4x20.c: 73: _delay((unsigned long)((100)*(8000000/4000.0)));
  9271                           	opt asmopt_off
  9272  1753  3002               movlw  2
  9273  1754  1283               	bcf	status, 5	;RP0=0, select bank0
  9274  1755  1303               	bcf	status, 6	;RP1=0, select bank0
  9275  1756  00A6               movwf	((??_lcd_init+0)+0+2),f
  9276  1757  3004               movlw	4
  9277  1758  00A5               movwf	((??_lcd_init+0)+0+1),f
  9278  1759  30BA               	movlw	186
  9279  175A  00A4               movwf	((??_lcd_init+0)+0),f
  9280  175B                     u10907:
  9281  175B  0BA4               	decfsz	((??_lcd_init+0)+0),f
  9282  175C  2F5B               	goto	u10907
  9283  175D  0BA5               	decfsz	((??_lcd_init+0)+0+1),f
  9284  175E  2F5B               	goto	u10907
  9285  175F  0BA6               	decfsz	((??_lcd_init+0)+0+2),f
  9286  1760  2F5B               	goto	u10907
  9287  1761  0064               	clrwdt
  9288                           opt asmopt_on
  9289                           
  9290                           	line	75
  9291                           ;lcd4x20.c: 75: while(lcd_busy());
  9292  1762  2F64               	goto	l13094
  9293                           	
  9294  1763                     l4801:	
  9295  1763  2F64               	goto	l13094
  9296                           	
  9297  1764                     l4800:	
  9298                           	
  9299  1764                     l13094:	
  9300  1764  160A  118A  20EA   	fcall	_lcd_busy
              160A  118A         
  9301  1769  3800               	iorlw	0
  9302  176A  1D03               	skipz
  9303  176B  2F6D               	goto	u9141
  9304  176C  2F6E               	goto	u9140
  9305  176D                     u9141:
  9306  176D  2F64               	goto	l13094
  9307  176E                     u9140:
  9308  176E  2F6F               	goto	l13096
  9309                           	
  9310  176F                     l4802:	
  9311                           	line	76
  9312                           	
  9313  176F                     l13096:	
  9314                           ;lcd4x20.c: 76: lcd_put_byte(0,0b00101100 & 0b00111000);
  9315  176F  3028               	movlw	(028h)
  9316  1770  1283               	bcf	status, 5	;RP0=0, select bank0
  9317  1771  1303               	bcf	status, 6	;RP1=0, select bank0
  9318  1772  00A4               	movwf	(??_lcd_init+0)+0
  9319  1773  0824               	movf	(??_lcd_init+0)+0,w
  9320  1774  00F4               	movwf	(?_lcd_put_byte)
  9321  1775  3000               	movlw	(0)
  9322  1776  160A  118A  2624   	fcall	_lcd_put_byte
              160A  118A         
  9323                           	line	77
  9324                           ;lcd4x20.c: 77: while(lcd_busy());
  9325  177B  2F7D               	goto	l13098
  9326                           	
  9327  177C                     l4804:	
  9328  177C  2F7D               	goto	l13098
  9329                           	
  9330  177D                     l4803:	
  9331                           	
  9332  177D                     l13098:	
  9333  177D  160A  118A  20EA   	fcall	_lcd_busy
              160A  118A         
  9334  1782  3800               	iorlw	0
  9335  1783  1D03               	skipz
  9336  1784  2F86               	goto	u9151
  9337  1785  2F87               	goto	u9150
  9338  1786                     u9151:
  9339  1786  2F7D               	goto	l13098
  9340  1787                     u9150:
  9341  1787  2F88               	goto	l13100
  9342                           	
  9343  1788                     l4805:	
  9344                           	line	79
  9345                           	
  9346  1788                     l13100:	
  9347                           ;lcd4x20.c: 79: lcd_put_byte(0,0b00001011&0b00001101&0b00001110);
  9348  1788  3008               	movlw	(08h)
  9349  1789  1283               	bcf	status, 5	;RP0=0, select bank0
  9350  178A  1303               	bcf	status, 6	;RP1=0, select bank0
  9351  178B  00A4               	movwf	(??_lcd_init+0)+0
  9352  178C  0824               	movf	(??_lcd_init+0)+0,w
  9353  178D  00F4               	movwf	(?_lcd_put_byte)
  9354  178E  3000               	movlw	(0)
  9355  178F  160A  118A  2624   	fcall	_lcd_put_byte
              160A  118A         
  9356                           	line	80
  9357                           ;lcd4x20.c: 80: while(lcd_busy());
  9358  1794  2F96               	goto	l13102
  9359                           	
  9360  1795                     l4807:	
  9361  1795  2F96               	goto	l13102
  9362                           	
  9363  1796                     l4806:	
  9364                           	
  9365  1796                     l13102:	
  9366  1796  160A  118A  20EA   	fcall	_lcd_busy
              160A  118A         
  9367  179B  3800               	iorlw	0
  9368  179C  1D03               	skipz
  9369  179D  2F9F               	goto	u9161
  9370  179E  2FA0               	goto	u9160
  9371  179F                     u9161:
  9372  179F  2F96               	goto	l13102
  9373  17A0                     u9160:
  9374  17A0  2FA1               	goto	l13104
  9375                           	
  9376  17A1                     l4808:	
  9377                           	line	81
  9378                           	
  9379  17A1                     l13104:	
  9380                           ;lcd4x20.c: 81: lcd_put_byte(0,0b00001111&0b00001101&0b00001110);
  9381  17A1  300C               	movlw	(0Ch)
  9382  17A2  1283               	bcf	status, 5	;RP0=0, select bank0
  9383  17A3  1303               	bcf	status, 6	;RP1=0, select bank0
  9384  17A4  00A4               	movwf	(??_lcd_init+0)+0
  9385  17A5  0824               	movf	(??_lcd_init+0)+0,w
  9386  17A6  00F4               	movwf	(?_lcd_put_byte)
  9387  17A7  3000               	movlw	(0)
  9388  17A8  160A  118A  2624   	fcall	_lcd_put_byte
              160A  118A         
  9389                           	line	82
  9390                           ;lcd4x20.c: 82: while(lcd_busy());
  9391  17AD  2FAF               	goto	l13106
  9392                           	
  9393  17AE                     l4810:	
  9394  17AE  2FAF               	goto	l13106
  9395                           	
  9396  17AF                     l4809:	
  9397                           	
  9398  17AF                     l13106:	
  9399  17AF  160A  118A  20EA   	fcall	_lcd_busy
              160A  118A         
  9400  17B4  3800               	iorlw	0
  9401  17B5  1D03               	skipz
  9402  17B6  2FB8               	goto	u9171
  9403  17B7  2FB9               	goto	u9170
  9404  17B8                     u9171:
  9405  17B8  2FAF               	goto	l13106
  9406  17B9                     u9170:
  9407  17B9  2FBA               	goto	l13108
  9408                           	
  9409  17BA                     l4811:	
  9410                           	line	84
  9411                           	
  9412  17BA                     l13108:	
  9413                           ;lcd4x20.c: 84: lcd_put_byte(0,0x01);
  9414  17BA  01F4               	clrf	(?_lcd_put_byte)
  9415  17BB  1403               	bsf	status,0
  9416  17BC  0DF4               	rlf	(?_lcd_put_byte),f
  9417  17BD  3000               	movlw	(0)
  9418  17BE  160A  118A  2624   	fcall	_lcd_put_byte
              160A  118A         
  9419                           	line	85
  9420                           ;lcd4x20.c: 85: while(lcd_busy());
  9421  17C3  2FC5               	goto	l13110
  9422                           	
  9423  17C4                     l4813:	
  9424  17C4  2FC5               	goto	l13110
  9425                           	
  9426  17C5                     l4812:	
  9427                           	
  9428  17C5                     l13110:	
  9429  17C5  160A  118A  20EA   	fcall	_lcd_busy
              160A  118A         
  9430  17CA  3800               	iorlw	0
  9431  17CB  1D03               	skipz
  9432  17CC  2FCE               	goto	u9181
  9433  17CD  2FCF               	goto	u9180
  9434  17CE                     u9181:
  9435  17CE  2FC5               	goto	l13110
  9436  17CF                     u9180:
  9437  17CF  2FD0               	goto	l13112
  9438                           	
  9439  17D0                     l4814:	
  9440                           	line	86
  9441                           	
  9442  17D0                     l13112:	
  9443                           ;lcd4x20.c: 86: lcd_put_byte(0,0b00000100);
  9444  17D0  3004               	movlw	(04h)
  9445  17D1  1283               	bcf	status, 5	;RP0=0, select bank0
  9446  17D2  1303               	bcf	status, 6	;RP1=0, select bank0
  9447  17D3  00A4               	movwf	(??_lcd_init+0)+0
  9448  17D4  0824               	movf	(??_lcd_init+0)+0,w
  9449  17D5  00F4               	movwf	(?_lcd_put_byte)
  9450  17D6  3000               	movlw	(0)
  9451  17D7  160A  118A  2624   	fcall	_lcd_put_byte
              160A  118A         
  9452                           	line	87
  9453                           ;lcd4x20.c: 87: while(lcd_busy());
  9454  17DC  2FDE               	goto	l13114
  9455                           	
  9456  17DD                     l4816:	
  9457  17DD  2FDE               	goto	l13114
  9458                           	
  9459  17DE                     l4815:	
  9460                           	
  9461  17DE                     l13114:	
  9462  17DE  160A  118A  20EA   	fcall	_lcd_busy
              160A  118A         
  9463  17E3  3800               	iorlw	0
  9464  17E4  1D03               	skipz
  9465  17E5  2FE7               	goto	u9191
  9466  17E6  2FE8               	goto	u9190
  9467  17E7                     u9191:
  9468  17E7  2FDE               	goto	l13114
  9469  17E8                     u9190:
  9470  17E8  2FE9               	goto	l13116
  9471                           	
  9472  17E9                     l4817:	
  9473                           	line	88
  9474                           	
  9475  17E9                     l13116:	
  9476                           ;lcd4x20.c: 88: lcd_put_byte(0,0x01);
  9477  17E9  01F4               	clrf	(?_lcd_put_byte)
  9478  17EA  1403               	bsf	status,0
  9479  17EB  0DF4               	rlf	(?_lcd_put_byte),f
  9480  17EC  3000               	movlw	(0)
  9481  17ED  160A  118A  2624   	fcall	_lcd_put_byte
              160A  118A         
  9482                           	line	89
  9483                           ;lcd4x20.c: 89: while(lcd_busy());
  9484  17F2  2FF4               	goto	l13118
  9485                           	
  9486  17F3                     l4819:	
  9487  17F3  2FF4               	goto	l13118
  9488                           	
  9489  17F4                     l4818:	
  9490                           	
  9491  17F4                     l13118:	
  9492  17F4  160A  118A  20EA   	fcall	_lcd_busy
              160A  118A         
  9493  17F9  3800               	iorlw	0
  9494  17FA  1D03               	skipz
  9495  17FB  2FFD               	goto	u9201
  9496  17FC  2FFE               	goto	u9200
  9497  17FD                     u9201:
  9498  17FD  2FF4               	goto	l13118
  9499  17FE                     u9200:
  9500  17FE  2FFF               	goto	l4821
  9501                           	
  9502  17FF                     l4820:	
  9503                           	line	90
  9504                           	
  9505  17FF                     l4821:	
  9506  17FF  0008               	return
  9507                           	opt stack 0
  9508                           GLOBAL	__end_of_lcd_init
  9509  1800                     	__end_of_lcd_init:
  9510 ;; =============== function _lcd_init ends ============
  9511                           
  9512                           	signat	_lcd_init,88
  9513                           	global	_lcd_busy
  9514                           psect	text1420,local,class=CODE,delta=2
  9515                           global __ptext1420
  9516  10EA                     __ptext1420:
  9517                           
  9518 ;; *************** function _lcd_busy *****************
  9519 ;; Defined at:
  9520 ;;		line 99 in file "lcd4x20.c"
  9521 ;; Parameters:    Size  Location     Type
  9522 ;;		None
  9523 ;; Auto vars:     Size  Location     Type
  9524 ;;  busy            1    5[COMMON] unsigned char 
  9525 ;; Return value:  Size  Location     Type
  9526 ;;                  1    wreg      unsigned char 
  9527 ;; Registers used:
  9528 ;;		wreg
  9529 ;; Tracked objects:
  9530 ;;		On entry : 0/0
  9531 ;;		On exit  : 0/0
  9532 ;;		Unchanged: 0/0
  9533 ;; Data sizes:     COMMON   BANK0   BANK1   BANK3   BANK2
  9534 ;;      Params:         0       0       0       0       0
  9535 ;;      Locals:         1       0       0       0       0
  9536 ;;      Temps:          1       0       0       0       0
  9537 ;;      Totals:         2       0       0       0       0
  9538 ;;Total ram usage:        2 bytes
  9539 ;; Hardware stack levels used:    1
  9540 ;; Hardware stack levels required when called:    1
  9541 ;; This function calls:
  9542 ;;		Nothing
  9543 ;; This function is called by:
  9544 ;;		_lcd_init
  9545 ;;		_lcd_putc
  9546 ;;		_lcd_gotoxy
  9547 ;; This function uses a non-reentrant model
  9548 ;;
  9549                           psect	text1420
  9550                           	file	"lcd4x20.c"
  9551                           	line	99
  9552                           	global	__size_of_lcd_busy
  9553  002F                     	__size_of_lcd_busy	equ	__end_of_lcd_busy-_lcd_busy
  9554                           	
  9555  10EA                     _lcd_busy:	
  9556                           	opt	stack 3
  9557                           ; Regs used in _lcd_busy: [wreg]
  9558                           	line	104
  9559                           	
  9560  10EA                     l13068:	
  9561                           ;lcd4x20.c: 101: unsigned char busy;
  9562                           ;lcd4x20.c: 104: TRISA0 = 1;
  9563  10EA  1683               	bsf	status, 5	;RP0=1, select bank1
  9564  10EB  1303               	bcf	status, 6	;RP1=0, select bank1
  9565  10EC  1405               	bsf	(1064/8)^080h,(1064)&7
  9566                           	line	105
  9567                           ;lcd4x20.c: 105: TRISA1 = 1;
  9568  10ED  1485               	bsf	(1065/8)^080h,(1065)&7
  9569                           	line	106
  9570                           ;lcd4x20.c: 106: TRISA2 = 1;
  9571  10EE  1505               	bsf	(1066/8)^080h,(1066)&7
  9572                           	line	107
  9573                           ;lcd4x20.c: 107: TRISA3 = 1;
  9574  10EF  1585               	bsf	(1067/8)^080h,(1067)&7
  9575                           	line	109
  9576                           ;lcd4x20.c: 109: RA5 = 1;
  9577  10F0  1283               	bcf	status, 5	;RP0=0, select bank0
  9578  10F1  1303               	bcf	status, 6	;RP1=0, select bank0
  9579  10F2  1685               	bsf	(45/8),(45)&7
  9580                           	line	110
  9581                           ;lcd4x20.c: 110: RA4 = 0;
  9582  10F3  1205               	bcf	(44/8),(44)&7
  9583                           	line	111
  9584                           	
  9585  10F4                     l13070:	
  9586                           ;lcd4x20.c: 111: _delay((unsigned long)((20)*(8000000/4000000.0)));
  9587                           	opt asmopt_off
  9588  10F4  300D               movlw	13
  9589  10F5  00F4               movwf	(??_lcd_busy+0)+0,f
  9590  10F6                     u10917:
  9591  10F6  0BF4               decfsz	(??_lcd_busy+0)+0,f
  9592  10F7  28F6               	goto	u10917
  9593                           opt asmopt_on
  9594                           
  9595                           	line	112
  9596                           	
  9597  10F8                     l13072:	
  9598                           ;lcd4x20.c: 112: RE0 = 1;
  9599  10F8  1283               	bcf	status, 5	;RP0=0, select bank0
  9600  10F9  1303               	bcf	status, 6	;RP1=0, select bank0
  9601  10FA  1409               	bsf	(72/8),(72)&7
  9602                           	line	113
  9603                           ;lcd4x20.c: 113: _delay((unsigned long)((20)*(8000000/4000000.0)));
  9604                           	opt asmopt_off
  9605  10FB  300D               movlw	13
  9606  10FC  00F4               movwf	(??_lcd_busy+0)+0,f
  9607  10FD                     u10927:
  9608  10FD  0BF4               decfsz	(??_lcd_busy+0)+0,f
  9609  10FE  28FD               	goto	u10927
  9610                           opt asmopt_on
  9611                           
  9612                           	line	115
  9613                           ;lcd4x20.c: 115: busy = RA3;
  9614  10FF  3000               	movlw	0
  9615  1100  1283               	bcf	status, 5	;RP0=0, select bank0
  9616  1101  1303               	bcf	status, 6	;RP1=0, select bank0
  9617  1102  1985               	btfsc	(43/8),(43)&7
  9618  1103  3001               	movlw	1
  9619  1104  00F4               	movwf	(??_lcd_busy+0)+0
  9620  1105  0874               	movf	(??_lcd_busy+0)+0,w
  9621  1106  00F5               	movwf	(lcd_busy@busy)
  9622                           	line	117
  9623                           	
  9624  1107                     l13074:	
  9625                           ;lcd4x20.c: 117: RE0 = 0;
  9626  1107  1009               	bcf	(72/8),(72)&7
  9627                           	line	118
  9628                           ;lcd4x20.c: 118: _delay((unsigned long)((20)*(8000000/4000000.0)));
  9629                           	opt asmopt_off
  9630  1108  300D               movlw	13
  9631  1109  00F4               movwf	(??_lcd_busy+0)+0,f
  9632  110A                     u10937:
  9633  110A  0BF4               decfsz	(??_lcd_busy+0)+0,f
  9634  110B  290A               	goto	u10937
  9635                           opt asmopt_on
  9636                           
  9637                           	line	119
  9638                           	
  9639  110C                     l13076:	
  9640                           ;lcd4x20.c: 119: RE0 = 1;
  9641  110C  1283               	bcf	status, 5	;RP0=0, select bank0
  9642  110D  1303               	bcf	status, 6	;RP1=0, select bank0
  9643  110E  1409               	bsf	(72/8),(72)&7
  9644                           	line	120
  9645                           ;lcd4x20.c: 120: _delay((unsigned long)((20)*(8000000/4000000.0)));
  9646                           	opt asmopt_off
  9647  110F  300D               movlw	13
  9648  1110  00F4               movwf	(??_lcd_busy+0)+0,f
  9649  1111                     u10947:
  9650  1111  0BF4               decfsz	(??_lcd_busy+0)+0,f
  9651  1112  2911               	goto	u10947
  9652                           opt asmopt_on
  9653                           
  9654                           	line	121
  9655                           	
  9656  1113                     l13078:	
  9657                           ;lcd4x20.c: 121: RE0 = 0;
  9658  1113  1283               	bcf	status, 5	;RP0=0, select bank0
  9659  1114  1303               	bcf	status, 6	;RP1=0, select bank0
  9660  1115  1009               	bcf	(72/8),(72)&7
  9661                           	line	123
  9662                           ;lcd4x20.c: 123: return busy;
  9663  1116  0875               	movf	(lcd_busy@busy),w
  9664  1117  2918               	goto	l4824
  9665                           	
  9666  1118                     l13080:	
  9667                           	line	124
  9668                           	
  9669  1118                     l4824:	
  9670  1118  0008               	return
  9671                           	opt stack 0
  9672                           GLOBAL	__end_of_lcd_busy
  9673  1119                     	__end_of_lcd_busy:
  9674 ;; =============== function _lcd_busy ends ============
  9675                           
  9676                           	signat	_lcd_busy,89
  9677                           	global	_lcd_put_byte
  9678                           psect	text1421,local,class=CODE,delta=2
  9679                           global __ptext1421
  9680  1624                     __ptext1421:
  9681                           
  9682 ;; *************** function _lcd_put_byte *****************
  9683 ;; Defined at:
  9684 ;;		line 184 in file "lcd4x20.c"
  9685 ;; Parameters:    Size  Location     Type
  9686 ;;  rs              1    wreg     unsigned char 
  9687 ;;  b               1    4[COMMON] unsigned char 
  9688 ;; Auto vars:     Size  Location     Type
  9689 ;;  rs              1    2[BANK0 ] unsigned char 
  9690 ;;  temp            1    3[BANK0 ] struct _BYTE_VAL
  9691 ;; Return value:  Size  Location     Type
  9692 ;;		None               void
  9693 ;; Registers used:
  9694 ;;		wreg, status,2, status,0
  9695 ;; Tracked objects:
  9696 ;;		On entry : 0/0
  9697 ;;		On exit  : 0/0
  9698 ;;		Unchanged: 0/0
  9699 ;; Data sizes:     COMMON   BANK0   BANK1   BANK3   BANK2
  9700 ;;      Params:         1       0       0       0       0
  9701 ;;      Locals:         0       2       0       0       0
  9702 ;;      Temps:          0       2       0       0       0
  9703 ;;      Totals:         1       4       0       0       0
  9704 ;;Total ram usage:        5 bytes
  9705 ;; Hardware stack levels used:    1
  9706 ;; Hardware stack levels required when called:    1
  9707 ;; This function calls:
  9708 ;;		Nothing
  9709 ;; This function is called by:
  9710 ;;		_lcd_init
  9711 ;;		_lcd_putc
  9712 ;;		_lcd_gotoxy
  9713 ;; This function uses a non-reentrant model
  9714 ;;
  9715                           psect	text1421
  9716                           	file	"lcd4x20.c"
  9717                           	line	184
  9718                           	global	__size_of_lcd_put_byte
  9719  00BC                     	__size_of_lcd_put_byte	equ	__end_of_lcd_put_byte-_lcd_put_byte
  9720                           	
  9721  1624                     _lcd_put_byte:	
  9722                           	opt	stack 3
  9723                           ; Regs used in _lcd_put_byte: [wreg+status,2+status,0]
  9724                           ;lcd_put_byte@rs stored from wreg
  9725                           	line	189
  9726  1624  1283               	bcf	status, 5	;RP0=0, select bank0
  9727  1625  1303               	bcf	status, 6	;RP1=0, select bank0
  9728  1626  00A2               	movwf	(lcd_put_byte@rs)
  9729                           	
  9730  1627                     l13032:	
  9731                           ;lcd4x20.c: 186: BYTE_VAL temp;
  9732                           ;lcd4x20.c: 189: TRISA0 = 0;
  9733  1627  1683               	bsf	status, 5	;RP0=1, select bank1
  9734  1628  1303               	bcf	status, 6	;RP1=0, select bank1
  9735  1629  1005               	bcf	(1064/8)^080h,(1064)&7
  9736                           	line	190
  9737                           ;lcd4x20.c: 190: TRISA1 = 0;
  9738  162A  1085               	bcf	(1065/8)^080h,(1065)&7
  9739                           	line	191
  9740                           ;lcd4x20.c: 191: TRISA2 = 0;
  9741  162B  1105               	bcf	(1066/8)^080h,(1066)&7
  9742                           	line	192
  9743                           ;lcd4x20.c: 192: TRISA3 = 0;
  9744  162C  1185               	bcf	(1067/8)^080h,(1067)&7
  9745                           	line	194
  9746                           ;lcd4x20.c: 194: RA4 = 0;
  9747  162D  1283               	bcf	status, 5	;RP0=0, select bank0
  9748  162E  1303               	bcf	status, 6	;RP1=0, select bank0
  9749  162F  1205               	bcf	(44/8),(44)&7
  9750                           	line	195
  9751                           	
  9752  1630                     l13034:	
  9753                           ;lcd4x20.c: 195: if(rs) RA4 = 1;
  9754  1630  0822               	movf	(lcd_put_byte@rs),w
  9755  1631  1D03               	skipz
  9756  1632  2E34               	goto	u8970
  9757  1633  2E36               	goto	l13038
  9758  1634                     u8970:
  9759                           	
  9760  1634                     l13036:	
  9761  1634  1605               	bsf	(44/8),(44)&7
  9762  1635  2E36               	goto	l13038
  9763                           	
  9764  1636                     l4831:	
  9765                           	line	197
  9766                           	
  9767  1636                     l13038:	
  9768                           ;lcd4x20.c: 197: _delay((unsigned long)((20)*(8000000/4000000.0)));
  9769                           	opt asmopt_off
  9770  1636  300D               movlw	13
  9771  1637  00A0               movwf	(??_lcd_put_byte+0)+0,f
  9772  1638                     u10957:
  9773  1638  0BA0               decfsz	(??_lcd_put_byte+0)+0,f
  9774  1639  2E38               	goto	u10957
  9775                           opt asmopt_on
  9776                           
  9777                           	line	198
  9778                           	
  9779  163A                     l13040:	
  9780                           ;lcd4x20.c: 198: RA5 = 0;
  9781  163A  1283               	bcf	status, 5	;RP0=0, select bank0
  9782  163B  1303               	bcf	status, 6	;RP1=0, select bank0
  9783  163C  1285               	bcf	(45/8),(45)&7
  9784                           	line	199
  9785                           ;lcd4x20.c: 199: _delay((unsigned long)((20)*(8000000/4000000.0)));
  9786                           	opt asmopt_off
  9787  163D  300D               movlw	13
  9788  163E  00A0               movwf	(??_lcd_put_byte+0)+0,f
  9789  163F                     u10967:
  9790  163F  0BA0               decfsz	(??_lcd_put_byte+0)+0,f
  9791  1640  2E3F               	goto	u10967
  9792                           opt asmopt_on
  9793                           
  9794                           	line	200
  9795                           	
  9796  1641                     l13042:	
  9797                           ;lcd4x20.c: 200: RE0 = 0;
  9798  1641  1283               	bcf	status, 5	;RP0=0, select bank0
  9799  1642  1303               	bcf	status, 6	;RP1=0, select bank0
  9800  1643  1009               	bcf	(72/8),(72)&7
  9801                           	line	202
  9802                           ;lcd4x20.c: 202: temp.Val = b;
  9803  1644  0874               	movf	(lcd_put_byte@b),w
  9804  1645  00A0               	movwf	(??_lcd_put_byte+0)+0
  9805  1646  0820               	movf	(??_lcd_put_byte+0)+0,w
  9806  1647  00A3               	movwf	(lcd_put_byte@temp)
  9807                           	line	204
  9808                           	
  9809  1648                     l13044:	
  9810                           ;lcd4x20.c: 204: RA0 = temp.bits.b4;
  9811  1648  0E23               	swapf	(lcd_put_byte@temp),w
  9812  1649  3901               	andlw	(1<<1)-1
  9813  164A  00A0               	movwf	(??_lcd_put_byte+0)+0
  9814  164B  0C20               	rrf	(??_lcd_put_byte+0)+0,w
  9815  164C  1803               	btfsc	status,0
  9816  164D  2E4F               	goto	u8981
  9817  164E  2E53               	goto	u8980
  9818                           	
  9819  164F                     u8981:
  9820  164F  1283               	bcf	status, 5	;RP0=0, select bank0
  9821  1650  1303               	bcf	status, 6	;RP1=0, select bank0
  9822  1651  1405               	bsf	(40/8),(40)&7
  9823  1652  2E56               	goto	u8994
  9824  1653                     u8980:
  9825  1653  1283               	bcf	status, 5	;RP0=0, select bank0
  9826  1654  1303               	bcf	status, 6	;RP1=0, select bank0
  9827  1655  1005               	bcf	(40/8),(40)&7
  9828  1656                     u8994:
  9829                           	line	205
  9830                           	
  9831  1656                     l13046:	
  9832                           ;lcd4x20.c: 205: RA1 = temp.bits.b5;
  9833  1656  0E23               	swapf	(lcd_put_byte@temp),w
  9834  1657  00A0               	movwf	(??_lcd_put_byte+0)+0
  9835  1658  0C20               	rrf	(??_lcd_put_byte+0)+0,w
  9836  1659  3901               	andlw	(1<<1)-1
  9837  165A  00A1               	movwf	(??_lcd_put_byte+1)+0
  9838  165B  0C21               	rrf	(??_lcd_put_byte+1)+0,w
  9839  165C  1803               	btfsc	status,0
  9840  165D  2E5F               	goto	u9001
  9841  165E  2E63               	goto	u9000
  9842                           	
  9843  165F                     u9001:
  9844  165F  1283               	bcf	status, 5	;RP0=0, select bank0
  9845  1660  1303               	bcf	status, 6	;RP1=0, select bank0
  9846  1661  1485               	bsf	(41/8),(41)&7
  9847  1662  2E66               	goto	u9014
  9848  1663                     u9000:
  9849  1663  1283               	bcf	status, 5	;RP0=0, select bank0
  9850  1664  1303               	bcf	status, 6	;RP1=0, select bank0
  9851  1665  1085               	bcf	(41/8),(41)&7
  9852  1666                     u9014:
  9853                           	line	206
  9854                           	
  9855  1666                     l13048:	
  9856                           ;lcd4x20.c: 206: RA2 = temp.bits.b6;
  9857  1666  0E23               	swapf	(lcd_put_byte@temp),w
  9858  1667  00A0               	movwf	(??_lcd_put_byte+0)+0
  9859  1668  0CA0               	rrf	(??_lcd_put_byte+0)+0,f
  9860  1669  0C20               	rrf	(??_lcd_put_byte+0)+0,w
  9861  166A  3901               	andlw	(1<<1)-1
  9862  166B  00A1               	movwf	(??_lcd_put_byte+1)+0
  9863  166C  0C21               	rrf	(??_lcd_put_byte+1)+0,w
  9864  166D  1803               	btfsc	status,0
  9865  166E  2E70               	goto	u9021
  9866  166F  2E74               	goto	u9020
  9867                           	
  9868  1670                     u9021:
  9869  1670  1283               	bcf	status, 5	;RP0=0, select bank0
  9870  1671  1303               	bcf	status, 6	;RP1=0, select bank0
  9871  1672  1505               	bsf	(42/8),(42)&7
  9872  1673  2E77               	goto	u9034
  9873  1674                     u9020:
  9874  1674  1283               	bcf	status, 5	;RP0=0, select bank0
  9875  1675  1303               	bcf	status, 6	;RP1=0, select bank0
  9876  1676  1105               	bcf	(42/8),(42)&7
  9877  1677                     u9034:
  9878                           	line	207
  9879                           	
  9880  1677                     l13050:	
  9881                           ;lcd4x20.c: 207: RA3 = temp.bits.b7;
  9882  1677  0D23               	rlf	(lcd_put_byte@temp),w
  9883  1678  0D23               	rlf	(lcd_put_byte@temp),w
  9884  1679  3901               	andlw	1
  9885  167A  00A0               	movwf	(??_lcd_put_byte+0)+0
  9886  167B  0C20               	rrf	(??_lcd_put_byte+0)+0,w
  9887  167C  1803               	btfsc	status,0
  9888  167D  2E7F               	goto	u9041
  9889  167E  2E83               	goto	u9040
  9890                           	
  9891  167F                     u9041:
  9892  167F  1283               	bcf	status, 5	;RP0=0, select bank0
  9893  1680  1303               	bcf	status, 6	;RP1=0, select bank0
  9894  1681  1585               	bsf	(43/8),(43)&7
  9895  1682  2E86               	goto	u9054
  9896  1683                     u9040:
  9897  1683  1283               	bcf	status, 5	;RP0=0, select bank0
  9898  1684  1303               	bcf	status, 6	;RP1=0, select bank0
  9899  1685  1185               	bcf	(43/8),(43)&7
  9900  1686                     u9054:
  9901                           	line	209
  9902                           ;lcd4x20.c: 209: _delay((unsigned long)((20)*(8000000/4000000.0)));
  9903                           	opt asmopt_off
  9904  1686  300D               movlw	13
  9905  1687  00A0               movwf	(??_lcd_put_byte+0)+0,f
  9906  1688                     u10977:
  9907  1688  0BA0               decfsz	(??_lcd_put_byte+0)+0,f
  9908  1689  2E88               	goto	u10977
  9909                           opt asmopt_on
  9910                           
  9911                           	line	210
  9912                           	
  9913  168A                     l13052:	
  9914                           ;lcd4x20.c: 210: RE0 = 1;
  9915  168A  1283               	bcf	status, 5	;RP0=0, select bank0
  9916  168B  1303               	bcf	status, 6	;RP1=0, select bank0
  9917  168C  1409               	bsf	(72/8),(72)&7
  9918                           	line	211
  9919                           ;lcd4x20.c: 211: _delay((unsigned long)((20)*(8000000/4000000.0)));
  9920                           	opt asmopt_off
  9921  168D  300D               movlw	13
  9922  168E  00A0               movwf	(??_lcd_put_byte+0)+0,f
  9923  168F                     u10987:
  9924  168F  0BA0               decfsz	(??_lcd_put_byte+0)+0,f
  9925  1690  2E8F               	goto	u10987
  9926                           opt asmopt_on
  9927                           
  9928                           	line	212
  9929                           	
  9930  1691                     l13054:	
  9931                           ;lcd4x20.c: 212: RE0 = 0;
  9932  1691  1283               	bcf	status, 5	;RP0=0, select bank0
  9933  1692  1303               	bcf	status, 6	;RP1=0, select bank0
  9934  1693  1009               	bcf	(72/8),(72)&7
  9935                           	line	214
  9936                           	
  9937  1694                     l13056:	
  9938                           ;lcd4x20.c: 214: RA0 = temp.bits.b0;
  9939  1694  0823               	movf	(lcd_put_byte@temp),w
  9940  1695  3901               	andlw	(1<<1)-1
  9941  1696  00A0               	movwf	(??_lcd_put_byte+0)+0
  9942  1697  0C20               	rrf	(??_lcd_put_byte+0)+0,w
  9943  1698  1803               	btfsc	status,0
  9944  1699  2E9B               	goto	u9061
  9945  169A  2E9F               	goto	u9060
  9946                           	
  9947  169B                     u9061:
  9948  169B  1283               	bcf	status, 5	;RP0=0, select bank0
  9949  169C  1303               	bcf	status, 6	;RP1=0, select bank0
  9950  169D  1405               	bsf	(40/8),(40)&7
  9951  169E  2EA2               	goto	u9074
  9952  169F                     u9060:
  9953  169F  1283               	bcf	status, 5	;RP0=0, select bank0
  9954  16A0  1303               	bcf	status, 6	;RP1=0, select bank0
  9955  16A1  1005               	bcf	(40/8),(40)&7
  9956  16A2                     u9074:
  9957                           	line	215
  9958                           	
  9959  16A2                     l13058:	
  9960                           ;lcd4x20.c: 215: RA1 = temp.bits.b1;
  9961  16A2  0C23               	rrf	(lcd_put_byte@temp),w
  9962  16A3  3901               	andlw	(1<<1)-1
  9963  16A4  00A0               	movwf	(??_lcd_put_byte+0)+0
  9964  16A5  0C20               	rrf	(??_lcd_put_byte+0)+0,w
  9965  16A6  1803               	btfsc	status,0
  9966  16A7  2EA9               	goto	u9081
  9967  16A8  2EAD               	goto	u9080
  9968                           	
  9969  16A9                     u9081:
  9970  16A9  1283               	bcf	status, 5	;RP0=0, select bank0
  9971  16AA  1303               	bcf	status, 6	;RP1=0, select bank0
  9972  16AB  1485               	bsf	(41/8),(41)&7
  9973  16AC  2EB0               	goto	u9094
  9974  16AD                     u9080:
  9975  16AD  1283               	bcf	status, 5	;RP0=0, select bank0
  9976  16AE  1303               	bcf	status, 6	;RP1=0, select bank0
  9977  16AF  1085               	bcf	(41/8),(41)&7
  9978  16B0                     u9094:
  9979                           	line	216
  9980                           	
  9981  16B0                     l13060:	
  9982                           ;lcd4x20.c: 216: RA2 = temp.bits.b2;
  9983  16B0  0C23               	rrf	(lcd_put_byte@temp),w
  9984  16B1  00A0               	movwf	(??_lcd_put_byte+0)+0
  9985  16B2  0C20               	rrf	(??_lcd_put_byte+0)+0,w
  9986  16B3  3901               	andlw	(1<<1)-1
  9987  16B4  00A1               	movwf	(??_lcd_put_byte+1)+0
  9988  16B5  0C21               	rrf	(??_lcd_put_byte+1)+0,w
  9989  16B6  1803               	btfsc	status,0
  9990  16B7  2EB9               	goto	u9101
  9991  16B8  2EBD               	goto	u9100
  9992                           	
  9993  16B9                     u9101:
  9994  16B9  1283               	bcf	status, 5	;RP0=0, select bank0
  9995  16BA  1303               	bcf	status, 6	;RP1=0, select bank0
  9996  16BB  1505               	bsf	(42/8),(42)&7
  9997  16BC  2EC0               	goto	u9114
  9998  16BD                     u9100:
  9999  16BD  1283               	bcf	status, 5	;RP0=0, select bank0
 10000  16BE  1303               	bcf	status, 6	;RP1=0, select bank0
 10001  16BF  1105               	bcf	(42/8),(42)&7
 10002  16C0                     u9114:
 10003                           	line	217
 10004                           	
 10005  16C0                     l13062:	
 10006                           ;lcd4x20.c: 217: RA3 = temp.bits.b3;
 10007  16C0  0C23               	rrf	(lcd_put_byte@temp),w
 10008  16C1  00A0               	movwf	(??_lcd_put_byte+0)+0
 10009  16C2  0CA0               	rrf	(??_lcd_put_byte+0)+0,f
 10010  16C3  0C20               	rrf	(??_lcd_put_byte+0)+0,w
 10011  16C4  3901               	andlw	(1<<1)-1
 10012  16C5  00A1               	movwf	(??_lcd_put_byte+1)+0
 10013  16C6  0C21               	rrf	(??_lcd_put_byte+1)+0,w
 10014  16C7  1803               	btfsc	status,0
 10015  16C8  2ECA               	goto	u9121
 10016  16C9  2ECE               	goto	u9120
 10017                           	
 10018  16CA                     u9121:
 10019  16CA  1283               	bcf	status, 5	;RP0=0, select bank0
 10020  16CB  1303               	bcf	status, 6	;RP1=0, select bank0
 10021  16CC  1585               	bsf	(43/8),(43)&7
 10022  16CD  2ED1               	goto	u9134
 10023  16CE                     u9120:
 10024  16CE  1283               	bcf	status, 5	;RP0=0, select bank0
 10025  16CF  1303               	bcf	status, 6	;RP1=0, select bank0
 10026  16D0  1185               	bcf	(43/8),(43)&7
 10027  16D1                     u9134:
 10028                           	line	219
 10029                           ;lcd4x20.c: 219: _delay((unsigned long)((20)*(8000000/4000000.0)));
 10030                           	opt asmopt_off
 10031  16D1  300D               movlw	13
 10032  16D2  00A0               movwf	(??_lcd_put_byte+0)+0,f
 10033  16D3                     u10997:
 10034  16D3  0BA0               decfsz	(??_lcd_put_byte+0)+0,f
 10035  16D4  2ED3               	goto	u10997
 10036                           opt asmopt_on
 10037                           
 10038                           	line	220
 10039                           	
 10040  16D5                     l13064:	
 10041                           ;lcd4x20.c: 220: RE0 = 1;
 10042  16D5  1283               	bcf	status, 5	;RP0=0, select bank0
 10043  16D6  1303               	bcf	status, 6	;RP1=0, select bank0
 10044  16D7  1409               	bsf	(72/8),(72)&7
 10045                           	line	221
 10046                           ;lcd4x20.c: 221: _delay((unsigned long)((20)*(8000000/4000000.0)));
 10047                           	opt asmopt_off
 10048  16D8  300D               movlw	13
 10049  16D9  00A0               movwf	(??_lcd_put_byte+0)+0,f
 10050  16DA                     u11007:
 10051  16DA  0BA0               decfsz	(??_lcd_put_byte+0)+0,f
 10052  16DB  2EDA               	goto	u11007
 10053                           opt asmopt_on
 10054                           
 10055                           	line	222
 10056                           	
 10057  16DC                     l13066:	
 10058                           ;lcd4x20.c: 222: RE0 = 0;
 10059  16DC  1283               	bcf	status, 5	;RP0=0, select bank0
 10060  16DD  1303               	bcf	status, 6	;RP1=0, select bank0
 10061  16DE  1009               	bcf	(72/8),(72)&7
 10062                           	line	223
 10063                           	
 10064  16DF                     l4832:	
 10065  16DF  0008               	return
 10066                           	opt stack 0
 10067                           GLOBAL	__end_of_lcd_put_byte
 10068  16E0                     	__end_of_lcd_put_byte:
 10069 ;; =============== function _lcd_put_byte ends ============
 10070                           
 10071                           	signat	_lcd_put_byte,8312
 10072                           	global	_chuyenluoi
 10073                           psect	text1422,local,class=CODE,delta=2
 10074                           global __ptext1422
 10075  11D9                     __ptext1422:
 10076                           
 10077 ;; *************** function _chuyenluoi *****************
 10078 ;; Defined at:
 10079 ;;		line 973 in file "main.c"
 10080 ;; Parameters:    Size  Location     Type
 10081 ;;		None
 10082 ;; Auto vars:     Size  Location     Type
 10083 ;;  i               2   16[BANK0 ] unsigned int 
 10084 ;;  pulse           2   14[BANK0 ] int 
 10085 ;;  count           2   12[BANK0 ] int 
 10086 ;;  tong            2   10[BANK0 ] int 
 10087 ;; Return value:  Size  Location     Type
 10088 ;;		None               void
 10089 ;; Registers used:
 10090 ;;		wreg, status,2, status,0, pclath, cstack
 10091 ;; Tracked objects:
 10092 ;;		On entry : 0/0
 10093 ;;		On exit  : 0/0
 10094 ;;		Unchanged: 0/0
 10095 ;; Data sizes:     COMMON   BANK0   BANK1   BANK3   BANK2
 10096 ;;      Params:         0       0       0       0       0
 10097 ;;      Locals:         0       8       0       0       0
 10098 ;;      Temps:          0       2       0       0       0
 10099 ;;      Totals:         0      10       0       0       0
 10100 ;;Total ram usage:       10 bytes
 10101 ;; Hardware stack levels used:    1
 10102 ;; Hardware stack levels required when called:    2
 10103 ;; This function calls:
 10104 ;;		___awdiv
 10105 ;; This function is called by:
 10106 ;;		_CuaStart
 10107 ;;		_CuaStart2
 10108 ;; This function uses a non-reentrant model
 10109 ;;
 10110                           psect	text1422
 10111                           	file	"main.c"
 10112                           	line	973
 10113                           	global	__size_of_chuyenluoi
 10114  0047                     	__size_of_chuyenluoi	equ	__end_of_chuyenluoi-_chuyenluoi
 10115                           	
 10116  11D9                     _chuyenluoi:	
 10117                           	opt	stack 4
 10118                           ; Regs used in _chuyenluoi: [wreg+status,2+status,0+pclath+cstack]
 10119                           	line	974
 10120                           	
 10121  11D9                     l13018:	
 10122                           ;main.c: 974: int pulse = 24000, tong = 0, count = 0;
 10123  11D9  30C0               	movlw	low(05DC0h)
 10124  11DA  1283               	bcf	status, 5	;RP0=0, select bank0
 10125  11DB  1303               	bcf	status, 6	;RP1=0, select bank0
 10126  11DC  00AE               	movwf	(chuyenluoi@pulse)
 10127  11DD  305D               	movlw	high(05DC0h)
 10128  11DE  00AF               	movwf	((chuyenluoi@pulse))+1
 10129                           	
 10130  11DF                     l13020:	
 10131  11DF  01AA               	clrf	(chuyenluoi@tong)
 10132  11E0  01AB               	clrf	(chuyenluoi@tong+1)
 10133                           	
 10134  11E1                     l13022:	
 10135  11E1  01AC               	clrf	(chuyenluoi@count)
 10136  11E2  01AD               	clrf	(chuyenluoi@count+1)
 10137                           	line	975
 10138                           	
 10139  11E3                     l13024:	
 10140                           ;main.c: 975: pulse = 24000 / SoLuoi;
 10141  11E3  085D               	movf	(_SoLuoi),w
 10142  11E4  00A8               	movwf	(??_chuyenluoi+0)+0
 10143  11E5  01A9               	clrf	(??_chuyenluoi+0)+0+1
 10144  11E6  0828               	movf	0+(??_chuyenluoi+0)+0,w
 10145  11E7  00A0               	movwf	(?___awdiv)
 10146  11E8  0829               	movf	1+(??_chuyenluoi+0)+0,w
 10147  11E9  00A1               	movwf	(?___awdiv+1)
 10148  11EA  30C0               	movlw	low(05DC0h)
 10149  11EB  00A2               	movwf	0+(?___awdiv)+02h
 10150  11EC  305D               	movlw	high(05DC0h)
 10151  11ED  00A3               	movwf	(0+(?___awdiv)+02h)+1
 10152  11EE  160A  118A  2343   	fcall	___awdiv
              160A  118A         
 10153  11F3  1283               	bcf	status, 5	;RP0=0, select bank0
 10154  11F4  1303               	bcf	status, 6	;RP1=0, select bank0
 10155  11F5  0821               	movf	(1+(?___awdiv)),w
 10156  11F6  01AF               	clrf	(chuyenluoi@pulse+1)
 10157  11F7  07AF               	addwf	(chuyenluoi@pulse+1)
 10158  11F8  0820               	movf	(0+(?___awdiv)),w
 10159  11F9  01AE               	clrf	(chuyenluoi@pulse)
 10160  11FA  07AE               	addwf	(chuyenluoi@pulse)
 10161                           
 10162                           	line	976
 10163                           	
 10164  11FB                     l13026:	
 10165                           ;main.c: 976: for (unsigned int i = 0; i < pulse; i++) {
 10166  11FB  01B0               	clrf	(chuyenluoi@i)
 10167  11FC  01B1               	clrf	(chuyenluoi@i+1)
 10168  11FD  2A14               	goto	l1476
 10169                           	
 10170  11FE                     l1477:	
 10171                           	line	977
 10172                           ;main.c: 977: RC1 = 1;
 10173  11FE  1487               	bsf	(57/8),(57)&7
 10174                           	line	978
 10175                           	
 10176  11FF                     l13028:	
 10177                           ;main.c: 978: _delay((unsigned long)((40)*(8000000/4000000.0)));
 10178                           	opt asmopt_off
 10179  11FF  301A               movlw	26
 10180  1200  00A8               movwf	(??_chuyenluoi+0)+0,f
 10181  1201                     u11017:
 10182  1201  0BA8               decfsz	(??_chuyenluoi+0)+0,f
 10183  1202  2A01               	goto	u11017
 10184  1203  0064               	clrwdt
 10185                           opt asmopt_on
 10186                           
 10187                           	line	979
 10188                           	
 10189  1204                     l13030:	
 10190                           ;main.c: 979: RC1 = 0;
 10191  1204  1283               	bcf	status, 5	;RP0=0, select bank0
 10192  1205  1303               	bcf	status, 6	;RP1=0, select bank0
 10193  1206  1087               	bcf	(57/8),(57)&7
 10194                           	line	980
 10195                           ;main.c: 980: _delay((unsigned long)((40)*(8000000/4000000.0)));
 10196                           	opt asmopt_off
 10197  1207  301A               movlw	26
 10198  1208  00A8               movwf	(??_chuyenluoi+0)+0,f
 10199  1209                     u11027:
 10200  1209  0BA8               decfsz	(??_chuyenluoi+0)+0,f
 10201  120A  2A09               	goto	u11027
 10202  120B  0064               	clrwdt
 10203                           opt asmopt_on
 10204                           
 10205                           	line	976
 10206  120C  3001               	movlw	low(01h)
 10207  120D  1283               	bcf	status, 5	;RP0=0, select bank0
 10208  120E  1303               	bcf	status, 6	;RP1=0, select bank0
 10209  120F  07B0               	addwf	(chuyenluoi@i),f
 10210  1210  1803               	skipnc
 10211  1211  0AB1               	incf	(chuyenluoi@i+1),f
 10212  1212  3000               	movlw	high(01h)
 10213  1213  07B1               	addwf	(chuyenluoi@i+1),f
 10214                           	
 10215  1214                     l1476:	
 10216  1214  082F               	movf	(chuyenluoi@pulse+1),w
 10217  1215  0231               	subwf	(chuyenluoi@i+1),w
 10218  1216  1D03               	skipz
 10219  1217  2A1A               	goto	u8965
 10220  1218  082E               	movf	(chuyenluoi@pulse),w
 10221  1219  0230               	subwf	(chuyenluoi@i),w
 10222  121A                     u8965:
 10223  121A  1C03               	skipc
 10224  121B  2A1D               	goto	u8961
 10225  121C  2A1E               	goto	u8960
 10226  121D                     u8961:
 10227  121D  29FE               	goto	l1477
 10228  121E                     u8960:
 10229  121E  2A1F               	goto	l1479
 10230                           	
 10231  121F                     l1478:	
 10232                           	line	982
 10233                           	
 10234  121F                     l1479:	
 10235  121F  0008               	return
 10236                           	opt stack 0
 10237                           GLOBAL	__end_of_chuyenluoi
 10238  1220                     	__end_of_chuyenluoi:
 10239 ;; =============== function _chuyenluoi ends ============
 10240                           
 10241                           	signat	_chuyenluoi,88
 10242                           	global	_MotorEpTruc
 10243                           psect	text1423,local,class=CODE,delta=2
 10244                           global __ptext1423
 10245  1E45                     __ptext1423:
 10246                           
 10247 ;; *************** function _MotorEpTruc *****************
 10248 ;; Defined at:
 10249 ;;		line 914 in file "main.c"
 10250 ;; Parameters:    Size  Location     Type
 10251 ;;		None
 10252 ;; Auto vars:     Size  Location     Type
 10253 ;;		None
 10254 ;; Return value:  Size  Location     Type
 10255 ;;		None               void
 10256 ;; Registers used:
 10257 ;;		wreg
 10258 ;; Tracked objects:
 10259 ;;		On entry : 0/0
 10260 ;;		On exit  : 0/0
 10261 ;;		Unchanged: 0/0
 10262 ;; Data sizes:     COMMON   BANK0   BANK1   BANK3   BANK2
 10263 ;;      Params:         0       0       0       0       0
 10264 ;;      Locals:         0       0       0       0       0
 10265 ;;      Temps:          2       0       0       0       0
 10266 ;;      Totals:         2       0       0       0       0
 10267 ;;Total ram usage:        2 bytes
 10268 ;; Hardware stack levels used:    1
 10269 ;; Hardware stack levels required when called:    1
 10270 ;; This function calls:
 10271 ;;		Nothing
 10272 ;; This function is called by:
 10273 ;;		_main
 10274 ;;		_CuaStart
 10275 ;;		_ChuTrinhMaiTho
 10276 ;;		_CuaStart2
 10277 ;;		_ChuTrinhMaiTho2
 10278 ;; This function uses a non-reentrant model
 10279 ;;
 10280                           psect	text1423
 10281                           	file	"main.c"
 10282                           	line	914
 10283                           	global	__size_of_MotorEpTruc
 10284  0019                     	__size_of_MotorEpTruc	equ	__end_of_MotorEpTruc-_MotorEpTruc
 10285                           	
 10286  1E45                     _MotorEpTruc:	
 10287                           	opt	stack 4
 10288                           ; Regs used in _MotorEpTruc: [wreg]
 10289                           	line	915
 10290                           	
 10291  1E45                     l13012:	
 10292                           ;main.c: 915: RC3 = 1;
 10293  1E45  1283               	bcf	status, 5	;RP0=0, select bank0
 10294  1E46  1303               	bcf	status, 6	;RP1=0, select bank0
 10295  1E47  1587               	bsf	(59/8),(59)&7
 10296                           	line	916
 10297                           	
 10298  1E48                     l13014:	
 10299                           ;main.c: 916: _delay((unsigned long)((1000)*(8000000/4000000.0)));
 10300                           	opt asmopt_off
 10301  1E48  3003               movlw	3
 10302  1E49  00F5               movwf	((??_MotorEpTruc+0)+0+1),f
 10303  1E4A  3097               	movlw	151
 10304  1E4B  00F4               movwf	((??_MotorEpTruc+0)+0),f
 10305  1E4C                     u11037:
 10306  1E4C  0BF4               	decfsz	((??_MotorEpTruc+0)+0),f
 10307  1E4D  2E4C               	goto	u11037
 10308  1E4E  0BF5               	decfsz	((??_MotorEpTruc+0)+0+1),f
 10309  1E4F  2E4C               	goto	u11037
 10310  1E50  2E51               	nop2
 10311                           opt asmopt_on
 10312                           
 10313                           	line	917
 10314                           	
 10315  1E51                     l13016:	
 10316                           ;main.c: 917: RC3 = 0;
 10317  1E51  1283               	bcf	status, 5	;RP0=0, select bank0
 10318  1E52  1303               	bcf	status, 6	;RP1=0, select bank0
 10319  1E53  1187               	bcf	(59/8),(59)&7
 10320                           	line	918
 10321                           ;main.c: 918: _delay((unsigned long)((1000)*(8000000/4000000.0)));
 10322                           	opt asmopt_off
 10323  1E54  3003               movlw	3
 10324  1E55  00F5               movwf	((??_MotorEpTruc+0)+0+1),f
 10325  1E56  3097               	movlw	151
 10326  1E57  00F4               movwf	((??_MotorEpTruc+0)+0),f
 10327  1E58                     u11047:
 10328  1E58  0BF4               	decfsz	((??_MotorEpTruc+0)+0),f
 10329  1E59  2E58               	goto	u11047
 10330  1E5A  0BF5               	decfsz	((??_MotorEpTruc+0)+0+1),f
 10331  1E5B  2E58               	goto	u11047
 10332  1E5C  2E5D               	nop2
 10333                           opt asmopt_on
 10334                           
 10335                           	line	919
 10336                           	
 10337  1E5D                     l1453:	
 10338  1E5D  0008               	return
 10339                           	opt stack 0
 10340                           GLOBAL	__end_of_MotorEpTruc
 10341  1E5E                     	__end_of_MotorEpTruc:
 10342 ;; =============== function _MotorEpTruc ends ============
 10343                           
 10344                           	signat	_MotorEpTruc,88
 10345                           	global	_Delay
 10346                           psect	text1424,local,class=CODE,delta=2
 10347                           global __ptext1424
 10348  1FAA                     __ptext1424:
 10349                           
 10350 ;; *************** function _Delay *****************
 10351 ;; Defined at:
 10352 ;;		line 506 in file "main.c"
 10353 ;; Parameters:    Size  Location     Type
 10354 ;;  time            1    wreg     unsigned char 
 10355 ;; Auto vars:     Size  Location     Type
 10356 ;;  time            1    3[BANK0 ] unsigned char 
 10357 ;;  i               2    4[BANK0 ] int 
 10358 ;; Return value:  Size  Location     Type
 10359 ;;		None               void
 10360 ;; Registers used:
 10361 ;;		wreg, status,2
 10362 ;; Tracked objects:
 10363 ;;		On entry : 0/0
 10364 ;;		On exit  : 0/0
 10365 ;;		Unchanged: 0/0
 10366 ;; Data sizes:     COMMON   BANK0   BANK1   BANK3   BANK2
 10367 ;;      Params:         0       0       0       0       0
 10368 ;;      Locals:         0       3       0       0       0
 10369 ;;      Temps:          0       3       0       0       0
 10370 ;;      Totals:         0       6       0       0       0
 10371 ;;Total ram usage:        6 bytes
 10372 ;; Hardware stack levels used:    1
 10373 ;; Hardware stack levels required when called:    1
 10374 ;; This function calls:
 10375 ;;		Nothing
 10376 ;; This function is called by:
 10377 ;;		_main
 10378 ;;		_CuaStart
 10379 ;;		_ChuTrinhMaiTho
 10380 ;;		_CuaStart2
 10381 ;;		_ChuTrinhMaiTho2
 10382 ;; This function uses a non-reentrant model
 10383 ;;
 10384                           psect	text1424
 10385                           	file	"main.c"
 10386                           	line	506
 10387                           	global	__size_of_Delay
 10388  002A                     	__size_of_Delay	equ	__end_of_Delay-_Delay
 10389                           	
 10390  1FAA                     _Delay:	
 10391                           	opt	stack 5
 10392                           ; Regs used in _Delay: [wreg+status,2]
 10393                           ;Delay@time stored from wreg
 10394                           	line	508
 10395  1FAA  1283               	bcf	status, 5	;RP0=0, select bank0
 10396  1FAB  1303               	bcf	status, 6	;RP1=0, select bank0
 10397  1FAC  00A3               	movwf	(Delay@time)
 10398                           	
 10399  1FAD                     l13008:	
 10400                           ;main.c: 507: int i;
 10401                           ;main.c: 508: for (i = 0; i <= time; i++)
 10402  1FAD  01A4               	clrf	(Delay@i)
 10403  1FAE  01A5               	clrf	(Delay@i+1)
 10404  1FAF  2FC7               	goto	l1240
 10405                           	line	509
 10406                           	
 10407  1FB0                     l1241:	
 10408                           	
 10409  1FB0                     l13010:	
 10410                           ;main.c: 509: _delay((unsigned long)((100)*(8000000/4000.0)));
 10411                           	opt asmopt_off
 10412  1FB0  3002               movlw  2
 10413  1FB1  1283               	bcf	status, 5	;RP0=0, select bank0
 10414  1FB2  1303               	bcf	status, 6	;RP1=0, select bank0
 10415  1FB3  00A2               movwf	((??_Delay+0)+0+2),f
 10416  1FB4  3004               movlw	4
 10417  1FB5  00A1               movwf	((??_Delay+0)+0+1),f
 10418  1FB6  30BA               	movlw	186
 10419  1FB7  00A0               movwf	((??_Delay+0)+0),f
 10420  1FB8                     u11057:
 10421  1FB8  0BA0               	decfsz	((??_Delay+0)+0),f
 10422  1FB9  2FB8               	goto	u11057
 10423  1FBA  0BA1               	decfsz	((??_Delay+0)+0+1),f
 10424  1FBB  2FB8               	goto	u11057
 10425  1FBC  0BA2               	decfsz	((??_Delay+0)+0+2),f
 10426  1FBD  2FB8               	goto	u11057
 10427  1FBE  0064               	clrwdt
 10428                           opt asmopt_on
 10429                           
 10430                           	line	508
 10431  1FBF  3001               	movlw	low(01h)
 10432  1FC0  1283               	bcf	status, 5	;RP0=0, select bank0
 10433  1FC1  1303               	bcf	status, 6	;RP1=0, select bank0
 10434  1FC2  07A4               	addwf	(Delay@i),f
 10435  1FC3  1803               	skipnc
 10436  1FC4  0AA5               	incf	(Delay@i+1),f
 10437  1FC5  3000               	movlw	high(01h)
 10438  1FC6  07A5               	addwf	(Delay@i+1),f
 10439                           	
 10440  1FC7                     l1240:	
 10441  1FC7  0825               	movf	(Delay@i+1),w
 10442  1FC8  3A80               	xorlw	80h
 10443  1FC9  3C80               	sublw	080h
 10444  1FCA  1D03               	skipz
 10445  1FCB  2FCE               	goto	u8955
 10446  1FCC  0824               	movf	(Delay@i),w
 10447  1FCD  0223               	subwf	(Delay@time),w
 10448  1FCE                     u8955:
 10449                           
 10450  1FCE  1803               	skipnc
 10451  1FCF  2FD1               	goto	u8951
 10452  1FD0  2FD2               	goto	u8950
 10453  1FD1                     u8951:
 10454  1FD1  2FB0               	goto	l13010
 10455  1FD2                     u8950:
 10456  1FD2  2FD3               	goto	l1243
 10457                           	
 10458  1FD3                     l1242:	
 10459                           	line	510
 10460                           	
 10461  1FD3                     l1243:	
 10462  1FD3  0008               	return
 10463                           	opt stack 0
 10464                           GLOBAL	__end_of_Delay
 10465  1FD4                     	__end_of_Delay:
 10466 ;; =============== function _Delay ends ============
 10467                           
 10468                           	signat	_Delay,4216
 10469                           	global	_TinhGiaTri
 10470                           psect	text1425,local,class=CODE,delta=2
 10471                           global __ptext1425
 10472  14DD                     __ptext1425:
 10473                           
 10474 ;; *************** function _TinhGiaTri *****************
 10475 ;; Defined at:
 10476 ;;		line 661 in file "main.c"
 10477 ;; Parameters:    Size  Location     Type
 10478 ;;		None
 10479 ;; Auto vars:     Size  Location     Type
 10480 ;;  Tong            2   14[BANK0 ] int 
 10481 ;; Return value:  Size  Location     Type
 10482 ;;                  2    4[BANK0 ] int 
 10483 ;; Registers used:
 10484 ;;		wreg, status,2, status,0, pclath, cstack
 10485 ;; Tracked objects:
 10486 ;;		On entry : 0/0
 10487 ;;		On exit  : 0/0
 10488 ;;		Unchanged: 0/0
 10489 ;; Data sizes:     COMMON   BANK0   BANK1   BANK3   BANK2
 10490 ;;      Params:         0       2       0       0       0
 10491 ;;      Locals:         0       2       0       0       0
 10492 ;;      Temps:          0       8       0       0       0
 10493 ;;      Totals:         0      12       0       0       0
 10494 ;;Total ram usage:       12 bytes
 10495 ;; Hardware stack levels used:    1
 10496 ;; Hardware stack levels required when called:    2
 10497 ;; This function calls:
 10498 ;;		___wmul
 10499 ;; This function is called by:
 10500 ;;		_main
 10501 ;; This function uses a non-reentrant model
 10502 ;;
 10503                           psect	text1425
 10504                           	file	"main.c"
 10505                           	line	661
 10506                           	global	__size_of_TinhGiaTri
 10507  00A1                     	__size_of_TinhGiaTri	equ	__end_of_TinhGiaTri-_TinhGiaTri
 10508                           	
 10509  14DD                     _TinhGiaTri:	
 10510                           	opt	stack 5
 10511                           ; Regs used in _TinhGiaTri: [wreg+status,2+status,0+pclath+cstack]
 10512                           	line	663
 10513                           	
 10514  14DD                     l12978:	
 10515                           ;main.c: 662: int Tong;
 10516                           ;main.c: 663: if (demgiatri == 1) {
 10517  14DD  1683               	bsf	status, 5	;RP0=1, select bank1
 10518  14DE  1303               	bcf	status, 6	;RP1=0, select bank1
 10519  14DF  0852               	movf	(_demgiatri)^080h,w
 10520  14E0  3A01               	xorlw	01h
 10521  14E1  1D03               	skipz
 10522  14E2  2CE4               	goto	u8921
 10523  14E3  2CE5               	goto	u8920
 10524  14E4                     u8921:
 10525  14E4  2CF7               	goto	l12988
 10526  14E5                     u8920:
 10527                           	line	664
 10528                           	
 10529  14E5                     l12980:	
 10530                           ;main.c: 664: Tong = GiaTri[0];
 10531  14E5  0840               	movf	(_GiaTri)^080h,w
 10532  14E6  1283               	bcf	status, 5	;RP0=0, select bank0
 10533  14E7  1303               	bcf	status, 6	;RP1=0, select bank0
 10534  14E8  00A6               	movwf	(??_TinhGiaTri+0)+0
 10535  14E9  01A7               	clrf	(??_TinhGiaTri+0)+0+1
 10536  14EA  0826               	movf	0+(??_TinhGiaTri+0)+0,w
 10537  14EB  00AE               	movwf	(TinhGiaTri@Tong)
 10538  14EC  0827               	movf	1+(??_TinhGiaTri+0)+0,w
 10539  14ED  00AF               	movwf	(TinhGiaTri@Tong+1)
 10540                           	line	665
 10541                           	
 10542  14EE                     l12982:	
 10543                           ;main.c: 665: return Tong;
 10544  14EE  082F               	movf	(TinhGiaTri@Tong+1),w
 10545  14EF  01A5               	clrf	(?_TinhGiaTri+1)
 10546  14F0  07A5               	addwf	(?_TinhGiaTri+1)
 10547  14F1  082E               	movf	(TinhGiaTri@Tong),w
 10548  14F2  01A4               	clrf	(?_TinhGiaTri)
 10549  14F3  07A4               	addwf	(?_TinhGiaTri)
 10550                           
 10551  14F4  2D7D               	goto	l1358
 10552                           	
 10553  14F5                     l12984:	
 10554  14F5  2D7D               	goto	l1358
 10555                           	line	666
 10556                           	
 10557  14F6                     l12986:	
 10558                           ;main.c: 666: } else if (demgiatri == 2) {
 10559  14F6  2D7D               	goto	l1358
 10560                           	
 10561  14F7                     l1357:	
 10562                           	
 10563  14F7                     l12988:	
 10564  14F7  1683               	bsf	status, 5	;RP0=1, select bank1
 10565  14F8  1303               	bcf	status, 6	;RP1=0, select bank1
 10566  14F9  0852               	movf	(_demgiatri)^080h,w
 10567  14FA  3A02               	xorlw	02h
 10568  14FB  1D03               	skipz
 10569  14FC  2CFE               	goto	u8931
 10570  14FD  2CFF               	goto	u8930
 10571  14FE                     u8931:
 10572  14FE  2D26               	goto	l12998
 10573  14FF                     u8930:
 10574                           	line	667
 10575                           	
 10576  14FF                     l12990:	
 10577                           ;main.c: 667: Tong = GiaTri[0]*10 + GiaTri[1];
 10578  14FF  0840               	movf	(_GiaTri)^080h,w
 10579  1500  1283               	bcf	status, 5	;RP0=0, select bank0
 10580  1501  1303               	bcf	status, 6	;RP1=0, select bank0
 10581  1502  00A6               	movwf	(??_TinhGiaTri+0)+0
 10582  1503  01A7               	clrf	(??_TinhGiaTri+0)+0+1
 10583  1504  0826               	movf	0+(??_TinhGiaTri+0)+0,w
 10584  1505  00A0               	movwf	(?___wmul)
 10585  1506  0827               	movf	1+(??_TinhGiaTri+0)+0,w
 10586  1507  00A1               	movwf	(?___wmul+1)
 10587  1508  300A               	movlw	low(0Ah)
 10588  1509  00A2               	movwf	0+(?___wmul)+02h
 10589  150A  3000               	movlw	high(0Ah)
 10590  150B  00A3               	movwf	(0+(?___wmul)+02h)+1
 10591  150C  160A  158A  27D4   	fcall	___wmul
              160A  118A         
 10592  1511  1683               	bsf	status, 5	;RP0=1, select bank1
 10593  1512  1303               	bcf	status, 6	;RP1=0, select bank1
 10594  1513  0841               	movf	0+(_GiaTri)^080h+01h,w
 10595  1514  1283               	bcf	status, 5	;RP0=0, select bank0
 10596  1515  1303               	bcf	status, 6	;RP1=0, select bank0
 10597  1516  0720               	addwf	(0+(?___wmul)),w
 10598  1517  00AE               	movwf	(TinhGiaTri@Tong)
 10599  1518  3000               	movlw	0
 10600  1519  1803               	skipnc
 10601  151A  3001               	movlw	1
 10602  151B  0721               	addwf	(1+(?___wmul)),w
 10603  151C  00AF               	movwf	1+(TinhGiaTri@Tong)
 10604                           	line	668
 10605                           	
 10606  151D                     l12992:	
 10607                           ;main.c: 668: return Tong;
 10608  151D  082F               	movf	(TinhGiaTri@Tong+1),w
 10609  151E  01A5               	clrf	(?_TinhGiaTri+1)
 10610  151F  07A5               	addwf	(?_TinhGiaTri+1)
 10611  1520  082E               	movf	(TinhGiaTri@Tong),w
 10612  1521  01A4               	clrf	(?_TinhGiaTri)
 10613  1522  07A4               	addwf	(?_TinhGiaTri)
 10614                           
 10615  1523  2D7D               	goto	l1358
 10616                           	
 10617  1524                     l12994:	
 10618  1524  2D7D               	goto	l1358
 10619                           	line	669
 10620                           	
 10621  1525                     l12996:	
 10622                           ;main.c: 669: } else if (demgiatri == 3) {
 10623  1525  2D7D               	goto	l1358
 10624                           	
 10625  1526                     l1360:	
 10626                           	
 10627  1526                     l12998:	
 10628  1526  1683               	bsf	status, 5	;RP0=1, select bank1
 10629  1527  1303               	bcf	status, 6	;RP1=0, select bank1
 10630  1528  0852               	movf	(_demgiatri)^080h,w
 10631  1529  3A03               	xorlw	03h
 10632  152A  1D03               	skipz
 10633  152B  2D2D               	goto	u8941
 10634  152C  2D2E               	goto	u8940
 10635  152D                     u8941:
 10636  152D  2D79               	goto	l1362
 10637  152E                     u8940:
 10638                           	line	670
 10639                           	
 10640  152E                     l13000:	
 10641                           ;main.c: 670: Tong = GiaTri[0]*100 + GiaTri[1]*10 + GiaTri[2];
 10642  152E  0840               	movf	(_GiaTri)^080h,w
 10643  152F  1283               	bcf	status, 5	;RP0=0, select bank0
 10644  1530  1303               	bcf	status, 6	;RP1=0, select bank0
 10645  1531  00A6               	movwf	(??_TinhGiaTri+0)+0
 10646  1532  01A7               	clrf	(??_TinhGiaTri+0)+0+1
 10647  1533  0826               	movf	0+(??_TinhGiaTri+0)+0,w
 10648  1534  00A0               	movwf	(?___wmul)
 10649  1535  0827               	movf	1+(??_TinhGiaTri+0)+0,w
 10650  1536  00A1               	movwf	(?___wmul+1)
 10651  1537  3064               	movlw	low(064h)
 10652  1538  00A2               	movwf	0+(?___wmul)+02h
 10653  1539  3000               	movlw	high(064h)
 10654  153A  00A3               	movwf	(0+(?___wmul)+02h)+1
 10655  153B  160A  158A  27D4   	fcall	___wmul
              160A  118A         
 10656  1540  1283               	bcf	status, 5	;RP0=0, select bank0
 10657  1541  1303               	bcf	status, 6	;RP1=0, select bank0
 10658  1542  0820               	movf	(0+?___wmul),w
 10659  1543  00A8               	movwf	(??_TinhGiaTri+2)+0
 10660  1544  0821               	movf	(1+?___wmul),w
 10661  1545  00A9               	movwf	((??_TinhGiaTri+2)+0+1)
 10662  1546  1683               	bsf	status, 5	;RP0=1, select bank1
 10663  1547  1303               	bcf	status, 6	;RP1=0, select bank1
 10664  1548  0841               	movf	0+(_GiaTri)^080h+01h,w
 10665  1549  1283               	bcf	status, 5	;RP0=0, select bank0
 10666  154A  1303               	bcf	status, 6	;RP1=0, select bank0
 10667  154B  00AA               	movwf	(??_TinhGiaTri+4)+0
 10668  154C  01AB               	clrf	(??_TinhGiaTri+4)+0+1
 10669  154D  082A               	movf	0+(??_TinhGiaTri+4)+0,w
 10670  154E  00A0               	movwf	(?___wmul)
 10671  154F  082B               	movf	1+(??_TinhGiaTri+4)+0,w
 10672  1550  00A1               	movwf	(?___wmul+1)
 10673  1551  300A               	movlw	low(0Ah)
 10674  1552  00A2               	movwf	0+(?___wmul)+02h
 10675  1553  3000               	movlw	high(0Ah)
 10676  1554  00A3               	movwf	(0+(?___wmul)+02h)+1
 10677  1555  160A  158A  27D4   	fcall	___wmul
              160A  118A         
 10678  155A  1283               	bcf	status, 5	;RP0=0, select bank0
 10679  155B  1303               	bcf	status, 6	;RP1=0, select bank0
 10680  155C  0820               	movf	(0+(?___wmul)),w
 10681  155D  0728               	addwf	0+(??_TinhGiaTri+2)+0,w
 10682  155E  00AC               	movwf	(??_TinhGiaTri+6)+0
 10683  155F  0821               	movf	(1+(?___wmul)),w
 10684  1560  1803               	skipnc
 10685  1561  0A21               	incf	(1+(?___wmul)),w
 10686  1562  0729               	addwf	1+(??_TinhGiaTri+2)+0,w
 10687  1563  00AD               	movwf	1+(??_TinhGiaTri+6)+0
 10688  1564  1683               	bsf	status, 5	;RP0=1, select bank1
 10689  1565  1303               	bcf	status, 6	;RP1=0, select bank1
 10690  1566  0842               	movf	0+(_GiaTri)^080h+02h,w
 10691  1567  1283               	bcf	status, 5	;RP0=0, select bank0
 10692  1568  1303               	bcf	status, 6	;RP1=0, select bank0
 10693  1569  072C               	addwf	0+(??_TinhGiaTri+6)+0,w
 10694  156A  00AE               	movwf	(TinhGiaTri@Tong)
 10695  156B  3000               	movlw	0
 10696  156C  1803               	skipnc
 10697  156D  3001               	movlw	1
 10698  156E  072D               	addwf	1+(??_TinhGiaTri+6)+0,w
 10699  156F  00AF               	movwf	1+(TinhGiaTri@Tong)
 10700                           	line	671
 10701                           	
 10702  1570                     l13002:	
 10703                           ;main.c: 671: return Tong;
 10704  1570  082F               	movf	(TinhGiaTri@Tong+1),w
 10705  1571  01A5               	clrf	(?_TinhGiaTri+1)
 10706  1572  07A5               	addwf	(?_TinhGiaTri+1)
 10707  1573  082E               	movf	(TinhGiaTri@Tong),w
 10708  1574  01A4               	clrf	(?_TinhGiaTri)
 10709  1575  07A4               	addwf	(?_TinhGiaTri)
 10710                           
 10711  1576  2D7D               	goto	l1358
 10712                           	
 10713  1577                     l13004:	
 10714  1577  2D7D               	goto	l1358
 10715                           	line	672
 10716                           	
 10717  1578                     l13006:	
 10718                           ;main.c: 672: } else
 10719  1578  2D7D               	goto	l1358
 10720                           	
 10721  1579                     l1362:	
 10722                           	line	673
 10723                           ;main.c: 673: demgiatri = 0;
 10724  1579  01D2               	clrf	(_demgiatri)^080h
 10725  157A  2D7D               	goto	l1358
 10726                           	
 10727  157B                     l1363:	
 10728  157B  2D7D               	goto	l1358
 10729                           	
 10730  157C                     l1361:	
 10731  157C  2D7D               	goto	l1358
 10732                           	
 10733  157D                     l1359:	
 10734                           	line	674
 10735                           	
 10736  157D                     l1358:	
 10737  157D  0008               	return
 10738                           	opt stack 0
 10739                           GLOBAL	__end_of_TinhGiaTri
 10740  157E                     	__end_of_TinhGiaTri:
 10741 ;; =============== function _TinhGiaTri ends ============
 10742                           
 10743                           	signat	_TinhGiaTri,90
 10744                           	global	_motorY
 10745                           psect	text1426,local,class=CODE,delta=2
 10746                           global __ptext1426
 10747  1E2C                     __ptext1426:
 10748                           
 10749 ;; *************** function _motorY *****************
 10750 ;; Defined at:
 10751 ;;		line 904 in file "main.c"
 10752 ;; Parameters:    Size  Location     Type
 10753 ;;		None
 10754 ;; Auto vars:     Size  Location     Type
 10755 ;;		None
 10756 ;; Return value:  Size  Location     Type
 10757 ;;		None               void
 10758 ;; Registers used:
 10759 ;;		wreg
 10760 ;; Tracked objects:
 10761 ;;		On entry : 0/0
 10762 ;;		On exit  : 0/0
 10763 ;;		Unchanged: 0/0
 10764 ;; Data sizes:     COMMON   BANK0   BANK1   BANK3   BANK2
 10765 ;;      Params:         0       0       0       0       0
 10766 ;;      Locals:         0       0       0       0       0
 10767 ;;      Temps:          2       0       0       0       0
 10768 ;;      Totals:         2       0       0       0       0
 10769 ;;Total ram usage:        2 bytes
 10770 ;; Hardware stack levels used:    1
 10771 ;; Hardware stack levels required when called:    1
 10772 ;; This function calls:
 10773 ;;		Nothing
 10774 ;; This function is called by:
 10775 ;;		_main
 10776 ;;		_CuaStart
 10777 ;;		_CuaStart2
 10778 ;;		_maidao2
 10779 ;;		_hamphu2
 10780 ;; This function uses a non-reentrant model
 10781 ;;
 10782                           psect	text1426
 10783                           	file	"main.c"
 10784                           	line	904
 10785                           	global	__size_of_motorY
 10786  0019                     	__size_of_motorY	equ	__end_of_motorY-_motorY
 10787                           	
 10788  1E2C                     _motorY:	
 10789                           	opt	stack 5
 10790                           ; Regs used in _motorY: [wreg]
 10791                           	line	905
 10792                           	
 10793  1E2C                     l12972:	
 10794                           ;main.c: 905: RE1 = 1;
 10795  1E2C  1283               	bcf	status, 5	;RP0=0, select bank0
 10796  1E2D  1303               	bcf	status, 6	;RP1=0, select bank0
 10797  1E2E  1489               	bsf	(73/8),(73)&7
 10798                           	line	906
 10799                           	
 10800  1E2F                     l12974:	
 10801                           ;main.c: 906: _delay((unsigned long)((1500)*(8000000/4000000.0)));
 10802                           	opt asmopt_off
 10803  1E2F  3004               movlw	4
 10804  1E30  00F5               movwf	((??_motorY+0)+0+1),f
 10805  1E31  30E4               	movlw	228
 10806  1E32  00F4               movwf	((??_motorY+0)+0),f
 10807  1E33                     u11067:
 10808  1E33  0BF4               	decfsz	((??_motorY+0)+0),f
 10809  1E34  2E33               	goto	u11067
 10810  1E35  0BF5               	decfsz	((??_motorY+0)+0+1),f
 10811  1E36  2E33               	goto	u11067
 10812  1E37  0064               	clrwdt
 10813                           opt asmopt_on
 10814                           
 10815                           	line	907
 10816                           	
 10817  1E38                     l12976:	
 10818                           ;main.c: 907: RE1 = 0;
 10819  1E38  1283               	bcf	status, 5	;RP0=0, select bank0
 10820  1E39  1303               	bcf	status, 6	;RP1=0, select bank0
 10821  1E3A  1089               	bcf	(73/8),(73)&7
 10822                           	line	908
 10823                           ;main.c: 908: _delay((unsigned long)((1500)*(8000000/4000000.0)));
 10824                           	opt asmopt_off
 10825  1E3B  3004               movlw	4
 10826  1E3C  00F5               movwf	((??_motorY+0)+0+1),f
 10827  1E3D  30E4               	movlw	228
 10828  1E3E  00F4               movwf	((??_motorY+0)+0),f
 10829  1E3F                     u11077:
 10830  1E3F  0BF4               	decfsz	((??_motorY+0)+0),f
 10831  1E40  2E3F               	goto	u11077
 10832  1E41  0BF5               	decfsz	((??_motorY+0)+0+1),f
 10833  1E42  2E3F               	goto	u11077
 10834  1E43  0064               	clrwdt
 10835                           opt asmopt_on
 10836                           
 10837                           	line	909
 10838                           	
 10839  1E44                     l1450:	
 10840  1E44  0008               	return
 10841                           	opt stack 0
 10842                           GLOBAL	__end_of_motorY
 10843  1E45                     	__end_of_motorY:
 10844 ;; =============== function _motorY ends ============
 10845                           
 10846                           	signat	_motorY,88
 10847                           	global	_motorX
 10848                           psect	text1427,local,class=CODE,delta=2
 10849                           global __ptext1427
 10850  1E13                     __ptext1427:
 10851                           
 10852 ;; *************** function _motorX *****************
 10853 ;; Defined at:
 10854 ;;		line 895 in file "main.c"
 10855 ;; Parameters:    Size  Location     Type
 10856 ;;		None
 10857 ;; Auto vars:     Size  Location     Type
 10858 ;;		None
 10859 ;; Return value:  Size  Location     Type
 10860 ;;		None               void
 10861 ;; Registers used:
 10862 ;;		wreg
 10863 ;; Tracked objects:
 10864 ;;		On entry : 0/0
 10865 ;;		On exit  : 0/0
 10866 ;;		Unchanged: 0/0
 10867 ;; Data sizes:     COMMON   BANK0   BANK1   BANK3   BANK2
 10868 ;;      Params:         0       0       0       0       0
 10869 ;;      Locals:         0       0       0       0       0
 10870 ;;      Temps:          2       0       0       0       0
 10871 ;;      Totals:         2       0       0       0       0
 10872 ;;Total ram usage:        2 bytes
 10873 ;; Hardware stack levels used:    1
 10874 ;; Hardware stack levels required when called:    1
 10875 ;; This function calls:
 10876 ;;		Nothing
 10877 ;; This function is called by:
 10878 ;;		_main
 10879 ;;		_CuaStart
 10880 ;;		_maidao
 10881 ;;		_CuaStart2
 10882 ;;		_maidao2
 10883 ;;		_hamphu2
 10884 ;; This function uses a non-reentrant model
 10885 ;;
 10886                           psect	text1427
 10887                           	file	"main.c"
 10888                           	line	895
 10889                           	global	__size_of_motorX
 10890  0019                     	__size_of_motorX	equ	__end_of_motorX-_motorX
 10891                           	
 10892  1E13                     _motorX:	
 10893                           	opt	stack 4
 10894                           ; Regs used in _motorX: [wreg]
 10895                           	line	896
 10896                           	
 10897  1E13                     l12966:	
 10898                           ;main.c: 896: RC5 = 1;
 10899  1E13  1283               	bcf	status, 5	;RP0=0, select bank0
 10900  1E14  1303               	bcf	status, 6	;RP1=0, select bank0
 10901  1E15  1687               	bsf	(61/8),(61)&7
 10902                           	line	897
 10903                           	
 10904  1E16                     l12968:	
 10905                           ;main.c: 897: _delay((unsigned long)((3000)*(8000000/4000000.0)));
 10906                           	opt asmopt_off
 10907  1E16  3008               movlw	8
 10908  1E17  00F5               movwf	((??_motorX+0)+0+1),f
 10909  1E18  30C9               	movlw	201
 10910  1E19  00F4               movwf	((??_motorX+0)+0),f
 10911  1E1A                     u11087:
 10912  1E1A  0BF4               	decfsz	((??_motorX+0)+0),f
 10913  1E1B  2E1A               	goto	u11087
 10914  1E1C  0BF5               	decfsz	((??_motorX+0)+0+1),f
 10915  1E1D  2E1A               	goto	u11087
 10916  1E1E  2E1F               	nop2
 10917                           opt asmopt_on
 10918                           
 10919                           	line	898
 10920                           	
 10921  1E1F                     l12970:	
 10922                           ;main.c: 898: RC5 = 0;
 10923  1E1F  1283               	bcf	status, 5	;RP0=0, select bank0
 10924  1E20  1303               	bcf	status, 6	;RP1=0, select bank0
 10925  1E21  1287               	bcf	(61/8),(61)&7
 10926                           	line	899
 10927                           ;main.c: 899: _delay((unsigned long)((3000)*(8000000/4000000.0)));
 10928                           	opt asmopt_off
 10929  1E22  3008               movlw	8
 10930  1E23  00F5               movwf	((??_motorX+0)+0+1),f
 10931  1E24  30C9               	movlw	201
 10932  1E25  00F4               movwf	((??_motorX+0)+0),f
 10933  1E26                     u11097:
 10934  1E26  0BF4               	decfsz	((??_motorX+0)+0),f
 10935  1E27  2E26               	goto	u11097
 10936  1E28  0BF5               	decfsz	((??_motorX+0)+0+1),f
 10937  1E29  2E26               	goto	u11097
 10938  1E2A  2E2B               	nop2
 10939                           opt asmopt_on
 10940                           
 10941                           	line	900
 10942                           	
 10943  1E2B                     l1447:	
 10944  1E2B  0008               	return
 10945                           	opt stack 0
 10946                           GLOBAL	__end_of_motorX
 10947  1E2C                     	__end_of_motorX:
 10948 ;; =============== function _motorX ends ============
 10949                           
 10950                           	signat	_motorX,88
 10951                           	global	___awdiv
 10952                           psect	text1428,local,class=CODE,delta=2
 10953                           global __ptext1428
 10954  1343                     __ptext1428:
 10955                           
 10956 ;; *************** function ___awdiv *****************
 10957 ;; Defined at:
 10958 ;;		line 5 in file "C:\Program Files (x86)\HI-TECH Software\PICC\9.83\sources\awdiv.c"
 10959 ;; Parameters:    Size  Location     Type
 10960 ;;  divisor         2    0[BANK0 ] int 
 10961 ;;  dividend        2    2[BANK0 ] int 
 10962 ;; Auto vars:     Size  Location     Type
 10963 ;;  quotient        2    6[BANK0 ] int 
 10964 ;;  sign            1    5[BANK0 ] unsigned char 
 10965 ;;  counter         1    4[BANK0 ] unsigned char 
 10966 ;; Return value:  Size  Location     Type
 10967 ;;                  2    0[BANK0 ] int 
 10968 ;; Registers used:
 10969 ;;		wreg, status,2, status,0
 10970 ;; Tracked objects:
 10971 ;;		On entry : 0/0
 10972 ;;		On exit  : 0/0
 10973 ;;		Unchanged: 0/0
 10974 ;; Data sizes:     COMMON   BANK0   BANK1   BANK3   BANK2
 10975 ;;      Params:         0       4       0       0       0
 10976 ;;      Locals:         0       4       0       0       0
 10977 ;;      Temps:          1       0       0       0       0
 10978 ;;      Totals:         1       8       0       0       0
 10979 ;;Total ram usage:        9 bytes
 10980 ;; Hardware stack levels used:    1
 10981 ;; Hardware stack levels required when called:    1
 10982 ;; This function calls:
 10983 ;;		Nothing
 10984 ;; This function is called by:
 10985 ;;		_main
 10986 ;;		_chuyenluoi
 10987 ;; This function uses a non-reentrant model
 10988 ;;
 10989                           psect	text1428
 10990                           	file	"C:\Program Files (x86)\HI-TECH Software\PICC\9.83\sources\awdiv.c"
 10991                           	line	5
 10992                           	global	__size_of___awdiv
 10993  0076                     	__size_of___awdiv	equ	__end_of___awdiv-___awdiv
 10994                           	
 10995  1343                     ___awdiv:	
 10996                           	opt	stack 4
 10997                           ; Regs used in ___awdiv: [wreg+status,2+status,0]
 10998                           	line	9
 10999                           	
 11000  1343                     l12926:	
 11001  1343  1283               	bcf	status, 5	;RP0=0, select bank0
 11002  1344  1303               	bcf	status, 6	;RP1=0, select bank0
 11003  1345  01A5               	clrf	(___awdiv@sign)
 11004                           	line	10
 11005  1346  1FA1               	btfss	(___awdiv@divisor+1),7
 11006  1347  2B49               	goto	u8821
 11007  1348  2B4A               	goto	u8820
 11008  1349                     u8821:
 11009  1349  2B53               	goto	l12930
 11010  134A                     u8820:
 11011                           	line	11
 11012                           	
 11013  134A                     l12928:	
 11014  134A  09A0               	comf	(___awdiv@divisor),f
 11015  134B  09A1               	comf	(___awdiv@divisor+1),f
 11016  134C  0AA0               	incf	(___awdiv@divisor),f
 11017  134D  1903               	skipnz
 11018  134E  0AA1               	incf	(___awdiv@divisor+1),f
 11019                           	line	12
 11020  134F  01A5               	clrf	(___awdiv@sign)
 11021  1350  1403               	bsf	status,0
 11022  1351  0DA5               	rlf	(___awdiv@sign),f
 11023  1352  2B53               	goto	l12930
 11024                           	line	13
 11025                           	
 11026  1353                     l7112:	
 11027                           	line	14
 11028                           	
 11029  1353                     l12930:	
 11030  1353  1FA3               	btfss	(___awdiv@dividend+1),7
 11031  1354  2B56               	goto	u8831
 11032  1355  2B57               	goto	u8830
 11033  1356                     u8831:
 11034  1356  2B61               	goto	l12936
 11035  1357                     u8830:
 11036                           	line	15
 11037                           	
 11038  1357                     l12932:	
 11039  1357  09A2               	comf	(___awdiv@dividend),f
 11040  1358  09A3               	comf	(___awdiv@dividend+1),f
 11041  1359  0AA2               	incf	(___awdiv@dividend),f
 11042  135A  1903               	skipnz
 11043  135B  0AA3               	incf	(___awdiv@dividend+1),f
 11044                           	line	16
 11045                           	
 11046  135C                     l12934:	
 11047  135C  3001               	movlw	(01h)
 11048  135D  00F4               	movwf	(??___awdiv+0)+0
 11049  135E  0874               	movf	(??___awdiv+0)+0,w
 11050  135F  06A5               	xorwf	(___awdiv@sign),f
 11051  1360  2B61               	goto	l12936
 11052                           	line	17
 11053                           	
 11054  1361                     l7113:	
 11055                           	line	18
 11056                           	
 11057  1361                     l12936:	
 11058  1361  01A6               	clrf	(___awdiv@quotient)
 11059  1362  01A7               	clrf	(___awdiv@quotient+1)
 11060                           	line	19
 11061                           	
 11062  1363                     l12938:	
 11063  1363  0821               	movf	(___awdiv@divisor+1),w
 11064  1364  0420               	iorwf	(___awdiv@divisor),w
 11065  1365  1903               	skipnz
 11066  1366  2B68               	goto	u8841
 11067  1367  2B69               	goto	u8840
 11068  1368                     u8841:
 11069  1368  2BA7               	goto	l12958
 11070  1369                     u8840:
 11071                           	line	20
 11072                           	
 11073  1369                     l12940:	
 11074  1369  01A4               	clrf	(___awdiv@counter)
 11075  136A  1403               	bsf	status,0
 11076  136B  0DA4               	rlf	(___awdiv@counter),f
 11077                           	line	21
 11078  136C  2B79               	goto	l12946
 11079                           	
 11080  136D                     l7116:	
 11081                           	line	22
 11082                           	
 11083  136D                     l12942:	
 11084  136D  3001               	movlw	01h
 11085                           	
 11086  136E                     u8855:
 11087  136E  1003               	clrc
 11088  136F  0DA0               	rlf	(___awdiv@divisor),f
 11089  1370  0DA1               	rlf	(___awdiv@divisor+1),f
 11090  1371  3EFF               	addlw	-1
 11091  1372  1D03               	skipz
 11092  1373  2B6E               	goto	u8855
 11093                           	line	23
 11094                           	
 11095  1374                     l12944:	
 11096  1374  3001               	movlw	(01h)
 11097  1375  00F4               	movwf	(??___awdiv+0)+0
 11098  1376  0874               	movf	(??___awdiv+0)+0,w
 11099  1377  07A4               	addwf	(___awdiv@counter),f
 11100  1378  2B79               	goto	l12946
 11101                           	line	24
 11102                           	
 11103  1379                     l7115:	
 11104                           	line	21
 11105                           	
 11106  1379                     l12946:	
 11107  1379  1FA1               	btfss	(___awdiv@divisor+1),(15)&7
 11108  137A  2B7C               	goto	u8861
 11109  137B  2B7D               	goto	u8860
 11110  137C                     u8861:
 11111  137C  2B6D               	goto	l12942
 11112  137D                     u8860:
 11113  137D  2B7F               	goto	l12948
 11114                           	
 11115  137E                     l7117:	
 11116  137E  2B7F               	goto	l12948
 11117                           	line	25
 11118                           	
 11119  137F                     l7118:	
 11120                           	line	26
 11121                           	
 11122  137F                     l12948:	
 11123  137F  3001               	movlw	01h
 11124                           	
 11125  1380                     u8875:
 11126  1380  1003               	clrc
 11127  1381  0DA6               	rlf	(___awdiv@quotient),f
 11128  1382  0DA7               	rlf	(___awdiv@quotient+1),f
 11129  1383  3EFF               	addlw	-1
 11130  1384  1D03               	skipz
 11131  1385  2B80               	goto	u8875
 11132                           	line	27
 11133  1386  0821               	movf	(___awdiv@divisor+1),w
 11134  1387  0223               	subwf	(___awdiv@dividend+1),w
 11135  1388  1D03               	skipz
 11136  1389  2B8C               	goto	u8885
 11137  138A  0820               	movf	(___awdiv@divisor),w
 11138  138B  0222               	subwf	(___awdiv@dividend),w
 11139  138C                     u8885:
 11140  138C  1C03               	skipc
 11141  138D  2B8F               	goto	u8881
 11142  138E  2B90               	goto	u8880
 11143  138F                     u8881:
 11144  138F  2B98               	goto	l12954
 11145  1390                     u8880:
 11146                           	line	28
 11147                           	
 11148  1390                     l12950:	
 11149  1390  0820               	movf	(___awdiv@divisor),w
 11150  1391  02A2               	subwf	(___awdiv@dividend),f
 11151  1392  0821               	movf	(___awdiv@divisor+1),w
 11152  1393  1C03               	skipc
 11153  1394  03A3               	decf	(___awdiv@dividend+1),f
 11154  1395  02A3               	subwf	(___awdiv@dividend+1),f
 11155                           	line	29
 11156                           	
 11157  1396                     l12952:	
 11158  1396  1426               	bsf	(___awdiv@quotient)+(0/8),(0)&7
 11159  1397  2B98               	goto	l12954
 11160                           	line	30
 11161                           	
 11162  1398                     l7119:	
 11163                           	line	31
 11164                           	
 11165  1398                     l12954:	
 11166  1398  3001               	movlw	01h
 11167                           	
 11168  1399                     u8895:
 11169  1399  1003               	clrc
 11170  139A  0CA1               	rrf	(___awdiv@divisor+1),f
 11171  139B  0CA0               	rrf	(___awdiv@divisor),f
 11172  139C  3EFF               	addlw	-1
 11173  139D  1D03               	skipz
 11174  139E  2B99               	goto	u8895
 11175                           	line	32
 11176                           	
 11177  139F                     l12956:	
 11178  139F  3001               	movlw	low(01h)
 11179  13A0  02A4               	subwf	(___awdiv@counter),f
 11180  13A1  1D03               	btfss	status,2
 11181  13A2  2BA4               	goto	u8901
 11182  13A3  2BA5               	goto	u8900
 11183  13A4                     u8901:
 11184  13A4  2B7F               	goto	l12948
 11185  13A5                     u8900:
 11186  13A5  2BA7               	goto	l12958
 11187                           	
 11188  13A6                     l7120:	
 11189  13A6  2BA7               	goto	l12958
 11190                           	line	33
 11191                           	
 11192  13A7                     l7114:	
 11193                           	line	34
 11194                           	
 11195  13A7                     l12958:	
 11196  13A7  0825               	movf	(___awdiv@sign),w
 11197  13A8  1D03               	skipz
 11198  13A9  2BAB               	goto	u8910
 11199  13AA  2BB1               	goto	l12962
 11200  13AB                     u8910:
 11201                           	line	35
 11202                           	
 11203  13AB                     l12960:	
 11204  13AB  09A6               	comf	(___awdiv@quotient),f
 11205  13AC  09A7               	comf	(___awdiv@quotient+1),f
 11206  13AD  0AA6               	incf	(___awdiv@quotient),f
 11207  13AE  1903               	skipnz
 11208  13AF  0AA7               	incf	(___awdiv@quotient+1),f
 11209  13B0  2BB1               	goto	l12962
 11210                           	
 11211  13B1                     l7121:	
 11212                           	line	36
 11213                           	
 11214  13B1                     l12962:	
 11215  13B1  0827               	movf	(___awdiv@quotient+1),w
 11216  13B2  01A1               	clrf	(?___awdiv+1)
 11217  13B3  07A1               	addwf	(?___awdiv+1)
 11218  13B4  0826               	movf	(___awdiv@quotient),w
 11219  13B5  01A0               	clrf	(?___awdiv)
 11220  13B6  07A0               	addwf	(?___awdiv)
 11221                           
 11222  13B7  2BB8               	goto	l7122
 11223                           	
 11224  13B8                     l12964:	
 11225                           	line	37
 11226                           	
 11227  13B8                     l7122:	
 11228  13B8  0008               	return
 11229                           	opt stack 0
 11230                           GLOBAL	__end_of___awdiv
 11231  13B9                     	__end_of___awdiv:
 11232 ;; =============== function ___awdiv ends ============
 11233                           
 11234                           	signat	___awdiv,8314
 11235                           	global	___lwmod
 11236                           psect	text1429,local,class=CODE,delta=2
 11237                           global __ptext1429
 11238  1193                     __ptext1429:
 11239                           
 11240 ;; *************** function ___lwmod *****************
 11241 ;; Defined at:
 11242 ;;		line 5 in file "C:\Program Files (x86)\HI-TECH Software\PICC\9.83\sources\lwmod.c"
 11243 ;; Parameters:    Size  Location     Type
 11244 ;;  divisor         2    7[BANK0 ] unsigned int 
 11245 ;;  dividend        2    9[BANK0 ] unsigned int 
 11246 ;; Auto vars:     Size  Location     Type
 11247 ;;  counter         1   11[BANK0 ] unsigned char 
 11248 ;; Return value:  Size  Location     Type
 11249 ;;                  2    7[BANK0 ] unsigned int 
 11250 ;; Registers used:
 11251 ;;		wreg, status,2, status,0
 11252 ;; Tracked objects:
 11253 ;;		On entry : 0/0
 11254 ;;		On exit  : 0/0
 11255 ;;		Unchanged: 0/0
 11256 ;; Data sizes:     COMMON   BANK0   BANK1   BANK3   BANK2
 11257 ;;      Params:         0       4       0       0       0
 11258 ;;      Locals:         0       1       0       0       0
 11259 ;;      Temps:          1       0       0       0       0
 11260 ;;      Totals:         1       5       0       0       0
 11261 ;;Total ram usage:        6 bytes
 11262 ;; Hardware stack levels used:    1
 11263 ;; Hardware stack levels required when called:    1
 11264 ;; This function calls:
 11265 ;;		Nothing
 11266 ;; This function is called by:
 11267 ;;		_printf
 11268 ;; This function uses a non-reentrant model
 11269 ;;
 11270                           psect	text1429
 11271                           	file	"C:\Program Files (x86)\HI-TECH Software\PICC\9.83\sources\lwmod.c"
 11272                           	line	5
 11273                           	global	__size_of___lwmod
 11274  0046                     	__size_of___lwmod	equ	__end_of___lwmod-___lwmod
 11275                           	
 11276  1193                     ___lwmod:	
 11277                           	opt	stack 4
 11278                           ; Regs used in ___lwmod: [wreg+status,2+status,0]
 11279                           	line	8
 11280                           	
 11281  1193                     l12904:	
 11282  1193  1283               	bcf	status, 5	;RP0=0, select bank0
 11283  1194  1303               	bcf	status, 6	;RP1=0, select bank0
 11284  1195  0828               	movf	(___lwmod@divisor+1),w
 11285  1196  0427               	iorwf	(___lwmod@divisor),w
 11286  1197  1903               	skipnz
 11287  1198  299A               	goto	u8761
 11288  1199  299B               	goto	u8760
 11289  119A                     u8761:
 11290  119A  29D1               	goto	l12922
 11291  119B                     u8760:
 11292                           	line	9
 11293                           	
 11294  119B                     l12906:	
 11295  119B  01AB               	clrf	(___lwmod@counter)
 11296  119C  1403               	bsf	status,0
 11297  119D  0DAB               	rlf	(___lwmod@counter),f
 11298                           	line	10
 11299  119E  29AB               	goto	l12912
 11300                           	
 11301  119F                     l6990:	
 11302                           	line	11
 11303                           	
 11304  119F                     l12908:	
 11305  119F  3001               	movlw	01h
 11306                           	
 11307  11A0                     u8775:
 11308  11A0  1003               	clrc
 11309  11A1  0DA7               	rlf	(___lwmod@divisor),f
 11310  11A2  0DA8               	rlf	(___lwmod@divisor+1),f
 11311  11A3  3EFF               	addlw	-1
 11312  11A4  1D03               	skipz
 11313  11A5  29A0               	goto	u8775
 11314                           	line	12
 11315                           	
 11316  11A6                     l12910:	
 11317  11A6  3001               	movlw	(01h)
 11318  11A7  00F5               	movwf	(??___lwmod+0)+0
 11319  11A8  0875               	movf	(??___lwmod+0)+0,w
 11320  11A9  07AB               	addwf	(___lwmod@counter),f
 11321  11AA  29AB               	goto	l12912
 11322                           	line	13
 11323                           	
 11324  11AB                     l6989:	
 11325                           	line	10
 11326                           	
 11327  11AB                     l12912:	
 11328  11AB  1FA8               	btfss	(___lwmod@divisor+1),(15)&7
 11329  11AC  29AE               	goto	u8781
 11330  11AD  29AF               	goto	u8780
 11331  11AE                     u8781:
 11332  11AE  299F               	goto	l12908
 11333  11AF                     u8780:
 11334  11AF  29B1               	goto	l12914
 11335                           	
 11336  11B0                     l6991:	
 11337  11B0  29B1               	goto	l12914
 11338                           	line	14
 11339                           	
 11340  11B1                     l6992:	
 11341                           	line	15
 11342                           	
 11343  11B1                     l12914:	
 11344  11B1  0828               	movf	(___lwmod@divisor+1),w
 11345  11B2  022A               	subwf	(___lwmod@dividend+1),w
 11346  11B3  1D03               	skipz
 11347  11B4  29B7               	goto	u8795
 11348  11B5  0827               	movf	(___lwmod@divisor),w
 11349  11B6  0229               	subwf	(___lwmod@dividend),w
 11350  11B7                     u8795:
 11351  11B7  1C03               	skipc
 11352  11B8  29BA               	goto	u8791
 11353  11B9  29BB               	goto	u8790
 11354  11BA                     u8791:
 11355  11BA  29C2               	goto	l12918
 11356  11BB                     u8790:
 11357                           	line	16
 11358                           	
 11359  11BB                     l12916:	
 11360  11BB  0827               	movf	(___lwmod@divisor),w
 11361  11BC  02A9               	subwf	(___lwmod@dividend),f
 11362  11BD  0828               	movf	(___lwmod@divisor+1),w
 11363  11BE  1C03               	skipc
 11364  11BF  03AA               	decf	(___lwmod@dividend+1),f
 11365  11C0  02AA               	subwf	(___lwmod@dividend+1),f
 11366  11C1  29C2               	goto	l12918
 11367                           	
 11368  11C2                     l6993:	
 11369                           	line	17
 11370                           	
 11371  11C2                     l12918:	
 11372  11C2  3001               	movlw	01h
 11373                           	
 11374  11C3                     u8805:
 11375  11C3  1003               	clrc
 11376  11C4  0CA8               	rrf	(___lwmod@divisor+1),f
 11377  11C5  0CA7               	rrf	(___lwmod@divisor),f
 11378  11C6  3EFF               	addlw	-1
 11379  11C7  1D03               	skipz
 11380  11C8  29C3               	goto	u8805
 11381                           	line	18
 11382                           	
 11383  11C9                     l12920:	
 11384  11C9  3001               	movlw	low(01h)
 11385  11CA  02AB               	subwf	(___lwmod@counter),f
 11386  11CB  1D03               	btfss	status,2
 11387  11CC  29CE               	goto	u8811
 11388  11CD  29CF               	goto	u8810
 11389  11CE                     u8811:
 11390  11CE  29B1               	goto	l12914
 11391  11CF                     u8810:
 11392  11CF  29D1               	goto	l12922
 11393                           	
 11394  11D0                     l6994:	
 11395  11D0  29D1               	goto	l12922
 11396                           	line	19
 11397                           	
 11398  11D1                     l6988:	
 11399                           	line	20
 11400                           	
 11401  11D1                     l12922:	
 11402  11D1  082A               	movf	(___lwmod@dividend+1),w
 11403  11D2  01A8               	clrf	(?___lwmod+1)
 11404  11D3  07A8               	addwf	(?___lwmod+1)
 11405  11D4  0829               	movf	(___lwmod@dividend),w
 11406  11D5  01A7               	clrf	(?___lwmod)
 11407  11D6  07A7               	addwf	(?___lwmod)
 11408                           
 11409  11D7  29D8               	goto	l6995
 11410                           	
 11411  11D8                     l12924:	
 11412                           	line	21
 11413                           	
 11414  11D8                     l6995:	
 11415  11D8  0008               	return
 11416                           	opt stack 0
 11417                           GLOBAL	__end_of___lwmod
 11418  11D9                     	__end_of___lwmod:
 11419 ;; =============== function ___lwmod ends ============
 11420                           
 11421                           	signat	___lwmod,8314
 11422                           	global	___lwdiv
 11423                           psect	text1430,local,class=CODE,delta=2
 11424                           global __ptext1430
 11425  1220                     __ptext1430:
 11426                           
 11427 ;; *************** function ___lwdiv *****************
 11428 ;; Defined at:
 11429 ;;		line 5 in file "C:\Program Files (x86)\HI-TECH Software\PICC\9.83\sources\lwdiv.c"
 11430 ;; Parameters:    Size  Location     Type
 11431 ;;  divisor         2    0[BANK0 ] unsigned int 
 11432 ;;  dividend        2    2[BANK0 ] unsigned int 
 11433 ;; Auto vars:     Size  Location     Type
 11434 ;;  quotient        2    5[BANK0 ] unsigned int 
 11435 ;;  counter         1    4[BANK0 ] unsigned char 
 11436 ;; Return value:  Size  Location     Type
 11437 ;;                  2    0[BANK0 ] unsigned int 
 11438 ;; Registers used:
 11439 ;;		wreg, status,2, status,0
 11440 ;; Tracked objects:
 11441 ;;		On entry : 0/0
 11442 ;;		On exit  : 0/0
 11443 ;;		Unchanged: 0/0
 11444 ;; Data sizes:     COMMON   BANK0   BANK1   BANK3   BANK2
 11445 ;;      Params:         0       4       0       0       0
 11446 ;;      Locals:         0       3       0       0       0
 11447 ;;      Temps:          1       0       0       0       0
 11448 ;;      Totals:         1       7       0       0       0
 11449 ;;Total ram usage:        8 bytes
 11450 ;; Hardware stack levels used:    1
 11451 ;; Hardware stack levels required when called:    1
 11452 ;; This function calls:
 11453 ;;		Nothing
 11454 ;; This function is called by:
 11455 ;;		_printf
 11456 ;; This function uses a non-reentrant model
 11457 ;;
 11458                           psect	text1430
 11459                           	file	"C:\Program Files (x86)\HI-TECH Software\PICC\9.83\sources\lwdiv.c"
 11460                           	line	5
 11461                           	global	__size_of___lwdiv
 11462  0050                     	__size_of___lwdiv	equ	__end_of___lwdiv-___lwdiv
 11463                           	
 11464  1220                     ___lwdiv:	
 11465                           	opt	stack 4
 11466                           ; Regs used in ___lwdiv: [wreg+status,2+status,0]
 11467                           	line	9
 11468                           	
 11469  1220                     l12878:	
 11470  1220  1283               	bcf	status, 5	;RP0=0, select bank0
 11471  1221  1303               	bcf	status, 6	;RP1=0, select bank0
 11472  1222  01A5               	clrf	(___lwdiv@quotient)
 11473  1223  01A6               	clrf	(___lwdiv@quotient+1)
 11474                           	line	10
 11475                           	
 11476  1224                     l12880:	
 11477  1224  0821               	movf	(___lwdiv@divisor+1),w
 11478  1225  0420               	iorwf	(___lwdiv@divisor),w
 11479  1226  1903               	skipnz
 11480  1227  2A29               	goto	u8691
 11481  1228  2A2A               	goto	u8690
 11482  1229                     u8691:
 11483  1229  2A68               	goto	l12900
 11484  122A                     u8690:
 11485                           	line	11
 11486                           	
 11487  122A                     l12882:	
 11488  122A  01A4               	clrf	(___lwdiv@counter)
 11489  122B  1403               	bsf	status,0
 11490  122C  0DA4               	rlf	(___lwdiv@counter),f
 11491                           	line	12
 11492  122D  2A3A               	goto	l12888
 11493                           	
 11494  122E                     l6980:	
 11495                           	line	13
 11496                           	
 11497  122E                     l12884:	
 11498  122E  3001               	movlw	01h
 11499                           	
 11500  122F                     u8705:
 11501  122F  1003               	clrc
 11502  1230  0DA0               	rlf	(___lwdiv@divisor),f
 11503  1231  0DA1               	rlf	(___lwdiv@divisor+1),f
 11504  1232  3EFF               	addlw	-1
 11505  1233  1D03               	skipz
 11506  1234  2A2F               	goto	u8705
 11507                           	line	14
 11508                           	
 11509  1235                     l12886:	
 11510  1235  3001               	movlw	(01h)
 11511  1236  00F4               	movwf	(??___lwdiv+0)+0
 11512  1237  0874               	movf	(??___lwdiv+0)+0,w
 11513  1238  07A4               	addwf	(___lwdiv@counter),f
 11514  1239  2A3A               	goto	l12888
 11515                           	line	15
 11516                           	
 11517  123A                     l6979:	
 11518                           	line	12
 11519                           	
 11520  123A                     l12888:	
 11521  123A  1FA1               	btfss	(___lwdiv@divisor+1),(15)&7
 11522  123B  2A3D               	goto	u8711
 11523  123C  2A3E               	goto	u8710
 11524  123D                     u8711:
 11525  123D  2A2E               	goto	l12884
 11526  123E                     u8710:
 11527  123E  2A40               	goto	l12890
 11528                           	
 11529  123F                     l6981:	
 11530  123F  2A40               	goto	l12890
 11531                           	line	16
 11532                           	
 11533  1240                     l6982:	
 11534                           	line	17
 11535                           	
 11536  1240                     l12890:	
 11537  1240  3001               	movlw	01h
 11538                           	
 11539  1241                     u8725:
 11540  1241  1003               	clrc
 11541  1242  0DA5               	rlf	(___lwdiv@quotient),f
 11542  1243  0DA6               	rlf	(___lwdiv@quotient+1),f
 11543  1244  3EFF               	addlw	-1
 11544  1245  1D03               	skipz
 11545  1246  2A41               	goto	u8725
 11546                           	line	18
 11547  1247  0821               	movf	(___lwdiv@divisor+1),w
 11548  1248  0223               	subwf	(___lwdiv@dividend+1),w
 11549  1249  1D03               	skipz
 11550  124A  2A4D               	goto	u8735
 11551  124B  0820               	movf	(___lwdiv@divisor),w
 11552  124C  0222               	subwf	(___lwdiv@dividend),w
 11553  124D                     u8735:
 11554  124D  1C03               	skipc
 11555  124E  2A50               	goto	u8731
 11556  124F  2A51               	goto	u8730
 11557  1250                     u8731:
 11558  1250  2A59               	goto	l12896
 11559  1251                     u8730:
 11560                           	line	19
 11561                           	
 11562  1251                     l12892:	
 11563  1251  0820               	movf	(___lwdiv@divisor),w
 11564  1252  02A2               	subwf	(___lwdiv@dividend),f
 11565  1253  0821               	movf	(___lwdiv@divisor+1),w
 11566  1254  1C03               	skipc
 11567  1255  03A3               	decf	(___lwdiv@dividend+1),f
 11568  1256  02A3               	subwf	(___lwdiv@dividend+1),f
 11569                           	line	20
 11570                           	
 11571  1257                     l12894:	
 11572  1257  1425               	bsf	(___lwdiv@quotient)+(0/8),(0)&7
 11573  1258  2A59               	goto	l12896
 11574                           	line	21
 11575                           	
 11576  1259                     l6983:	
 11577                           	line	22
 11578                           	
 11579  1259                     l12896:	
 11580  1259  3001               	movlw	01h
 11581                           	
 11582  125A                     u8745:
 11583  125A  1003               	clrc
 11584  125B  0CA1               	rrf	(___lwdiv@divisor+1),f
 11585  125C  0CA0               	rrf	(___lwdiv@divisor),f
 11586  125D  3EFF               	addlw	-1
 11587  125E  1D03               	skipz
 11588  125F  2A5A               	goto	u8745
 11589                           	line	23
 11590                           	
 11591  1260                     l12898:	
 11592  1260  3001               	movlw	low(01h)
 11593  1261  02A4               	subwf	(___lwdiv@counter),f
 11594  1262  1D03               	btfss	status,2
 11595  1263  2A65               	goto	u8751
 11596  1264  2A66               	goto	u8750
 11597  1265                     u8751:
 11598  1265  2A40               	goto	l12890
 11599  1266                     u8750:
 11600  1266  2A68               	goto	l12900
 11601                           	
 11602  1267                     l6984:	
 11603  1267  2A68               	goto	l12900
 11604                           	line	24
 11605                           	
 11606  1268                     l6978:	
 11607                           	line	25
 11608                           	
 11609  1268                     l12900:	
 11610  1268  0826               	movf	(___lwdiv@quotient+1),w
 11611  1269  01A1               	clrf	(?___lwdiv+1)
 11612  126A  07A1               	addwf	(?___lwdiv+1)
 11613  126B  0825               	movf	(___lwdiv@quotient),w
 11614  126C  01A0               	clrf	(?___lwdiv)
 11615  126D  07A0               	addwf	(?___lwdiv)
 11616                           
 11617  126E  2A6F               	goto	l6985
 11618                           	
 11619  126F                     l12902:	
 11620                           	line	26
 11621                           	
 11622  126F                     l6985:	
 11623  126F  0008               	return
 11624                           	opt stack 0
 11625                           GLOBAL	__end_of___lwdiv
 11626  1270                     	__end_of___lwdiv:
 11627 ;; =============== function ___lwdiv ends ============
 11628                           
 11629                           	signat	___lwdiv,8314
 11630                           	global	___wmul
 11631                           psect	text1431,local,class=CODE,delta=2
 11632                           global __ptext1431
 11633  1FD4                     __ptext1431:
 11634                           
 11635 ;; *************** function ___wmul *****************
 11636 ;; Defined at:
 11637 ;;		line 3 in file "C:\Program Files (x86)\HI-TECH Software\PICC\9.83\sources\wmul.c"
 11638 ;; Parameters:    Size  Location     Type
 11639 ;;  multiplier      2    0[BANK0 ] unsigned int 
 11640 ;;  multiplicand    2    2[BANK0 ] unsigned int 
 11641 ;; Auto vars:     Size  Location     Type
 11642 ;;  product         2    4[COMMON] unsigned int 
 11643 ;; Return value:  Size  Location     Type
 11644 ;;                  2    0[BANK0 ] unsigned int 
 11645 ;; Registers used:
 11646 ;;		wreg, status,2, status,0
 11647 ;; Tracked objects:
 11648 ;;		On entry : 0/0
 11649 ;;		On exit  : 0/0
 11650 ;;		Unchanged: 0/0
 11651 ;; Data sizes:     COMMON   BANK0   BANK1   BANK3   BANK2
 11652 ;;      Params:         0       4       0       0       0
 11653 ;;      Locals:         2       0       0       0       0
 11654 ;;      Temps:          0       0       0       0       0
 11655 ;;      Totals:         2       4       0       0       0
 11656 ;;Total ram usage:        6 bytes
 11657 ;; Hardware stack levels used:    1
 11658 ;; Hardware stack levels required when called:    1
 11659 ;; This function calls:
 11660 ;;		Nothing
 11661 ;; This function is called by:
 11662 ;;		_TinhGiaTri
 11663 ;;		_maidao
 11664 ;;		_maidao2
 11665 ;;		_hamphu2
 11666 ;; This function uses a non-reentrant model
 11667 ;;
 11668                           psect	text1431
 11669                           	file	"C:\Program Files (x86)\HI-TECH Software\PICC\9.83\sources\wmul.c"
 11670                           	line	3
 11671                           	global	__size_of___wmul
 11672  002C                     	__size_of___wmul	equ	__end_of___wmul-___wmul
 11673                           	
 11674  1FD4                     ___wmul:	
 11675                           	opt	stack 4
 11676                           ; Regs used in ___wmul: [wreg+status,2+status,0]
 11677                           	line	4
 11678                           	
 11679  1FD4                     l12866:	
 11680  1FD4  01F4               	clrf	(___wmul@product)
 11681  1FD5  01F5               	clrf	(___wmul@product+1)
 11682  1FD6  2FD7               	goto	l12868
 11683                           	line	6
 11684                           	
 11685  1FD7                     l6972:	
 11686                           	line	7
 11687                           	
 11688  1FD7                     l12868:	
 11689  1FD7  1283               	bcf	status, 5	;RP0=0, select bank0
 11690  1FD8  1303               	bcf	status, 6	;RP1=0, select bank0
 11691  1FD9  1C20               	btfss	(___wmul@multiplier),(0)&7
 11692  1FDA  2FDC               	goto	u8651
 11693  1FDB  2FDD               	goto	u8650
 11694  1FDC                     u8651:
 11695  1FDC  2FE3               	goto	l6973
 11696  1FDD                     u8650:
 11697                           	line	8
 11698                           	
 11699  1FDD                     l12870:	
 11700  1FDD  0822               	movf	(___wmul@multiplicand),w
 11701  1FDE  07F4               	addwf	(___wmul@product),f
 11702  1FDF  1803               	skipnc
 11703  1FE0  0AF5               	incf	(___wmul@product+1),f
 11704  1FE1  0823               	movf	(___wmul@multiplicand+1),w
 11705  1FE2  07F5               	addwf	(___wmul@product+1),f
 11706                           	
 11707  1FE3                     l6973:	
 11708                           	line	9
 11709  1FE3  3001               	movlw	01h
 11710                           	
 11711  1FE4                     u8665:
 11712  1FE4  1003               	clrc
 11713  1FE5  0DA2               	rlf	(___wmul@multiplicand),f
 11714  1FE6  0DA3               	rlf	(___wmul@multiplicand+1),f
 11715  1FE7  3EFF               	addlw	-1
 11716  1FE8  1D03               	skipz
 11717  1FE9  2FE4               	goto	u8665
 11718                           	line	10
 11719                           	
 11720  1FEA                     l12872:	
 11721  1FEA  3001               	movlw	01h
 11722                           	
 11723  1FEB                     u8675:
 11724  1FEB  1003               	clrc
 11725  1FEC  0CA1               	rrf	(___wmul@multiplier+1),f
 11726  1FED  0CA0               	rrf	(___wmul@multiplier),f
 11727  1FEE  3EFF               	addlw	-1
 11728  1FEF  1D03               	skipz
 11729  1FF0  2FEB               	goto	u8675
 11730                           	line	11
 11731  1FF1  0821               	movf	((___wmul@multiplier+1)),w
 11732  1FF2  0420               	iorwf	((___wmul@multiplier)),w
 11733  1FF3  1D03               	skipz
 11734  1FF4  2FF6               	goto	u8681
 11735  1FF5  2FF7               	goto	u8680
 11736  1FF6                     u8681:
 11737  1FF6  2FD7               	goto	l12868
 11738  1FF7                     u8680:
 11739  1FF7  2FF8               	goto	l12874
 11740                           	
 11741  1FF8                     l6974:	
 11742                           	line	12
 11743                           	
 11744  1FF8                     l12874:	
 11745  1FF8  0875               	movf	(___wmul@product+1),w
 11746  1FF9  01A1               	clrf	(?___wmul+1)
 11747  1FFA  07A1               	addwf	(?___wmul+1)
 11748  1FFB  0874               	movf	(___wmul@product),w
 11749  1FFC  01A0               	clrf	(?___wmul)
 11750  1FFD  07A0               	addwf	(?___wmul)
 11751                           
 11752  1FFE  2FFF               	goto	l6975
 11753                           	
 11754  1FFF                     l12876:	
 11755                           	line	13
 11756                           	
 11757  1FFF                     l6975:	
 11758  1FFF  0008               	return
 11759                           	opt stack 0
 11760                           GLOBAL	__end_of___wmul
 11761  2000                     	__end_of___wmul:
 11762 ;; =============== function ___wmul ends ============
 11763                           
 11764                           	signat	___wmul,8314
 11765                           	global	_isButtonUp
 11766                           psect	text1432,local,class=CODE,delta=2
 11767                           global __ptext1432
 11768  1F6C                     __ptext1432:
 11769                           
 11770 ;; *************** function _isButtonUp *****************
 11771 ;; Defined at:
 11772 ;;		line 556 in file "main.c"
 11773 ;; Parameters:    Size  Location     Type
 11774 ;;		None
 11775 ;; Auto vars:     Size  Location     Type
 11776 ;;		None
 11777 ;; Return value:  Size  Location     Type
 11778 ;;                  1    wreg      unsigned char 
 11779 ;; Registers used:
 11780 ;;		wreg
 11781 ;; Tracked objects:
 11782 ;;		On entry : 0/0
 11783 ;;		On exit  : 0/0
 11784 ;;		Unchanged: 0/0
 11785 ;; Data sizes:     COMMON   BANK0   BANK1   BANK3   BANK2
 11786 ;;      Params:         0       0       0       0       0
 11787 ;;      Locals:         0       0       0       0       0
 11788 ;;      Temps:          0       0       0       0       0
 11789 ;;      Totals:         0       0       0       0       0
 11790 ;;Total ram usage:        0 bytes
 11791 ;; Hardware stack levels used:    1
 11792 ;; Hardware stack levels required when called:    1
 11793 ;; This function calls:
 11794 ;;		Nothing
 11795 ;; This function is called by:
 11796 ;;		_main
 11797 ;; This function uses a non-reentrant model
 11798 ;;
 11799                           psect	text1432
 11800                           	file	"main.c"
 11801                           	line	556
 11802                           	global	__size_of_isButtonUp
 11803  001B                     	__size_of_isButtonUp	equ	__end_of_isButtonUp-_isButtonUp
 11804                           	
 11805  1F6C                     _isButtonUp:	
 11806                           	opt	stack 6
 11807                           ; Regs used in _isButtonUp: [wreg]
 11808                           	line	557
 11809                           	
 11810  1F6C                     l12520:	
 11811                           ;main.c: 557: if (key_code[3] == 1 || (key_code[3] >= 10 && key_code[3] % 1 == 0))
 11812  1F6C  3001               	movlw	01h
 11813  1F6D  1683               	bsf	status, 5	;RP0=1, select bank1
 11814  1F6E  1303               	bcf	status, 6	;RP1=0, select bank1
 11815  1F6F  0626               	xorwf	0+(_key_code)^080h+06h,w
 11816  1F70  0427               	iorwf	1+(_key_code)^080h+06h,w
 11817  1F71  1903               	skipnz
 11818  1F72  2F74               	goto	u8121
 11819  1F73  2F75               	goto	u8120
 11820  1F74                     u8121:
 11821  1F74  2F7F               	goto	l12524
 11822  1F75                     u8120:
 11823                           	
 11824  1F75                     l12522:	
 11825  1F75  3000               	movlw	high(0Ah)
 11826  1F76  0227               	subwf	1+(_key_code)^080h+06h,w
 11827  1F77  300A               	movlw	low(0Ah)
 11828  1F78  1903               	skipnz
 11829  1F79  0226               	subwf	0+(_key_code)^080h+06h,w
 11830  1F7A  1C03               	skipc
 11831  1F7B  2F7D               	goto	u8131
 11832  1F7C  2F7E               	goto	u8130
 11833  1F7D                     u8131:
 11834  1F7D  2F83               	goto	l12530
 11835  1F7E                     u8130:
 11836  1F7E  2F7F               	goto	l12524
 11837                           	
 11838  1F7F                     l1282:	
 11839                           	line	558
 11840                           	
 11841  1F7F                     l12524:	
 11842                           ;main.c: 558: return 1;
 11843  1F7F  3001               	movlw	(01h)
 11844  1F80  2F86               	goto	l1283
 11845                           	
 11846  1F81                     l12526:	
 11847  1F81  2F86               	goto	l1283
 11848                           	
 11849  1F82                     l12528:	
 11850  1F82  2F86               	goto	l1283
 11851                           	line	559
 11852                           	
 11853  1F83                     l1280:	
 11854                           	line	560
 11855                           	
 11856  1F83                     l12530:	
 11857                           ;main.c: 559: else
 11858                           ;main.c: 560: return 0;
 11859  1F83  3000               	movlw	(0)
 11860  1F84  2F86               	goto	l1283
 11861                           	
 11862  1F85                     l12532:	
 11863  1F85  2F86               	goto	l1283
 11864                           	
 11865  1F86                     l1284:	
 11866                           	line	561
 11867                           	
 11868  1F86                     l1283:	
 11869  1F86  0008               	return
 11870                           	opt stack 0
 11871                           GLOBAL	__end_of_isButtonUp
 11872  1F87                     	__end_of_isButtonUp:
 11873 ;; =============== function _isButtonUp ends ============
 11874                           
 11875                           	signat	_isButtonUp,89
 11876                           	global	_isButtonCancel
 11877                           psect	text1433,local,class=CODE,delta=2
 11878                           global __ptext1433
 11879  1DEF                     __ptext1433:
 11880                           
 11881 ;; *************** function _isButtonCancel *****************
 11882 ;; Defined at:
 11883 ;;		line 612 in file "main.c"
 11884 ;; Parameters:    Size  Location     Type
 11885 ;;		None
 11886 ;; Auto vars:     Size  Location     Type
 11887 ;;		None
 11888 ;; Return value:  Size  Location     Type
 11889 ;;                  1    wreg      unsigned char 
 11890 ;; Registers used:
 11891 ;;		wreg
 11892 ;; Tracked objects:
 11893 ;;		On entry : 0/0
 11894 ;;		On exit  : 0/0
 11895 ;;		Unchanged: 0/0
 11896 ;; Data sizes:     COMMON   BANK0   BANK1   BANK3   BANK2
 11897 ;;      Params:         0       0       0       0       0
 11898 ;;      Locals:         0       0       0       0       0
 11899 ;;      Temps:          0       0       0       0       0
 11900 ;;      Totals:         0       0       0       0       0
 11901 ;;Total ram usage:        0 bytes
 11902 ;; Hardware stack levels used:    1
 11903 ;; Hardware stack levels required when called:    1
 11904 ;; This function calls:
 11905 ;;		Nothing
 11906 ;; This function is called by:
 11907 ;;		_main
 11908 ;; This function uses a non-reentrant model
 11909 ;;
 11910                           psect	text1433
 11911                           	file	"main.c"
 11912                           	line	612
 11913                           	global	__size_of_isButtonCancel
 11914  0011                     	__size_of_isButtonCancel	equ	__end_of_isButtonCancel-_isButtonCancel
 11915                           	
 11916  1DEF                     _isButtonCancel:	
 11917                           	opt	stack 6
 11918                           ; Regs used in _isButtonCancel: [wreg]
 11919                           	line	613
 11920                           	
 11921  1DEF                     l12508:	
 11922                           ;main.c: 613: if (key_code[14] == 1)
 11923  1DEF  3001               	movlw	01h
 11924  1DF0  1683               	bsf	status, 5	;RP0=1, select bank1
 11925  1DF1  1303               	bcf	status, 6	;RP1=0, select bank1
 11926  1DF2  063C               	xorwf	0+(_key_code)^080h+01Ch,w
 11927  1DF3  043D               	iorwf	1+(_key_code)^080h+01Ch,w
 11928  1DF4  1D03               	skipz
 11929  1DF5  2DF7               	goto	u8111
 11930  1DF6  2DF8               	goto	u8110
 11931  1DF7                     u8111:
 11932  1DF7  2DFC               	goto	l12516
 11933  1DF8                     u8110:
 11934                           	line	614
 11935                           	
 11936  1DF8                     l12510:	
 11937                           ;main.c: 614: return 1;
 11938  1DF8  3001               	movlw	(01h)
 11939  1DF9  2DFF               	goto	l1333
 11940                           	
 11941  1DFA                     l12512:	
 11942  1DFA  2DFF               	goto	l1333
 11943                           	
 11944  1DFB                     l12514:	
 11945  1DFB  2DFF               	goto	l1333
 11946                           	line	615
 11947                           	
 11948  1DFC                     l1332:	
 11949                           	line	616
 11950                           	
 11951  1DFC                     l12516:	
 11952                           ;main.c: 615: else
 11953                           ;main.c: 616: return 0;
 11954  1DFC  3000               	movlw	(0)
 11955  1DFD  2DFF               	goto	l1333
 11956                           	
 11957  1DFE                     l12518:	
 11958  1DFE  2DFF               	goto	l1333
 11959                           	
 11960  1DFF                     l1334:	
 11961                           	line	617
 11962                           	
 11963  1DFF                     l1333:	
 11964  1DFF  0008               	return
 11965                           	opt stack 0
 11966                           GLOBAL	__end_of_isButtonCancel
 11967  1E00                     	__end_of_isButtonCancel:
 11968 ;; =============== function _isButtonCancel ends ============
 11969                           
 11970                           	signat	_isButtonCancel,89
 11971                           	global	_Number
 11972                           psect	text1434,local,class=CODE,delta=2
 11973                           global __ptext1434
 11974  1440                     __ptext1434:
 11975                           
 11976 ;; *************** function _Number *****************
 11977 ;; Defined at:
 11978 ;;		line 632 in file "main.c"
 11979 ;; Parameters:    Size  Location     Type
 11980 ;;		None
 11981 ;; Auto vars:     Size  Location     Type
 11982 ;;		None
 11983 ;; Return value:  Size  Location     Type
 11984 ;;                  2    4[COMMON] int 
 11985 ;; Registers used:
 11986 ;;		wreg, status,2
 11987 ;; Tracked objects:
 11988 ;;		On entry : 0/0
 11989 ;;		On exit  : 0/0
 11990 ;;		Unchanged: 0/0
 11991 ;; Data sizes:     COMMON   BANK0   BANK1   BANK3   BANK2
 11992 ;;      Params:         2       0       0       0       0
 11993 ;;      Locals:         0       0       0       0       0
 11994 ;;      Temps:          0       0       0       0       0
 11995 ;;      Totals:         2       0       0       0       0
 11996 ;;Total ram usage:        2 bytes
 11997 ;; Hardware stack levels used:    1
 11998 ;; Hardware stack levels required when called:    1
 11999 ;; This function calls:
 12000 ;;		Nothing
 12001 ;; This function is called by:
 12002 ;;		_main
 12003 ;; This function uses a non-reentrant model
 12004 ;;
 12005                           psect	text1434
 12006                           	file	"main.c"
 12007                           	line	632
 12008                           	global	__size_of_Number
 12009  009D                     	__size_of_Number	equ	__end_of_Number-_Number
 12010                           	
 12011  1440                     _Number:	
 12012                           	opt	stack 6
 12013                           ; Regs used in _Number: [wreg+status,2]
 12014                           	line	633
 12015                           	
 12016  1440                     l12436:	
 12017                           ;main.c: 633: if (key_code[13] == 1)
 12018  1440  3001               	movlw	01h
 12019  1441  1683               	bsf	status, 5	;RP0=1, select bank1
 12020  1442  1303               	bcf	status, 6	;RP1=0, select bank1
 12021  1443  063A               	xorwf	0+(_key_code)^080h+01Ah,w
 12022  1444  043B               	iorwf	1+(_key_code)^080h+01Ah,w
 12023  1445  1D03               	skipz
 12024  1446  2C48               	goto	u7991
 12025  1447  2C49               	goto	u7990
 12026  1448                     u7991:
 12027  1448  2C4D               	goto	l12442
 12028  1449                     u7990:
 12029                           	line	634
 12030                           	
 12031  1449                     l12438:	
 12032                           ;main.c: 634: return 0;
 12033  1449  01F4               	clrf	(?_Number)
 12034  144A  01F5               	clrf	(?_Number+1)
 12035  144B  2CDC               	goto	l1343
 12036                           	
 12037  144C                     l12440:	
 12038  144C  2CDC               	goto	l1343
 12039                           	
 12040  144D                     l1342:	
 12041                           	line	635
 12042                           	
 12043  144D                     l12442:	
 12044                           ;main.c: 635: if (key_code[3] == 1)
 12045  144D  3001               	movlw	01h
 12046  144E  0626               	xorwf	0+(_key_code)^080h+06h,w
 12047  144F  0427               	iorwf	1+(_key_code)^080h+06h,w
 12048  1450  1D03               	skipz
 12049  1451  2C53               	goto	u8001
 12050  1452  2C54               	goto	u8000
 12051  1453                     u8001:
 12052  1453  2C5A               	goto	l12448
 12053  1454                     u8000:
 12054                           	line	636
 12055                           	
 12056  1454                     l12444:	
 12057                           ;main.c: 636: return 15;
 12058  1454  300F               	movlw	low(0Fh)
 12059  1455  00F4               	movwf	(?_Number)
 12060  1456  3000               	movlw	high(0Fh)
 12061  1457  00F5               	movwf	((?_Number))+1
 12062  1458  2CDC               	goto	l1343
 12063                           	
 12064  1459                     l12446:	
 12065  1459  2CDC               	goto	l1343
 12066                           	
 12067  145A                     l1344:	
 12068                           	line	637
 12069                           	
 12070  145A                     l12448:	
 12071                           ;main.c: 637: if (key_code[0] == 1)
 12072  145A  3001               	movlw	01h
 12073  145B  0620               	xorwf	(_key_code)^080h,w
 12074  145C  0421               	iorwf	(_key_code+1)^080h,w
 12075  145D  1D03               	skipz
 12076  145E  2C60               	goto	u8011
 12077  145F  2C61               	goto	u8010
 12078  1460                     u8011:
 12079  1460  2C67               	goto	l12454
 12080  1461                     u8010:
 12081                           	line	638
 12082                           	
 12083  1461                     l12450:	
 12084                           ;main.c: 638: return 1;
 12085  1461  3001               	movlw	low(01h)
 12086  1462  00F4               	movwf	(?_Number)
 12087  1463  3000               	movlw	high(01h)
 12088  1464  00F5               	movwf	((?_Number))+1
 12089  1465  2CDC               	goto	l1343
 12090                           	
 12091  1466                     l12452:	
 12092  1466  2CDC               	goto	l1343
 12093                           	
 12094  1467                     l1345:	
 12095                           	line	639
 12096                           	
 12097  1467                     l12454:	
 12098                           ;main.c: 639: if (key_code[1] == 1)
 12099  1467  3001               	movlw	01h
 12100  1468  0622               	xorwf	0+(_key_code)^080h+02h,w
 12101  1469  0423               	iorwf	1+(_key_code)^080h+02h,w
 12102  146A  1D03               	skipz
 12103  146B  2C6D               	goto	u8021
 12104  146C  2C6E               	goto	u8020
 12105  146D                     u8021:
 12106  146D  2C74               	goto	l12460
 12107  146E                     u8020:
 12108                           	line	640
 12109                           	
 12110  146E                     l12456:	
 12111                           ;main.c: 640: return 2;
 12112  146E  3002               	movlw	low(02h)
 12113  146F  00F4               	movwf	(?_Number)
 12114  1470  3000               	movlw	high(02h)
 12115  1471  00F5               	movwf	((?_Number))+1
 12116  1472  2CDC               	goto	l1343
 12117                           	
 12118  1473                     l12458:	
 12119  1473  2CDC               	goto	l1343
 12120                           	
 12121  1474                     l1346:	
 12122                           	line	641
 12123                           	
 12124  1474                     l12460:	
 12125                           ;main.c: 641: if (key_code[2] == 1)
 12126  1474  3001               	movlw	01h
 12127  1475  0624               	xorwf	0+(_key_code)^080h+04h,w
 12128  1476  0425               	iorwf	1+(_key_code)^080h+04h,w
 12129  1477  1D03               	skipz
 12130  1478  2C7A               	goto	u8031
 12131  1479  2C7B               	goto	u8030
 12132  147A                     u8031:
 12133  147A  2C81               	goto	l12466
 12134  147B                     u8030:
 12135                           	line	642
 12136                           	
 12137  147B                     l12462:	
 12138                           ;main.c: 642: return 3;
 12139  147B  3003               	movlw	low(03h)
 12140  147C  00F4               	movwf	(?_Number)
 12141  147D  3000               	movlw	high(03h)
 12142  147E  00F5               	movwf	((?_Number))+1
 12143  147F  2CDC               	goto	l1343
 12144                           	
 12145  1480                     l12464:	
 12146  1480  2CDC               	goto	l1343
 12147                           	
 12148  1481                     l1347:	
 12149                           	line	643
 12150                           	
 12151  1481                     l12466:	
 12152                           ;main.c: 643: if (key_code[4] == 1)
 12153  1481  3001               	movlw	01h
 12154  1482  0628               	xorwf	0+(_key_code)^080h+08h,w
 12155  1483  0429               	iorwf	1+(_key_code)^080h+08h,w
 12156  1484  1D03               	skipz
 12157  1485  2C87               	goto	u8041
 12158  1486  2C88               	goto	u8040
 12159  1487                     u8041:
 12160  1487  2C8E               	goto	l12472
 12161  1488                     u8040:
 12162                           	line	644
 12163                           	
 12164  1488                     l12468:	
 12165                           ;main.c: 644: return 4;
 12166  1488  3004               	movlw	low(04h)
 12167  1489  00F4               	movwf	(?_Number)
 12168  148A  3000               	movlw	high(04h)
 12169  148B  00F5               	movwf	((?_Number))+1
 12170  148C  2CDC               	goto	l1343
 12171                           	
 12172  148D                     l12470:	
 12173  148D  2CDC               	goto	l1343
 12174                           	
 12175  148E                     l1348:	
 12176                           	line	645
 12177                           	
 12178  148E                     l12472:	
 12179                           ;main.c: 645: if (key_code[5] == 1)
 12180  148E  3001               	movlw	01h
 12181  148F  062A               	xorwf	0+(_key_code)^080h+0Ah,w
 12182  1490  042B               	iorwf	1+(_key_code)^080h+0Ah,w
 12183  1491  1D03               	skipz
 12184  1492  2C94               	goto	u8051
 12185  1493  2C95               	goto	u8050
 12186  1494                     u8051:
 12187  1494  2C9B               	goto	l12478
 12188  1495                     u8050:
 12189                           	line	646
 12190                           	
 12191  1495                     l12474:	
 12192                           ;main.c: 646: return 5;
 12193  1495  3005               	movlw	low(05h)
 12194  1496  00F4               	movwf	(?_Number)
 12195  1497  3000               	movlw	high(05h)
 12196  1498  00F5               	movwf	((?_Number))+1
 12197  1499  2CDC               	goto	l1343
 12198                           	
 12199  149A                     l12476:	
 12200  149A  2CDC               	goto	l1343
 12201                           	
 12202  149B                     l1349:	
 12203                           	line	647
 12204                           	
 12205  149B                     l12478:	
 12206                           ;main.c: 647: if (key_code[6] == 1)
 12207  149B  3001               	movlw	01h
 12208  149C  062C               	xorwf	0+(_key_code)^080h+0Ch,w
 12209  149D  042D               	iorwf	1+(_key_code)^080h+0Ch,w
 12210  149E  1D03               	skipz
 12211  149F  2CA1               	goto	u8061
 12212  14A0  2CA2               	goto	u8060
 12213  14A1                     u8061:
 12214  14A1  2CA8               	goto	l12484
 12215  14A2                     u8060:
 12216                           	line	648
 12217                           	
 12218  14A2                     l12480:	
 12219                           ;main.c: 648: return 6;
 12220  14A2  3006               	movlw	low(06h)
 12221  14A3  00F4               	movwf	(?_Number)
 12222  14A4  3000               	movlw	high(06h)
 12223  14A5  00F5               	movwf	((?_Number))+1
 12224  14A6  2CDC               	goto	l1343
 12225                           	
 12226  14A7                     l12482:	
 12227  14A7  2CDC               	goto	l1343
 12228                           	
 12229  14A8                     l1350:	
 12230                           	line	649
 12231                           	
 12232  14A8                     l12484:	
 12233                           ;main.c: 649: if (key_code[7] == 1)
 12234  14A8  3001               	movlw	01h
 12235  14A9  062E               	xorwf	0+(_key_code)^080h+0Eh,w
 12236  14AA  042F               	iorwf	1+(_key_code)^080h+0Eh,w
 12237  14AB  1D03               	skipz
 12238  14AC  2CAE               	goto	u8071
 12239  14AD  2CAF               	goto	u8070
 12240  14AE                     u8071:
 12241  14AE  2CB5               	goto	l12490
 12242  14AF                     u8070:
 12243                           	line	650
 12244                           	
 12245  14AF                     l12486:	
 12246                           ;main.c: 650: return 16;
 12247  14AF  3010               	movlw	low(010h)
 12248  14B0  00F4               	movwf	(?_Number)
 12249  14B1  3000               	movlw	high(010h)
 12250  14B2  00F5               	movwf	((?_Number))+1
 12251  14B3  2CDC               	goto	l1343
 12252                           	
 12253  14B4                     l12488:	
 12254  14B4  2CDC               	goto	l1343
 12255                           	
 12256  14B5                     l1351:	
 12257                           	line	651
 12258                           	
 12259  14B5                     l12490:	
 12260                           ;main.c: 651: if (key_code[8] == 1)
 12261  14B5  3001               	movlw	01h
 12262  14B6  0630               	xorwf	0+(_key_code)^080h+010h,w
 12263  14B7  0431               	iorwf	1+(_key_code)^080h+010h,w
 12264  14B8  1D03               	skipz
 12265  14B9  2CBB               	goto	u8081
 12266  14BA  2CBC               	goto	u8080
 12267  14BB                     u8081:
 12268  14BB  2CC2               	goto	l12496
 12269  14BC                     u8080:
 12270                           	line	652
 12271                           	
 12272  14BC                     l12492:	
 12273                           ;main.c: 652: return 7;
 12274  14BC  3007               	movlw	low(07h)
 12275  14BD  00F4               	movwf	(?_Number)
 12276  14BE  3000               	movlw	high(07h)
 12277  14BF  00F5               	movwf	((?_Number))+1
 12278  14C0  2CDC               	goto	l1343
 12279                           	
 12280  14C1                     l12494:	
 12281  14C1  2CDC               	goto	l1343
 12282                           	
 12283  14C2                     l1352:	
 12284                           	line	653
 12285                           	
 12286  14C2                     l12496:	
 12287                           ;main.c: 653: if (key_code[9] == 1)
 12288  14C2  3001               	movlw	01h
 12289  14C3  0632               	xorwf	0+(_key_code)^080h+012h,w
 12290  14C4  0433               	iorwf	1+(_key_code)^080h+012h,w
 12291  14C5  1D03               	skipz
 12292  14C6  2CC8               	goto	u8091
 12293  14C7  2CC9               	goto	u8090
 12294  14C8                     u8091:
 12295  14C8  2CCF               	goto	l12502
 12296  14C9                     u8090:
 12297                           	line	654
 12298                           	
 12299  14C9                     l12498:	
 12300                           ;main.c: 654: return 8;
 12301  14C9  3008               	movlw	low(08h)
 12302  14CA  00F4               	movwf	(?_Number)
 12303  14CB  3000               	movlw	high(08h)
 12304  14CC  00F5               	movwf	((?_Number))+1
 12305  14CD  2CDC               	goto	l1343
 12306                           	
 12307  14CE                     l12500:	
 12308  14CE  2CDC               	goto	l1343
 12309                           	
 12310  14CF                     l1353:	
 12311                           	line	655
 12312                           	
 12313  14CF                     l12502:	
 12314                           ;main.c: 655: if (key_code[10] == 1)
 12315  14CF  3001               	movlw	01h
 12316  14D0  0634               	xorwf	0+(_key_code)^080h+014h,w
 12317  14D1  0435               	iorwf	1+(_key_code)^080h+014h,w
 12318  14D2  1D03               	skipz
 12319  14D3  2CD5               	goto	u8101
 12320  14D4  2CD6               	goto	u8100
 12321  14D5                     u8101:
 12322  14D5  2CDC               	goto	l1343
 12323  14D6                     u8100:
 12324                           	line	656
 12325                           	
 12326  14D6                     l12504:	
 12327                           ;main.c: 656: return 9;
 12328  14D6  3009               	movlw	low(09h)
 12329  14D7  00F4               	movwf	(?_Number)
 12330  14D8  3000               	movlw	high(09h)
 12331  14D9  00F5               	movwf	((?_Number))+1
 12332  14DA  2CDC               	goto	l1343
 12333                           	
 12334  14DB                     l12506:	
 12335  14DB  2CDC               	goto	l1343
 12336                           	
 12337  14DC                     l1354:	
 12338                           	line	657
 12339                           	
 12340  14DC                     l1343:	
 12341  14DC  0008               	return
 12342                           	opt stack 0
 12343                           GLOBAL	__end_of_Number
 12344  14DD                     	__end_of_Number:
 12345 ;; =============== function _Number ends ============
 12346                           
 12347                           	signat	_Number,90
 12348                           	global	_isButtonNumber
 12349                           psect	text1435,local,class=CODE,delta=2
 12350                           global __ptext1435
 12351  1119                     __ptext1435:
 12352                           
 12353 ;; *************** function _isButtonNumber *****************
 12354 ;; Defined at:
 12355 ;;		line 515 in file "main.c"
 12356 ;; Parameters:    Size  Location     Type
 12357 ;;		None
 12358 ;; Auto vars:     Size  Location     Type
 12359 ;;  i               1    4[COMMON] unsigned char 
 12360 ;; Return value:  Size  Location     Type
 12361 ;;                  1    wreg      unsigned char 
 12362 ;; Registers used:
 12363 ;;		wreg, fsr0l, fsr0h, status,2, status,0
 12364 ;; Tracked objects:
 12365 ;;		On entry : 0/0
 12366 ;;		On exit  : 0/0
 12367 ;;		Unchanged: 0/0
 12368 ;; Data sizes:     COMMON   BANK0   BANK1   BANK3   BANK2
 12369 ;;      Params:         0       0       0       0       0
 12370 ;;      Locals:         1       0       0       0       0
 12371 ;;      Temps:          0       3       0       0       0
 12372 ;;      Totals:         1       3       0       0       0
 12373 ;;Total ram usage:        4 bytes
 12374 ;; Hardware stack levels used:    1
 12375 ;; Hardware stack levels required when called:    1
 12376 ;; This function calls:
 12377 ;;		Nothing
 12378 ;; This function is called by:
 12379 ;;		_main
 12380 ;; This function uses a non-reentrant model
 12381 ;;
 12382                           psect	text1435
 12383                           	file	"main.c"
 12384                           	line	515
 12385                           	global	__size_of_isButtonNumber
 12386  0039                     	__size_of_isButtonNumber	equ	__end_of_isButtonNumber-_isButtonNumber
 12387                           	
 12388  1119                     _isButtonNumber:	
 12389                           	opt	stack 6
 12390                           ; Regs used in _isButtonNumber: [wreg-fsr0h+status,2+status,0]
 12391                           	line	517
 12392                           	
 12393  1119                     l12414:	
 12394                           ;main.c: 516: unsigned char i;
 12395                           ;main.c: 517: for (i = 0; i <= 15; i++)
 12396  1119  01F4               	clrf	(isButtonNumber@i)
 12397                           	
 12398  111A                     l12416:	
 12399  111A  3010               	movlw	(010h)
 12400  111B  0274               	subwf	(isButtonNumber@i),w
 12401  111C  1C03               	skipc
 12402  111D  291F               	goto	u7961
 12403  111E  2920               	goto	u7960
 12404  111F                     u7961:
 12405  111F  2922               	goto	l12420
 12406  1120                     u7960:
 12407  1120  294F               	goto	l12432
 12408                           	
 12409  1121                     l12418:	
 12410  1121  294F               	goto	l12432
 12411                           	line	518
 12412                           	
 12413  1122                     l1246:	
 12414                           	
 12415  1122                     l12420:	
 12416                           ;main.c: 518: if (key_code[i] == 1) {
 12417  1122  0874               	movf	(isButtonNumber@i),w
 12418  1123  1283               	bcf	status, 5	;RP0=0, select bank0
 12419  1124  1303               	bcf	status, 6	;RP1=0, select bank0
 12420  1125  00A0               	movwf	(??_isButtonNumber+0)+0
 12421  1126  0720               	addwf	(??_isButtonNumber+0)+0,w
 12422  1127  3EA0               	addlw	_key_code&0ffh
 12423  1128  0084               	movwf	fsr0
 12424  1129  1383               	bcf	status, 7	;select IRP bank1
 12425  112A  0800               	movf	indf,w
 12426  112B  00A1               	movwf	(??_isButtonNumber+1)+0+0
 12427  112C  0A84               	incf	fsr0,f
 12428  112D  0800               	movf	indf,w
 12429  112E  00A2               	movwf	(??_isButtonNumber+1)+0+1
 12430  112F  3001               	movlw	01h
 12431  1130  0621               	xorwf	0+(??_isButtonNumber+1)+0,w
 12432  1131  0422               	iorwf	1+(??_isButtonNumber+1)+0,w
 12433  1132  1D03               	skipz
 12434  1133  2935               	goto	u7971
 12435  1134  2936               	goto	u7970
 12436  1135                     u7971:
 12437  1135  2943               	goto	l12428
 12438  1136                     u7970:
 12439                           	line	519
 12440                           	
 12441  1136                     l12422:	
 12442                           ;main.c: 519: numberValue = arrayMapOfNumber[i];
 12443  1136  0874               	movf	(isButtonNumber@i),w
 12444  1137  3EA6               	addlw	_arrayMapOfNumber&0ffh
 12445  1138  0084               	movwf	fsr0
 12446  1139  1783               	bsf	status, 7	;select IRP bank3
 12447  113A  0800               	movf	indf,w
 12448  113B  00A0               	movwf	(??_isButtonNumber+0)+0
 12449  113C  0820               	movf	(??_isButtonNumber+0)+0,w
 12450  113D  1683               	bsf	status, 5	;RP0=1, select bank1
 12451  113E  1303               	bcf	status, 6	;RP1=0, select bank1
 12452  113F  00D7               	movwf	(_numberValue)^080h
 12453                           	line	520
 12454                           	
 12455  1140                     l12424:	
 12456                           ;main.c: 520: return 1;
 12457  1140  3001               	movlw	(01h)
 12458  1141  2951               	goto	l1249
 12459                           	
 12460  1142                     l12426:	
 12461  1142  2951               	goto	l1249
 12462                           	line	521
 12463                           	
 12464  1143                     l1248:	
 12465                           	line	517
 12466                           	
 12467  1143                     l12428:	
 12468  1143  3001               	movlw	(01h)
 12469  1144  1283               	bcf	status, 5	;RP0=0, select bank0
 12470  1145  00A0               	movwf	(??_isButtonNumber+0)+0
 12471  1146  0820               	movf	(??_isButtonNumber+0)+0,w
 12472  1147  07F4               	addwf	(isButtonNumber@i),f
 12473                           	
 12474  1148                     l12430:	
 12475  1148  3010               	movlw	(010h)
 12476  1149  0274               	subwf	(isButtonNumber@i),w
 12477  114A  1C03               	skipc
 12478  114B  294D               	goto	u7981
 12479  114C  294E               	goto	u7980
 12480  114D                     u7981:
 12481  114D  2922               	goto	l12420
 12482  114E                     u7980:
 12483  114E  294F               	goto	l12432
 12484                           	
 12485  114F                     l1247:	
 12486                           	line	522
 12487                           	
 12488  114F                     l12432:	
 12489                           ;main.c: 521: }
 12490                           ;main.c: 522: return 0;
 12491  114F  3000               	movlw	(0)
 12492  1150  2951               	goto	l1249
 12493                           	
 12494  1151                     l12434:	
 12495                           	line	523
 12496                           	
 12497  1151                     l1249:	
 12498  1151  0008               	return
 12499                           	opt stack 0
 12500                           GLOBAL	__end_of_isButtonNumber
 12501  1152                     	__end_of_isButtonNumber:
 12502 ;; =============== function _isButtonNumber ends ============
 12503                           
 12504                           	signat	_isButtonNumber,89
 12505                           	global	_Cap2kXungLen
 12506                           psect	text1436,local,class=CODE,delta=2
 12507                           global __ptext1436
 12508  1F51                     __ptext1436:
 12509                           
 12510 ;; *************** function _Cap2kXungLen *****************
 12511 ;; Defined at:
 12512 ;;		line 528 in file "main.c"
 12513 ;; Parameters:    Size  Location     Type
 12514 ;;		None
 12515 ;; Auto vars:     Size  Location     Type
 12516 ;;		None
 12517 ;; Return value:  Size  Location     Type
 12518 ;;                  1    wreg      unsigned char 
 12519 ;; Registers used:
 12520 ;;		wreg
 12521 ;; Tracked objects:
 12522 ;;		On entry : 0/0
 12523 ;;		On exit  : 0/0
 12524 ;;		Unchanged: 0/0
 12525 ;; Data sizes:     COMMON   BANK0   BANK1   BANK3   BANK2
 12526 ;;      Params:         0       0       0       0       0
 12527 ;;      Locals:         0       0       0       0       0
 12528 ;;      Temps:          0       0       0       0       0
 12529 ;;      Totals:         0       0       0       0       0
 12530 ;;Total ram usage:        0 bytes
 12531 ;; Hardware stack levels used:    1
 12532 ;; Hardware stack levels required when called:    1
 12533 ;; This function calls:
 12534 ;;		Nothing
 12535 ;; This function is called by:
 12536 ;;		_main
 12537 ;; This function uses a non-reentrant model
 12538 ;;
 12539                           psect	text1436
 12540                           	file	"main.c"
 12541                           	line	528
 12542                           	global	__size_of_Cap2kXungLen
 12543  001B                     	__size_of_Cap2kXungLen	equ	__end_of_Cap2kXungLen-_Cap2kXungLen
 12544                           	
 12545  1F51                     _Cap2kXungLen:	
 12546                           	opt	stack 6
 12547                           ; Regs used in _Cap2kXungLen: [wreg]
 12548                           	line	529
 12549                           	
 12550  1F51                     l12400:	
 12551                           ;main.c: 529: if (key_code[1] == 1 || (key_code[1] >= 10 && key_code[1] % 1 == 0))
 12552  1F51  3001               	movlw	01h
 12553  1F52  1683               	bsf	status, 5	;RP0=1, select bank1
 12554  1F53  1303               	bcf	status, 6	;RP1=0, select bank1
 12555  1F54  0622               	xorwf	0+(_key_code)^080h+02h,w
 12556  1F55  0423               	iorwf	1+(_key_code)^080h+02h,w
 12557  1F56  1903               	skipnz
 12558  1F57  2F59               	goto	u7941
 12559  1F58  2F5A               	goto	u7940
 12560  1F59                     u7941:
 12561  1F59  2F64               	goto	l12404
 12562  1F5A                     u7940:
 12563                           	
 12564  1F5A                     l12402:	
 12565  1F5A  3000               	movlw	high(0Ah)
 12566  1F5B  0223               	subwf	1+(_key_code)^080h+02h,w
 12567  1F5C  300A               	movlw	low(0Ah)
 12568  1F5D  1903               	skipnz
 12569  1F5E  0222               	subwf	0+(_key_code)^080h+02h,w
 12570  1F5F  1C03               	skipc
 12571  1F60  2F62               	goto	u7951
 12572  1F61  2F63               	goto	u7950
 12573  1F62                     u7951:
 12574  1F62  2F68               	goto	l12410
 12575  1F63                     u7950:
 12576  1F63  2F64               	goto	l12404
 12577                           	
 12578  1F64                     l1254:	
 12579                           	line	530
 12580                           	
 12581  1F64                     l12404:	
 12582                           ;main.c: 530: return 1;
 12583  1F64  3001               	movlw	(01h)
 12584  1F65  2F6B               	goto	l1255
 12585                           	
 12586  1F66                     l12406:	
 12587  1F66  2F6B               	goto	l1255
 12588                           	
 12589  1F67                     l12408:	
 12590  1F67  2F6B               	goto	l1255
 12591                           	line	531
 12592                           	
 12593  1F68                     l1252:	
 12594                           	line	532
 12595                           	
 12596  1F68                     l12410:	
 12597                           ;main.c: 531: else
 12598                           ;main.c: 532: return 0;
 12599  1F68  3000               	movlw	(0)
 12600  1F69  2F6B               	goto	l1255
 12601                           	
 12602  1F6A                     l12412:	
 12603  1F6A  2F6B               	goto	l1255
 12604                           	
 12605  1F6B                     l1256:	
 12606                           	line	533
 12607                           	
 12608  1F6B                     l1255:	
 12609  1F6B  0008               	return
 12610                           	opt stack 0
 12611                           GLOBAL	__end_of_Cap2kXungLen
 12612  1F6C                     	__end_of_Cap2kXungLen:
 12613 ;; =============== function _Cap2kXungLen ends ============
 12614                           
 12615                           	signat	_Cap2kXungLen,89
 12616                           	global	_Cap2kXungXuong
 12617                           psect	text1437,local,class=CODE,delta=2
 12618                           global __ptext1437
 12619  1F36                     __ptext1437:
 12620                           
 12621 ;; *************** function _Cap2kXungXuong *****************
 12622 ;; Defined at:
 12623 ;;		line 535 in file "main.c"
 12624 ;; Parameters:    Size  Location     Type
 12625 ;;		None
 12626 ;; Auto vars:     Size  Location     Type
 12627 ;;		None
 12628 ;; Return value:  Size  Location     Type
 12629 ;;                  1    wreg      unsigned char 
 12630 ;; Registers used:
 12631 ;;		wreg
 12632 ;; Tracked objects:
 12633 ;;		On entry : 0/0
 12634 ;;		On exit  : 0/0
 12635 ;;		Unchanged: 0/0
 12636 ;; Data sizes:     COMMON   BANK0   BANK1   BANK3   BANK2
 12637 ;;      Params:         0       0       0       0       0
 12638 ;;      Locals:         0       0       0       0       0
 12639 ;;      Temps:          0       0       0       0       0
 12640 ;;      Totals:         0       0       0       0       0
 12641 ;;Total ram usage:        0 bytes
 12642 ;; Hardware stack levels used:    1
 12643 ;; Hardware stack levels required when called:    1
 12644 ;; This function calls:
 12645 ;;		Nothing
 12646 ;; This function is called by:
 12647 ;;		_main
 12648 ;; This function uses a non-reentrant model
 12649 ;;
 12650                           psect	text1437
 12651                           	file	"main.c"
 12652                           	line	535
 12653                           	global	__size_of_Cap2kXungXuong
 12654  001B                     	__size_of_Cap2kXungXuong	equ	__end_of_Cap2kXungXuong-_Cap2kXungXuong
 12655                           	
 12656  1F36                     _Cap2kXungXuong:	
 12657                           	opt	stack 6
 12658                           ; Regs used in _Cap2kXungXuong: [wreg]
 12659                           	line	536
 12660                           	
 12661  1F36                     l12386:	
 12662                           ;main.c: 536: if (key_code[5] == 1 || (key_code[5] >= 10 && key_code[5] % 1 == 0))
 12663  1F36  3001               	movlw	01h
 12664  1F37  1683               	bsf	status, 5	;RP0=1, select bank1
 12665  1F38  1303               	bcf	status, 6	;RP1=0, select bank1
 12666  1F39  062A               	xorwf	0+(_key_code)^080h+0Ah,w
 12667  1F3A  042B               	iorwf	1+(_key_code)^080h+0Ah,w
 12668  1F3B  1903               	skipnz
 12669  1F3C  2F3E               	goto	u7921
 12670  1F3D  2F3F               	goto	u7920
 12671  1F3E                     u7921:
 12672  1F3E  2F49               	goto	l12390
 12673  1F3F                     u7920:
 12674                           	
 12675  1F3F                     l12388:	
 12676  1F3F  3000               	movlw	high(0Ah)
 12677  1F40  022B               	subwf	1+(_key_code)^080h+0Ah,w
 12678  1F41  300A               	movlw	low(0Ah)
 12679  1F42  1903               	skipnz
 12680  1F43  022A               	subwf	0+(_key_code)^080h+0Ah,w
 12681  1F44  1C03               	skipc
 12682  1F45  2F47               	goto	u7931
 12683  1F46  2F48               	goto	u7930
 12684  1F47                     u7931:
 12685  1F47  2F4D               	goto	l12396
 12686  1F48                     u7930:
 12687  1F48  2F49               	goto	l12390
 12688                           	
 12689  1F49                     l1261:	
 12690                           	line	537
 12691                           	
 12692  1F49                     l12390:	
 12693                           ;main.c: 537: return 1;
 12694  1F49  3001               	movlw	(01h)
 12695  1F4A  2F50               	goto	l1262
 12696                           	
 12697  1F4B                     l12392:	
 12698  1F4B  2F50               	goto	l1262
 12699                           	
 12700  1F4C                     l12394:	
 12701  1F4C  2F50               	goto	l1262
 12702                           	line	538
 12703                           	
 12704  1F4D                     l1259:	
 12705                           	line	539
 12706                           	
 12707  1F4D                     l12396:	
 12708                           ;main.c: 538: else
 12709                           ;main.c: 539: return 0;
 12710  1F4D  3000               	movlw	(0)
 12711  1F4E  2F50               	goto	l1262
 12712                           	
 12713  1F4F                     l12398:	
 12714  1F4F  2F50               	goto	l1262
 12715                           	
 12716  1F50                     l1263:	
 12717                           	line	540
 12718                           	
 12719  1F50                     l1262:	
 12720  1F50  0008               	return
 12721                           	opt stack 0
 12722                           GLOBAL	__end_of_Cap2kXungXuong
 12723  1F51                     	__end_of_Cap2kXungXuong:
 12724 ;; =============== function _Cap2kXungXuong ends ============
 12725                           
 12726                           	signat	_Cap2kXungXuong,89
 12727                           	global	_ChuyenLuoiPhai
 12728                           psect	text1438,local,class=CODE,delta=2
 12729                           global __ptext1438
 12730  1F1B                     __ptext1438:
 12731                           
 12732 ;; *************** function _ChuyenLuoiPhai *****************
 12733 ;; Defined at:
 12734 ;;		line 542 in file "main.c"
 12735 ;; Parameters:    Size  Location     Type
 12736 ;;		None
 12737 ;; Auto vars:     Size  Location     Type
 12738 ;;		None
 12739 ;; Return value:  Size  Location     Type
 12740 ;;                  1    wreg      unsigned char 
 12741 ;; Registers used:
 12742 ;;		wreg
 12743 ;; Tracked objects:
 12744 ;;		On entry : 0/0
 12745 ;;		On exit  : 0/0
 12746 ;;		Unchanged: 0/0
 12747 ;; Data sizes:     COMMON   BANK0   BANK1   BANK3   BANK2
 12748 ;;      Params:         0       0       0       0       0
 12749 ;;      Locals:         0       0       0       0       0
 12750 ;;      Temps:          0       0       0       0       0
 12751 ;;      Totals:         0       0       0       0       0
 12752 ;;Total ram usage:        0 bytes
 12753 ;; Hardware stack levels used:    1
 12754 ;; Hardware stack levels required when called:    1
 12755 ;; This function calls:
 12756 ;;		Nothing
 12757 ;; This function is called by:
 12758 ;;		_main
 12759 ;; This function uses a non-reentrant model
 12760 ;;
 12761                           psect	text1438
 12762                           	file	"main.c"
 12763                           	line	542
 12764                           	global	__size_of_ChuyenLuoiPhai
 12765  001B                     	__size_of_ChuyenLuoiPhai	equ	__end_of_ChuyenLuoiPhai-_ChuyenLuoiPhai
 12766                           	
 12767  1F1B                     _ChuyenLuoiPhai:	
 12768                           	opt	stack 6
 12769                           ; Regs used in _ChuyenLuoiPhai: [wreg]
 12770                           	line	543
 12771                           	
 12772  1F1B                     l12372:	
 12773                           ;main.c: 543: if (key_code[0] == 1 || (key_code[0] >= 10 && key_code[0] % 1 == 0))
 12774  1F1B  3001               	movlw	01h
 12775  1F1C  1683               	bsf	status, 5	;RP0=1, select bank1
 12776  1F1D  1303               	bcf	status, 6	;RP1=0, select bank1
 12777  1F1E  0620               	xorwf	(_key_code)^080h,w
 12778  1F1F  0421               	iorwf	(_key_code+1)^080h,w
 12779  1F20  1903               	skipnz
 12780  1F21  2F23               	goto	u7901
 12781  1F22  2F24               	goto	u7900
 12782  1F23                     u7901:
 12783  1F23  2F2E               	goto	l12376
 12784  1F24                     u7900:
 12785                           	
 12786  1F24                     l12374:	
 12787  1F24  3000               	movlw	high(0Ah)
 12788  1F25  0221               	subwf	(_key_code+1)^080h,w
 12789  1F26  300A               	movlw	low(0Ah)
 12790  1F27  1903               	skipnz
 12791  1F28  0220               	subwf	(_key_code)^080h,w
 12792  1F29  1C03               	skipc
 12793  1F2A  2F2C               	goto	u7911
 12794  1F2B  2F2D               	goto	u7910
 12795  1F2C                     u7911:
 12796  1F2C  2F32               	goto	l12382
 12797  1F2D                     u7910:
 12798  1F2D  2F2E               	goto	l12376
 12799                           	
 12800  1F2E                     l1268:	
 12801                           	line	544
 12802                           	
 12803  1F2E                     l12376:	
 12804                           ;main.c: 544: return 1;
 12805  1F2E  3001               	movlw	(01h)
 12806  1F2F  2F35               	goto	l1269
 12807                           	
 12808  1F30                     l12378:	
 12809  1F30  2F35               	goto	l1269
 12810                           	
 12811  1F31                     l12380:	
 12812  1F31  2F35               	goto	l1269
 12813                           	line	545
 12814                           	
 12815  1F32                     l1266:	
 12816                           	line	546
 12817                           	
 12818  1F32                     l12382:	
 12819                           ;main.c: 545: else
 12820                           ;main.c: 546: return 0;
 12821  1F32  3000               	movlw	(0)
 12822  1F33  2F35               	goto	l1269
 12823                           	
 12824  1F34                     l12384:	
 12825  1F34  2F35               	goto	l1269
 12826                           	
 12827  1F35                     l1270:	
 12828                           	line	547
 12829                           	
 12830  1F35                     l1269:	
 12831  1F35  0008               	return
 12832                           	opt stack 0
 12833                           GLOBAL	__end_of_ChuyenLuoiPhai
 12834  1F36                     	__end_of_ChuyenLuoiPhai:
 12835 ;; =============== function _ChuyenLuoiPhai ends ============
 12836                           
 12837                           	signat	_ChuyenLuoiPhai,89
 12838                           	global	_ChuyenLuoiTrai
 12839                           psect	text1439,local,class=CODE,delta=2
 12840                           global __ptext1439
 12841  1F00                     __ptext1439:
 12842                           
 12843 ;; *************** function _ChuyenLuoiTrai *****************
 12844 ;; Defined at:
 12845 ;;		line 549 in file "main.c"
 12846 ;; Parameters:    Size  Location     Type
 12847 ;;		None
 12848 ;; Auto vars:     Size  Location     Type
 12849 ;;		None
 12850 ;; Return value:  Size  Location     Type
 12851 ;;                  1    wreg      unsigned char 
 12852 ;; Registers used:
 12853 ;;		wreg
 12854 ;; Tracked objects:
 12855 ;;		On entry : 0/0
 12856 ;;		On exit  : 0/0
 12857 ;;		Unchanged: 0/0
 12858 ;; Data sizes:     COMMON   BANK0   BANK1   BANK3   BANK2
 12859 ;;      Params:         0       0       0       0       0
 12860 ;;      Locals:         0       0       0       0       0
 12861 ;;      Temps:          0       0       0       0       0
 12862 ;;      Totals:         0       0       0       0       0
 12863 ;;Total ram usage:        0 bytes
 12864 ;; Hardware stack levels used:    1
 12865 ;; Hardware stack levels required when called:    1
 12866 ;; This function calls:
 12867 ;;		Nothing
 12868 ;; This function is called by:
 12869 ;;		_main
 12870 ;; This function uses a non-reentrant model
 12871 ;;
 12872                           psect	text1439
 12873                           	file	"main.c"
 12874                           	line	549
 12875                           	global	__size_of_ChuyenLuoiTrai
 12876  001B                     	__size_of_ChuyenLuoiTrai	equ	__end_of_ChuyenLuoiTrai-_ChuyenLuoiTrai
 12877                           	
 12878  1F00                     _ChuyenLuoiTrai:	
 12879                           	opt	stack 6
 12880                           ; Regs used in _ChuyenLuoiTrai: [wreg]
 12881                           	line	550
 12882                           	
 12883  1F00                     l12358:	
 12884                           ;main.c: 550: if (key_code[2] == 1 || (key_code[2] >= 10 && key_code[2] % 1 == 0))
 12885  1F00  3001               	movlw	01h
 12886  1F01  1683               	bsf	status, 5	;RP0=1, select bank1
 12887  1F02  1303               	bcf	status, 6	;RP1=0, select bank1
 12888  1F03  0624               	xorwf	0+(_key_code)^080h+04h,w
 12889  1F04  0425               	iorwf	1+(_key_code)^080h+04h,w
 12890  1F05  1903               	skipnz
 12891  1F06  2F08               	goto	u7881
 12892  1F07  2F09               	goto	u7880
 12893  1F08                     u7881:
 12894  1F08  2F13               	goto	l12362
 12895  1F09                     u7880:
 12896                           	
 12897  1F09                     l12360:	
 12898  1F09  3000               	movlw	high(0Ah)
 12899  1F0A  0225               	subwf	1+(_key_code)^080h+04h,w
 12900  1F0B  300A               	movlw	low(0Ah)
 12901  1F0C  1903               	skipnz
 12902  1F0D  0224               	subwf	0+(_key_code)^080h+04h,w
 12903  1F0E  1C03               	skipc
 12904  1F0F  2F11               	goto	u7891
 12905  1F10  2F12               	goto	u7890
 12906  1F11                     u7891:
 12907  1F11  2F17               	goto	l12368
 12908  1F12                     u7890:
 12909  1F12  2F13               	goto	l12362
 12910                           	
 12911  1F13                     l1275:	
 12912                           	line	551
 12913                           	
 12914  1F13                     l12362:	
 12915                           ;main.c: 551: return 1;
 12916  1F13  3001               	movlw	(01h)
 12917  1F14  2F1A               	goto	l1276
 12918                           	
 12919  1F15                     l12364:	
 12920  1F15  2F1A               	goto	l1276
 12921                           	
 12922  1F16                     l12366:	
 12923  1F16  2F1A               	goto	l1276
 12924                           	line	552
 12925                           	
 12926  1F17                     l1273:	
 12927                           	line	553
 12928                           	
 12929  1F17                     l12368:	
 12930                           ;main.c: 552: else
 12931                           ;main.c: 553: return 0;
 12932  1F17  3000               	movlw	(0)
 12933  1F18  2F1A               	goto	l1276
 12934                           	
 12935  1F19                     l12370:	
 12936  1F19  2F1A               	goto	l1276
 12937                           	
 12938  1F1A                     l1277:	
 12939                           	line	554
 12940                           	
 12941  1F1A                     l1276:	
 12942  1F1A  0008               	return
 12943                           	opt stack 0
 12944                           GLOBAL	__end_of_ChuyenLuoiTrai
 12945  1F1B                     	__end_of_ChuyenLuoiTrai:
 12946 ;; =============== function _ChuyenLuoiTrai ends ============
 12947                           
 12948                           	signat	_ChuyenLuoiTrai,89
 12949                           	global	_Ra
 12950                           psect	text1440,local,class=CODE,delta=2
 12951                           global __ptext1440
 12952  1EE5                     __ptext1440:
 12953                           
 12954 ;; *************** function _Ra *****************
 12955 ;; Defined at:
 12956 ;;		line 577 in file "main.c"
 12957 ;; Parameters:    Size  Location     Type
 12958 ;;		None
 12959 ;; Auto vars:     Size  Location     Type
 12960 ;;		None
 12961 ;; Return value:  Size  Location     Type
 12962 ;;                  1    wreg      unsigned char 
 12963 ;; Registers used:
 12964 ;;		wreg
 12965 ;; Tracked objects:
 12966 ;;		On entry : 0/0
 12967 ;;		On exit  : 0/0
 12968 ;;		Unchanged: 0/0
 12969 ;; Data sizes:     COMMON   BANK0   BANK1   BANK3   BANK2
 12970 ;;      Params:         0       0       0       0       0
 12971 ;;      Locals:         0       0       0       0       0
 12972 ;;      Temps:          0       0       0       0       0
 12973 ;;      Totals:         0       0       0       0       0
 12974 ;;Total ram usage:        0 bytes
 12975 ;; Hardware stack levels used:    1
 12976 ;; Hardware stack levels required when called:    1
 12977 ;; This function calls:
 12978 ;;		Nothing
 12979 ;; This function is called by:
 12980 ;;		_main
 12981 ;; This function uses a non-reentrant model
 12982 ;;
 12983                           psect	text1440
 12984                           	file	"main.c"
 12985                           	line	577
 12986                           	global	__size_of_Ra
 12987  001B                     	__size_of_Ra	equ	__end_of_Ra-_Ra
 12988                           	
 12989  1EE5                     _Ra:	
 12990                           	opt	stack 6
 12991                           ; Regs used in _Ra: [wreg]
 12992                           	line	578
 12993                           	
 12994  1EE5                     l12344:	
 12995                           ;main.c: 578: if (key_code[9] == 1 || (key_code[9] >= 10 && key_code[9] % 1 == 0))
 12996  1EE5  3001               	movlw	01h
 12997  1EE6  1683               	bsf	status, 5	;RP0=1, select bank1
 12998  1EE7  1303               	bcf	status, 6	;RP1=0, select bank1
 12999  1EE8  0632               	xorwf	0+(_key_code)^080h+012h,w
 13000  1EE9  0433               	iorwf	1+(_key_code)^080h+012h,w
 13001  1EEA  1903               	skipnz
 13002  1EEB  2EED               	goto	u7861
 13003  1EEC  2EEE               	goto	u7860
 13004  1EED                     u7861:
 13005  1EED  2EF8               	goto	l12348
 13006  1EEE                     u7860:
 13007                           	
 13008  1EEE                     l12346:	
 13009  1EEE  3000               	movlw	high(0Ah)
 13010  1EEF  0233               	subwf	1+(_key_code)^080h+012h,w
 13011  1EF0  300A               	movlw	low(0Ah)
 13012  1EF1  1903               	skipnz
 13013  1EF2  0232               	subwf	0+(_key_code)^080h+012h,w
 13014  1EF3  1C03               	skipc
 13015  1EF4  2EF6               	goto	u7871
 13016  1EF5  2EF7               	goto	u7870
 13017  1EF6                     u7871:
 13018  1EF6  2EFC               	goto	l12354
 13019  1EF7                     u7870:
 13020  1EF7  2EF8               	goto	l12348
 13021                           	
 13022  1EF8                     l1303:	
 13023                           	line	579
 13024                           	
 13025  1EF8                     l12348:	
 13026                           ;main.c: 579: return 1;
 13027  1EF8  3001               	movlw	(01h)
 13028  1EF9  2EFF               	goto	l1304
 13029                           	
 13030  1EFA                     l12350:	
 13031  1EFA  2EFF               	goto	l1304
 13032                           	
 13033  1EFB                     l12352:	
 13034  1EFB  2EFF               	goto	l1304
 13035                           	line	580
 13036                           	
 13037  1EFC                     l1301:	
 13038                           	line	581
 13039                           	
 13040  1EFC                     l12354:	
 13041                           ;main.c: 580: else
 13042                           ;main.c: 581: return 0;
 13043  1EFC  3000               	movlw	(0)
 13044  1EFD  2EFF               	goto	l1304
 13045                           	
 13046  1EFE                     l12356:	
 13047  1EFE  2EFF               	goto	l1304
 13048                           	
 13049  1EFF                     l1305:	
 13050                           	line	582
 13051                           	
 13052  1EFF                     l1304:	
 13053  1EFF  0008               	return
 13054                           	opt stack 0
 13055                           GLOBAL	__end_of_Ra
 13056  1F00                     	__end_of_Ra:
 13057 ;; =============== function _Ra ends ============
 13058                           
 13059                           	signat	_Ra,89
 13060                           	global	_Vao
 13061                           psect	text1441,local,class=CODE,delta=2
 13062                           global __ptext1441
 13063  1ECA                     __ptext1441:
 13064                           
 13065 ;; *************** function _Vao *****************
 13066 ;; Defined at:
 13067 ;;		line 570 in file "main.c"
 13068 ;; Parameters:    Size  Location     Type
 13069 ;;		None
 13070 ;; Auto vars:     Size  Location     Type
 13071 ;;		None
 13072 ;; Return value:  Size  Location     Type
 13073 ;;                  1    wreg      unsigned char 
 13074 ;; Registers used:
 13075 ;;		wreg
 13076 ;; Tracked objects:
 13077 ;;		On entry : 0/0
 13078 ;;		On exit  : 0/0
 13079 ;;		Unchanged: 0/0
 13080 ;; Data sizes:     COMMON   BANK0   BANK1   BANK3   BANK2
 13081 ;;      Params:         0       0       0       0       0
 13082 ;;      Locals:         0       0       0       0       0
 13083 ;;      Temps:          0       0       0       0       0
 13084 ;;      Totals:         0       0       0       0       0
 13085 ;;Total ram usage:        0 bytes
 13086 ;; Hardware stack levels used:    1
 13087 ;; Hardware stack levels required when called:    1
 13088 ;; This function calls:
 13089 ;;		Nothing
 13090 ;; This function is called by:
 13091 ;;		_main
 13092 ;; This function uses a non-reentrant model
 13093 ;;
 13094                           psect	text1441
 13095                           	file	"main.c"
 13096                           	line	570
 13097                           	global	__size_of_Vao
 13098  001B                     	__size_of_Vao	equ	__end_of_Vao-_Vao
 13099                           	
 13100  1ECA                     _Vao:	
 13101                           	opt	stack 6
 13102                           ; Regs used in _Vao: [wreg]
 13103                           	line	571
 13104                           	
 13105  1ECA                     l12330:	
 13106                           ;main.c: 571: if (key_code[8] == 1 || (key_code[8] >= 10 && key_code[8] % 1 == 0))
 13107  1ECA  3001               	movlw	01h
 13108  1ECB  1683               	bsf	status, 5	;RP0=1, select bank1
 13109  1ECC  1303               	bcf	status, 6	;RP1=0, select bank1
 13110  1ECD  0630               	xorwf	0+(_key_code)^080h+010h,w
 13111  1ECE  0431               	iorwf	1+(_key_code)^080h+010h,w
 13112  1ECF  1903               	skipnz
 13113  1ED0  2ED2               	goto	u7841
 13114  1ED1  2ED3               	goto	u7840
 13115  1ED2                     u7841:
 13116  1ED2  2EDD               	goto	l12334
 13117  1ED3                     u7840:
 13118                           	
 13119  1ED3                     l12332:	
 13120  1ED3  3000               	movlw	high(0Ah)
 13121  1ED4  0231               	subwf	1+(_key_code)^080h+010h,w
 13122  1ED5  300A               	movlw	low(0Ah)
 13123  1ED6  1903               	skipnz
 13124  1ED7  0230               	subwf	0+(_key_code)^080h+010h,w
 13125  1ED8  1C03               	skipc
 13126  1ED9  2EDB               	goto	u7851
 13127  1EDA  2EDC               	goto	u7850
 13128  1EDB                     u7851:
 13129  1EDB  2EE1               	goto	l12340
 13130  1EDC                     u7850:
 13131  1EDC  2EDD               	goto	l12334
 13132                           	
 13133  1EDD                     l1296:	
 13134                           	line	572
 13135                           	
 13136  1EDD                     l12334:	
 13137                           ;main.c: 572: return 1;
 13138  1EDD  3001               	movlw	(01h)
 13139  1EDE  2EE4               	goto	l1297
 13140                           	
 13141  1EDF                     l12336:	
 13142  1EDF  2EE4               	goto	l1297
 13143                           	
 13144  1EE0                     l12338:	
 13145  1EE0  2EE4               	goto	l1297
 13146                           	line	573
 13147                           	
 13148  1EE1                     l1294:	
 13149                           	line	574
 13150                           	
 13151  1EE1                     l12340:	
 13152                           ;main.c: 573: else
 13153                           ;main.c: 574: return 0;
 13154  1EE1  3000               	movlw	(0)
 13155  1EE2  2EE4               	goto	l1297
 13156                           	
 13157  1EE3                     l12342:	
 13158  1EE3  2EE4               	goto	l1297
 13159                           	
 13160  1EE4                     l1298:	
 13161                           	line	575
 13162                           	
 13163  1EE4                     l1297:	
 13164  1EE4  0008               	return
 13165                           	opt stack 0
 13166                           GLOBAL	__end_of_Vao
 13167  1EE5                     	__end_of_Vao:
 13168 ;; =============== function _Vao ends ============
 13169                           
 13170                           	signat	_Vao,89
 13171                           	global	_Xuong
 13172                           psect	text1442,local,class=CODE,delta=2
 13173                           global __ptext1442
 13174  1EAF                     __ptext1442:
 13175                           
 13176 ;; *************** function _Xuong *****************
 13177 ;; Defined at:
 13178 ;;		line 591 in file "main.c"
 13179 ;; Parameters:    Size  Location     Type
 13180 ;;		None
 13181 ;; Auto vars:     Size  Location     Type
 13182 ;;		None
 13183 ;; Return value:  Size  Location     Type
 13184 ;;                  1    wreg      unsigned char 
 13185 ;; Registers used:
 13186 ;;		wreg
 13187 ;; Tracked objects:
 13188 ;;		On entry : 0/0
 13189 ;;		On exit  : 0/0
 13190 ;;		Unchanged: 0/0
 13191 ;; Data sizes:     COMMON   BANK0   BANK1   BANK3   BANK2
 13192 ;;      Params:         0       0       0       0       0
 13193 ;;      Locals:         0       0       0       0       0
 13194 ;;      Temps:          0       0       0       0       0
 13195 ;;      Totals:         0       0       0       0       0
 13196 ;;Total ram usage:        0 bytes
 13197 ;; Hardware stack levels used:    1
 13198 ;; Hardware stack levels required when called:    1
 13199 ;; This function calls:
 13200 ;;		Nothing
 13201 ;; This function is called by:
 13202 ;;		_main
 13203 ;; This function uses a non-reentrant model
 13204 ;;
 13205                           psect	text1442
 13206                           	file	"main.c"
 13207                           	line	591
 13208                           	global	__size_of_Xuong
 13209  001B                     	__size_of_Xuong	equ	__end_of_Xuong-_Xuong
 13210                           	
 13211  1EAF                     _Xuong:	
 13212                           	opt	stack 6
 13213                           ; Regs used in _Xuong: [wreg]
 13214                           	line	592
 13215                           	
 13216  1EAF                     l12316:	
 13217                           ;main.c: 592: if (key_code[11] == 1 || (key_code[11] >= 10 && key_code[11] % 1 == 0))
 13218  1EAF  3001               	movlw	01h
 13219  1EB0  1683               	bsf	status, 5	;RP0=1, select bank1
 13220  1EB1  1303               	bcf	status, 6	;RP1=0, select bank1
 13221  1EB2  0636               	xorwf	0+(_key_code)^080h+016h,w
 13222  1EB3  0437               	iorwf	1+(_key_code)^080h+016h,w
 13223  1EB4  1903               	skipnz
 13224  1EB5  2EB7               	goto	u7821
 13225  1EB6  2EB8               	goto	u7820
 13226  1EB7                     u7821:
 13227  1EB7  2EC2               	goto	l12320
 13228  1EB8                     u7820:
 13229                           	
 13230  1EB8                     l12318:	
 13231  1EB8  3000               	movlw	high(0Ah)
 13232  1EB9  0237               	subwf	1+(_key_code)^080h+016h,w
 13233  1EBA  300A               	movlw	low(0Ah)
 13234  1EBB  1903               	skipnz
 13235  1EBC  0236               	subwf	0+(_key_code)^080h+016h,w
 13236  1EBD  1C03               	skipc
 13237  1EBE  2EC0               	goto	u7831
 13238  1EBF  2EC1               	goto	u7830
 13239  1EC0                     u7831:
 13240  1EC0  2EC6               	goto	l12326
 13241  1EC1                     u7830:
 13242  1EC1  2EC2               	goto	l12320
 13243                           	
 13244  1EC2                     l1317:	
 13245                           	line	593
 13246                           	
 13247  1EC2                     l12320:	
 13248                           ;main.c: 593: return 1;
 13249  1EC2  3001               	movlw	(01h)
 13250  1EC3  2EC9               	goto	l1318
 13251                           	
 13252  1EC4                     l12322:	
 13253  1EC4  2EC9               	goto	l1318
 13254                           	
 13255  1EC5                     l12324:	
 13256  1EC5  2EC9               	goto	l1318
 13257                           	line	594
 13258                           	
 13259  1EC6                     l1315:	
 13260                           	line	595
 13261                           	
 13262  1EC6                     l12326:	
 13263                           ;main.c: 594: else
 13264                           ;main.c: 595: return 0;
 13265  1EC6  3000               	movlw	(0)
 13266  1EC7  2EC9               	goto	l1318
 13267                           	
 13268  1EC8                     l12328:	
 13269  1EC8  2EC9               	goto	l1318
 13270                           	
 13271  1EC9                     l1319:	
 13272                           	line	596
 13273                           	
 13274  1EC9                     l1318:	
 13275  1EC9  0008               	return
 13276                           	opt stack 0
 13277                           GLOBAL	__end_of_Xuong
 13278  1ECA                     	__end_of_Xuong:
 13279 ;; =============== function _Xuong ends ============
 13280                           
 13281                           	signat	_Xuong,89
 13282                           	global	_Len
 13283                           psect	text1443,local,class=CODE,delta=2
 13284                           global __ptext1443
 13285  1E94                     __ptext1443:
 13286                           
 13287 ;; *************** function _Len *****************
 13288 ;; Defined at:
 13289 ;;		line 584 in file "main.c"
 13290 ;; Parameters:    Size  Location     Type
 13291 ;;		None
 13292 ;; Auto vars:     Size  Location     Type
 13293 ;;		None
 13294 ;; Return value:  Size  Location     Type
 13295 ;;                  1    wreg      unsigned char 
 13296 ;; Registers used:
 13297 ;;		wreg
 13298 ;; Tracked objects:
 13299 ;;		On entry : 0/0
 13300 ;;		On exit  : 0/0
 13301 ;;		Unchanged: 0/0
 13302 ;; Data sizes:     COMMON   BANK0   BANK1   BANK3   BANK2
 13303 ;;      Params:         0       0       0       0       0
 13304 ;;      Locals:         0       0       0       0       0
 13305 ;;      Temps:          0       0       0       0       0
 13306 ;;      Totals:         0       0       0       0       0
 13307 ;;Total ram usage:        0 bytes
 13308 ;; Hardware stack levels used:    1
 13309 ;; Hardware stack levels required when called:    1
 13310 ;; This function calls:
 13311 ;;		Nothing
 13312 ;; This function is called by:
 13313 ;;		_main
 13314 ;; This function uses a non-reentrant model
 13315 ;;
 13316                           psect	text1443
 13317                           	file	"main.c"
 13318                           	line	584
 13319                           	global	__size_of_Len
 13320  001B                     	__size_of_Len	equ	__end_of_Len-_Len
 13321                           	
 13322  1E94                     _Len:	
 13323                           	opt	stack 6
 13324                           ; Regs used in _Len: [wreg]
 13325                           	line	585
 13326                           	
 13327  1E94                     l12302:	
 13328                           ;main.c: 585: if (key_code[10] == 1 || (key_code[10] >= 10 && key_code[10] % 1 == 0))
 13329  1E94  3001               	movlw	01h
 13330  1E95  1683               	bsf	status, 5	;RP0=1, select bank1
 13331  1E96  1303               	bcf	status, 6	;RP1=0, select bank1
 13332  1E97  0634               	xorwf	0+(_key_code)^080h+014h,w
 13333  1E98  0435               	iorwf	1+(_key_code)^080h+014h,w
 13334  1E99  1903               	skipnz
 13335  1E9A  2E9C               	goto	u7801
 13336  1E9B  2E9D               	goto	u7800
 13337  1E9C                     u7801:
 13338  1E9C  2EA7               	goto	l12306
 13339  1E9D                     u7800:
 13340                           	
 13341  1E9D                     l12304:	
 13342  1E9D  3000               	movlw	high(0Ah)
 13343  1E9E  0235               	subwf	1+(_key_code)^080h+014h,w
 13344  1E9F  300A               	movlw	low(0Ah)
 13345  1EA0  1903               	skipnz
 13346  1EA1  0234               	subwf	0+(_key_code)^080h+014h,w
 13347  1EA2  1C03               	skipc
 13348  1EA3  2EA5               	goto	u7811
 13349  1EA4  2EA6               	goto	u7810
 13350  1EA5                     u7811:
 13351  1EA5  2EAB               	goto	l12312
 13352  1EA6                     u7810:
 13353  1EA6  2EA7               	goto	l12306
 13354                           	
 13355  1EA7                     l1310:	
 13356                           	line	586
 13357                           	
 13358  1EA7                     l12306:	
 13359                           ;main.c: 586: return 1;
 13360  1EA7  3001               	movlw	(01h)
 13361  1EA8  2EAE               	goto	l1311
 13362                           	
 13363  1EA9                     l12308:	
 13364  1EA9  2EAE               	goto	l1311
 13365                           	
 13366  1EAA                     l12310:	
 13367  1EAA  2EAE               	goto	l1311
 13368                           	line	587
 13369                           	
 13370  1EAB                     l1308:	
 13371                           	line	588
 13372                           	
 13373  1EAB                     l12312:	
 13374                           ;main.c: 587: else
 13375                           ;main.c: 588: return 0;
 13376  1EAB  3000               	movlw	(0)
 13377  1EAC  2EAE               	goto	l1311
 13378                           	
 13379  1EAD                     l12314:	
 13380  1EAD  2EAE               	goto	l1311
 13381                           	
 13382  1EAE                     l1312:	
 13383                           	line	589
 13384                           	
 13385  1EAE                     l1311:	
 13386  1EAE  0008               	return
 13387                           	opt stack 0
 13388                           GLOBAL	__end_of_Len
 13389  1EAF                     	__end_of_Len:
 13390 ;; =============== function _Len ends ============
 13391                           
 13392                           	signat	_Len,89
 13393                           	global	_MotorON
 13394                           psect	text1444,local,class=CODE,delta=2
 13395                           global __ptext1444
 13396  1E79                     __ptext1444:
 13397                           
 13398 ;; *************** function _MotorON *****************
 13399 ;; Defined at:
 13400 ;;		line 563 in file "main.c"
 13401 ;; Parameters:    Size  Location     Type
 13402 ;;		None
 13403 ;; Auto vars:     Size  Location     Type
 13404 ;;		None
 13405 ;; Return value:  Size  Location     Type
 13406 ;;                  1    wreg      unsigned char 
 13407 ;; Registers used:
 13408 ;;		wreg
 13409 ;; Tracked objects:
 13410 ;;		On entry : 0/0
 13411 ;;		On exit  : 0/0
 13412 ;;		Unchanged: 0/0
 13413 ;; Data sizes:     COMMON   BANK0   BANK1   BANK3   BANK2
 13414 ;;      Params:         0       0       0       0       0
 13415 ;;      Locals:         0       0       0       0       0
 13416 ;;      Temps:          0       0       0       0       0
 13417 ;;      Totals:         0       0       0       0       0
 13418 ;;Total ram usage:        0 bytes
 13419 ;; Hardware stack levels used:    1
 13420 ;; Hardware stack levels required when called:    1
 13421 ;; This function calls:
 13422 ;;		Nothing
 13423 ;; This function is called by:
 13424 ;;		_main
 13425 ;; This function uses a non-reentrant model
 13426 ;;
 13427                           psect	text1444
 13428                           	file	"main.c"
 13429                           	line	563
 13430                           	global	__size_of_MotorON
 13431  001B                     	__size_of_MotorON	equ	__end_of_MotorON-_MotorON
 13432                           	
 13433  1E79                     _MotorON:	
 13434                           	opt	stack 6
 13435                           ; Regs used in _MotorON: [wreg]
 13436                           	line	564
 13437                           	
 13438  1E79                     l12288:	
 13439                           ;main.c: 564: if (key_code[3] == 1 || (key_code[3] >= 10 && key_code[3] % 1 == 0))
 13440  1E79  3001               	movlw	01h
 13441  1E7A  1683               	bsf	status, 5	;RP0=1, select bank1
 13442  1E7B  1303               	bcf	status, 6	;RP1=0, select bank1
 13443  1E7C  0626               	xorwf	0+(_key_code)^080h+06h,w
 13444  1E7D  0427               	iorwf	1+(_key_code)^080h+06h,w
 13445  1E7E  1903               	skipnz
 13446  1E7F  2E81               	goto	u7781
 13447  1E80  2E82               	goto	u7780
 13448  1E81                     u7781:
 13449  1E81  2E8C               	goto	l12292
 13450  1E82                     u7780:
 13451                           	
 13452  1E82                     l12290:	
 13453  1E82  3000               	movlw	high(0Ah)
 13454  1E83  0227               	subwf	1+(_key_code)^080h+06h,w
 13455  1E84  300A               	movlw	low(0Ah)
 13456  1E85  1903               	skipnz
 13457  1E86  0226               	subwf	0+(_key_code)^080h+06h,w
 13458  1E87  1C03               	skipc
 13459  1E88  2E8A               	goto	u7791
 13460  1E89  2E8B               	goto	u7790
 13461  1E8A                     u7791:
 13462  1E8A  2E90               	goto	l12298
 13463  1E8B                     u7790:
 13464  1E8B  2E8C               	goto	l12292
 13465                           	
 13466  1E8C                     l1289:	
 13467                           	line	565
 13468                           	
 13469  1E8C                     l12292:	
 13470                           ;main.c: 565: return 1;
 13471  1E8C  3001               	movlw	(01h)
 13472  1E8D  2E93               	goto	l1290
 13473                           	
 13474  1E8E                     l12294:	
 13475  1E8E  2E93               	goto	l1290
 13476                           	
 13477  1E8F                     l12296:	
 13478  1E8F  2E93               	goto	l1290
 13479                           	line	566
 13480                           	
 13481  1E90                     l1287:	
 13482                           	line	567
 13483                           	
 13484  1E90                     l12298:	
 13485                           ;main.c: 566: else
 13486                           ;main.c: 567: return 0;
 13487  1E90  3000               	movlw	(0)
 13488  1E91  2E93               	goto	l1290
 13489                           	
 13490  1E92                     l12300:	
 13491  1E92  2E93               	goto	l1290
 13492                           	
 13493  1E93                     l1291:	
 13494                           	line	568
 13495                           	
 13496  1E93                     l1290:	
 13497  1E93  0008               	return
 13498                           	opt stack 0
 13499                           GLOBAL	__end_of_MotorON
 13500  1E94                     	__end_of_MotorON:
 13501 ;; =============== function _MotorON ends ============
 13502                           
 13503                           	signat	_MotorON,89
 13504                           	global	_ButtonEnter
 13505                           psect	text1445,local,class=CODE,delta=2
 13506                           global __ptext1445
 13507  1DDE                     __ptext1445:
 13508                           
 13509 ;; *************** function _ButtonEnter *****************
 13510 ;; Defined at:
 13511 ;;		line 619 in file "main.c"
 13512 ;; Parameters:    Size  Location     Type
 13513 ;;		None
 13514 ;; Auto vars:     Size  Location     Type
 13515 ;;		None
 13516 ;; Return value:  Size  Location     Type
 13517 ;;                  1    wreg      unsigned char 
 13518 ;; Registers used:
 13519 ;;		wreg
 13520 ;; Tracked objects:
 13521 ;;		On entry : 0/0
 13522 ;;		On exit  : 0/0
 13523 ;;		Unchanged: 0/0
 13524 ;; Data sizes:     COMMON   BANK0   BANK1   BANK3   BANK2
 13525 ;;      Params:         0       0       0       0       0
 13526 ;;      Locals:         0       0       0       0       0
 13527 ;;      Temps:          0       0       0       0       0
 13528 ;;      Totals:         0       0       0       0       0
 13529 ;;Total ram usage:        0 bytes
 13530 ;; Hardware stack levels used:    1
 13531 ;; Hardware stack levels required when called:    1
 13532 ;; This function calls:
 13533 ;;		Nothing
 13534 ;; This function is called by:
 13535 ;;		_main
 13536 ;; This function uses a non-reentrant model
 13537 ;;
 13538                           psect	text1445
 13539                           	file	"main.c"
 13540                           	line	619
 13541                           	global	__size_of_ButtonEnter
 13542  0011                     	__size_of_ButtonEnter	equ	__end_of_ButtonEnter-_ButtonEnter
 13543                           	
 13544  1DDE                     _ButtonEnter:	
 13545                           	opt	stack 6
 13546                           ; Regs used in _ButtonEnter: [wreg]
 13547                           	line	620
 13548                           	
 13549  1DDE                     l12276:	
 13550                           ;main.c: 620: if (key_code[15] == 1)
 13551  1DDE  3001               	movlw	01h
 13552  1DDF  1683               	bsf	status, 5	;RP0=1, select bank1
 13553  1DE0  1303               	bcf	status, 6	;RP1=0, select bank1
 13554  1DE1  063E               	xorwf	0+(_key_code)^080h+01Eh,w
 13555  1DE2  043F               	iorwf	1+(_key_code)^080h+01Eh,w
 13556  1DE3  1D03               	skipz
 13557  1DE4  2DE6               	goto	u7771
 13558  1DE5  2DE7               	goto	u7770
 13559  1DE6                     u7771:
 13560  1DE6  2DEB               	goto	l12284
 13561  1DE7                     u7770:
 13562                           	line	621
 13563                           	
 13564  1DE7                     l12278:	
 13565                           ;main.c: 621: return 1;
 13566  1DE7  3001               	movlw	(01h)
 13567  1DE8  2DEE               	goto	l1338
 13568                           	
 13569  1DE9                     l12280:	
 13570  1DE9  2DEE               	goto	l1338
 13571                           	
 13572  1DEA                     l12282:	
 13573  1DEA  2DEE               	goto	l1338
 13574                           	line	622
 13575                           	
 13576  1DEB                     l1337:	
 13577                           	line	623
 13578                           	
 13579  1DEB                     l12284:	
 13580                           ;main.c: 622: else
 13581                           ;main.c: 623: return 0;
 13582  1DEB  3000               	movlw	(0)
 13583  1DEC  2DEE               	goto	l1338
 13584                           	
 13585  1DED                     l12286:	
 13586  1DED  2DEE               	goto	l1338
 13587                           	
 13588  1DEE                     l1339:	
 13589                           	line	624
 13590                           	
 13591  1DEE                     l1338:	
 13592  1DEE  0008               	return
 13593                           	opt stack 0
 13594                           GLOBAL	__end_of_ButtonEnter
 13595  1DEF                     	__end_of_ButtonEnter:
 13596 ;; =============== function _ButtonEnter ends ============
 13597                           
 13598                           	signat	_ButtonEnter,89
 13599                           	global	_isButtonMode
 13600                           psect	text1446,local,class=CODE,delta=2
 13601                           global __ptext1446
 13602  1DCD                     __ptext1446:
 13603                           
 13604 ;; *************** function _isButtonMode *****************
 13605 ;; Defined at:
 13606 ;;		line 598 in file "main.c"
 13607 ;; Parameters:    Size  Location     Type
 13608 ;;		None
 13609 ;; Auto vars:     Size  Location     Type
 13610 ;;		None
 13611 ;; Return value:  Size  Location     Type
 13612 ;;                  1    wreg      unsigned char 
 13613 ;; Registers used:
 13614 ;;		wreg
 13615 ;; Tracked objects:
 13616 ;;		On entry : 0/0
 13617 ;;		On exit  : 0/0
 13618 ;;		Unchanged: 0/0
 13619 ;; Data sizes:     COMMON   BANK0   BANK1   BANK3   BANK2
 13620 ;;      Params:         0       0       0       0       0
 13621 ;;      Locals:         0       0       0       0       0
 13622 ;;      Temps:          0       0       0       0       0
 13623 ;;      Totals:         0       0       0       0       0
 13624 ;;Total ram usage:        0 bytes
 13625 ;; Hardware stack levels used:    1
 13626 ;; Hardware stack levels required when called:    1
 13627 ;; This function calls:
 13628 ;;		Nothing
 13629 ;; This function is called by:
 13630 ;;		_main
 13631 ;; This function uses a non-reentrant model
 13632 ;;
 13633                           psect	text1446
 13634                           	file	"main.c"
 13635                           	line	598
 13636                           	global	__size_of_isButtonMode
 13637  0011                     	__size_of_isButtonMode	equ	__end_of_isButtonMode-_isButtonMode
 13638                           	
 13639  1DCD                     _isButtonMode:	
 13640                           	opt	stack 6
 13641                           ; Regs used in _isButtonMode: [wreg]
 13642                           	line	599
 13643                           	
 13644  1DCD                     l12264:	
 13645                           ;main.c: 599: if (key_code[12] == 1)
 13646  1DCD  3001               	movlw	01h
 13647  1DCE  1683               	bsf	status, 5	;RP0=1, select bank1
 13648  1DCF  1303               	bcf	status, 6	;RP1=0, select bank1
 13649  1DD0  0638               	xorwf	0+(_key_code)^080h+018h,w
 13650  1DD1  0439               	iorwf	1+(_key_code)^080h+018h,w
 13651  1DD2  1D03               	skipz
 13652  1DD3  2DD5               	goto	u7761
 13653  1DD4  2DD6               	goto	u7760
 13654  1DD5                     u7761:
 13655  1DD5  2DDA               	goto	l12272
 13656  1DD6                     u7760:
 13657                           	line	600
 13658                           	
 13659  1DD6                     l12266:	
 13660                           ;main.c: 600: return 1;
 13661  1DD6  3001               	movlw	(01h)
 13662  1DD7  2DDD               	goto	l1323
 13663                           	
 13664  1DD8                     l12268:	
 13665  1DD8  2DDD               	goto	l1323
 13666                           	
 13667  1DD9                     l12270:	
 13668  1DD9  2DDD               	goto	l1323
 13669                           	line	601
 13670                           	
 13671  1DDA                     l1322:	
 13672                           	line	602
 13673                           	
 13674  1DDA                     l12272:	
 13675                           ;main.c: 601: else
 13676                           ;main.c: 602: return 0;
 13677  1DDA  3000               	movlw	(0)
 13678  1DDB  2DDD               	goto	l1323
 13679                           	
 13680  1DDC                     l12274:	
 13681  1DDC  2DDD               	goto	l1323
 13682                           	
 13683  1DDD                     l1324:	
 13684                           	line	603
 13685                           	
 13686  1DDD                     l1323:	
 13687  1DDD  0008               	return
 13688                           	opt stack 0
 13689                           GLOBAL	__end_of_isButtonMode
 13690  1DDE                     	__end_of_isButtonMode:
 13691 ;; =============== function _isButtonMode ends ============
 13692                           
 13693                           	signat	_isButtonMode,89
 13694                           	global	_ServoOn
 13695                           psect	text1447,local,class=CODE,delta=2
 13696                           global __ptext1447
 13697  1DBC                     __ptext1447:
 13698                           
 13699 ;; *************** function _ServoOn *****************
 13700 ;; Defined at:
 13701 ;;		line 605 in file "main.c"
 13702 ;; Parameters:    Size  Location     Type
 13703 ;;		None
 13704 ;; Auto vars:     Size  Location     Type
 13705 ;;		None
 13706 ;; Return value:  Size  Location     Type
 13707 ;;                  1    wreg      unsigned char 
 13708 ;; Registers used:
 13709 ;;		wreg
 13710 ;; Tracked objects:
 13711 ;;		On entry : 0/0
 13712 ;;		On exit  : 0/0
 13713 ;;		Unchanged: 0/0
 13714 ;; Data sizes:     COMMON   BANK0   BANK1   BANK3   BANK2
 13715 ;;      Params:         0       0       0       0       0
 13716 ;;      Locals:         0       0       0       0       0
 13717 ;;      Temps:          0       0       0       0       0
 13718 ;;      Totals:         0       0       0       0       0
 13719 ;;Total ram usage:        0 bytes
 13720 ;; Hardware stack levels used:    1
 13721 ;; Hardware stack levels required when called:    1
 13722 ;; This function calls:
 13723 ;;		Nothing
 13724 ;; This function is called by:
 13725 ;;		_main
 13726 ;; This function uses a non-reentrant model
 13727 ;;
 13728                           psect	text1447
 13729                           	file	"main.c"
 13730                           	line	605
 13731                           	global	__size_of_ServoOn
 13732  0011                     	__size_of_ServoOn	equ	__end_of_ServoOn-_ServoOn
 13733                           	
 13734  1DBC                     _ServoOn:	
 13735                           	opt	stack 6
 13736                           ; Regs used in _ServoOn: [wreg]
 13737                           	line	606
 13738                           	
 13739  1DBC                     l12252:	
 13740                           ;main.c: 606: if (key_code[13] == 1)
 13741  1DBC  3001               	movlw	01h
 13742  1DBD  1683               	bsf	status, 5	;RP0=1, select bank1
 13743  1DBE  1303               	bcf	status, 6	;RP1=0, select bank1
 13744  1DBF  063A               	xorwf	0+(_key_code)^080h+01Ah,w
 13745  1DC0  043B               	iorwf	1+(_key_code)^080h+01Ah,w
 13746  1DC1  1D03               	skipz
 13747  1DC2  2DC4               	goto	u7751
 13748  1DC3  2DC5               	goto	u7750
 13749  1DC4                     u7751:
 13750  1DC4  2DC9               	goto	l12260
 13751  1DC5                     u7750:
 13752                           	line	607
 13753                           	
 13754  1DC5                     l12254:	
 13755                           ;main.c: 607: return 1;
 13756  1DC5  3001               	movlw	(01h)
 13757  1DC6  2DCC               	goto	l1328
 13758                           	
 13759  1DC7                     l12256:	
 13760  1DC7  2DCC               	goto	l1328
 13761                           	
 13762  1DC8                     l12258:	
 13763  1DC8  2DCC               	goto	l1328
 13764                           	line	608
 13765                           	
 13766  1DC9                     l1327:	
 13767                           	line	609
 13768                           	
 13769  1DC9                     l12260:	
 13770                           ;main.c: 608: else
 13771                           ;main.c: 609: return 0;
 13772  1DC9  3000               	movlw	(0)
 13773  1DCA  2DCC               	goto	l1328
 13774                           	
 13775  1DCB                     l12262:	
 13776  1DCB  2DCC               	goto	l1328
 13777                           	
 13778  1DCC                     l1329:	
 13779                           	line	610
 13780                           	
 13781  1DCC                     l1328:	
 13782  1DCC  0008               	return
 13783                           	opt stack 0
 13784                           GLOBAL	__end_of_ServoOn
 13785  1DCD                     	__end_of_ServoOn:
 13786 ;; =============== function _ServoOn ends ============
 13787                           
 13788                           	signat	_ServoOn,89
 13789                           	global	_scan_key_matrix
 13790                           psect	text1448,local,class=CODE,delta=2
 13791                           global __ptext1448
 13792  157E                     __ptext1448:
 13793                           
 13794 ;; *************** function _scan_key_matrix *****************
 13795 ;; Defined at:
 13796 ;;		line 18 in file "button.c"
 13797 ;; Parameters:    Size  Location     Type
 13798 ;;		None
 13799 ;; Auto vars:     Size  Location     Type
 13800 ;;  j               2   10[BANK0 ] int 
 13801 ;;  i               2    8[BANK0 ] int 
 13802 ;; Return value:  Size  Location     Type
 13803 ;;		None               void
 13804 ;; Registers used:
 13805 ;;		wreg, fsr0l, fsr0h, status,2, status,0, btemp+1
 13806 ;; Tracked objects:
 13807 ;;		On entry : 0/0
 13808 ;;		On exit  : 0/0
 13809 ;;		Unchanged: 0/0
 13810 ;; Data sizes:     COMMON   BANK0   BANK1   BANK3   BANK2
 13811 ;;      Params:         0       0       0       0       0
 13812 ;;      Locals:         0       4       0       0       0
 13813 ;;      Temps:          0       8       0       0       0
 13814 ;;      Totals:         0      12       0       0       0
 13815 ;;Total ram usage:       12 bytes
 13816 ;; Hardware stack levels used:    1
 13817 ;; Hardware stack levels required when called:    1
 13818 ;; This function calls:
 13819 ;;		Nothing
 13820 ;; This function is called by:
 13821 ;;		_main
 13822 ;; This function uses a non-reentrant model
 13823 ;;
 13824                           psect	text1448
 13825                           	file	"button.c"
 13826                           	line	18
 13827                           	global	__size_of_scan_key_matrix
 13828  00A6                     	__size_of_scan_key_matrix	equ	__end_of_scan_key_matrix-_scan_key_matrix
 13829                           	
 13830  157E                     _scan_key_matrix:	
 13831                           	opt	stack 6
 13832                           ; Regs used in _scan_key_matrix: [wreg-fsr0h+status,2+status,0+btemp+1]
 13833                           	line	20
 13834                           	
 13835  157E                     l12224:	
 13836                           ;button.c: 19: int i,j;
 13837                           ;button.c: 20: for(i=0;i<4;i++)
 13838  157E  1283               	bcf	status, 5	;RP0=0, select bank0
 13839  157F  1303               	bcf	status, 6	;RP1=0, select bank0
 13840  1580  01A8               	clrf	(scan_key_matrix@i)
 13841  1581  01A9               	clrf	(scan_key_matrix@i+1)
 13842                           	
 13843  1582                     l12226:	
 13844  1582  0829               	movf	(scan_key_matrix@i+1),w
 13845  1583  3A80               	xorlw	80h
 13846  1584  00FF               	movwf	btemp+1
 13847  1585  3080               	movlw	(high(04h))^80h
 13848  1586  027F               	subwf	btemp+1,w
 13849  1587  1D03               	skipz
 13850  1588  2D8B               	goto	u7675
 13851  1589  3004               	movlw	low(04h)
 13852  158A  0228               	subwf	(scan_key_matrix@i),w
 13853  158B                     u7675:
 13854                           
 13855  158B  1C03               	skipc
 13856  158C  2D8E               	goto	u7671
 13857  158D  2D8F               	goto	u7670
 13858  158E                     u7671:
 13859  158E  2D91               	goto	l12230
 13860  158F                     u7670:
 13861  158F  2E23               	goto	l3759
 13862                           	
 13863  1590                     l12228:	
 13864  1590  2E23               	goto	l3759
 13865                           	line	21
 13866                           	
 13867  1591                     l3753:	
 13868                           	line	22
 13869                           	
 13870  1591                     l12230:	
 13871                           ;button.c: 21: {
 13872                           ;button.c: 22: PORTD = ~arrayMaskOutputOfKey[i];
 13873  1591  1283               	bcf	status, 5	;RP0=0, select bank0
 13874  1592  1303               	bcf	status, 6	;RP1=0, select bank0
 13875  1593  0828               	movf	(scan_key_matrix@i),w
 13876  1594  3EDD               	addlw	_arrayMaskOutputOfKey&0ffh
 13877  1595  0084               	movwf	fsr0
 13878  1596  1383               	bcf	status, 7	;select IRP bank1
 13879  1597  0900               	comf	indf,w
 13880  1598  0088               	movwf	(8)	;volatile
 13881                           	line	23
 13882                           	
 13883  1599                     l12232:	
 13884                           ;button.c: 23: for(j=0;j<4;j++)
 13885  1599  01AA               	clrf	(scan_key_matrix@j)
 13886  159A  01AB               	clrf	(scan_key_matrix@j+1)
 13887                           	
 13888  159B                     l12234:	
 13889  159B  082B               	movf	(scan_key_matrix@j+1),w
 13890  159C  3A80               	xorlw	80h
 13891  159D  00FF               	movwf	btemp+1
 13892  159E  3080               	movlw	(high(04h))^80h
 13893  159F  027F               	subwf	btemp+1,w
 13894  15A0  1D03               	skipz
 13895  15A1  2DA4               	goto	u7685
 13896  15A2  3004               	movlw	low(04h)
 13897  15A3  022A               	subwf	(scan_key_matrix@j),w
 13898  15A4                     u7685:
 13899                           
 13900  15A4  1C03               	skipc
 13901  15A5  2DA7               	goto	u7681
 13902  15A6  2DA8               	goto	u7680
 13903  15A7                     u7681:
 13904  15A7  2DAA               	goto	l12238
 13905  15A8                     u7680:
 13906  15A8  2E0D               	goto	l12248
 13907                           	
 13908  15A9                     l12236:	
 13909  15A9  2E0D               	goto	l12248
 13910                           	line	24
 13911                           	
 13912  15AA                     l3755:	
 13913                           	line	25
 13914                           	
 13915  15AA                     l12238:	
 13916                           ;button.c: 24: {
 13917                           ;button.c: 25: if((PORTD & arrayMaskInputOfKey[j]) == 0)
 13918  15AA  1283               	bcf	status, 5	;RP0=0, select bank0
 13919  15AB  1303               	bcf	status, 6	;RP1=0, select bank0
 13920  15AC  082A               	movf	(scan_key_matrix@j),w
 13921  15AD  3ED9               	addlw	_arrayMaskInputOfKey&0ffh
 13922  15AE  0084               	movwf	fsr0
 13923  15AF  1383               	bcf	status, 7	;select IRP bank1
 13924  15B0  0800               	movf	indf,w
 13925  15B1  0508               	andwf	(8),w	;volatile
 13926  15B2  1D03               	btfss	status,2
 13927  15B3  2DB5               	goto	u7691
 13928  15B4  2DB6               	goto	u7690
 13929  15B5                     u7691:
 13930  15B5  2DE5               	goto	l12242
 13931  15B6                     u7690:
 13932                           	line	26
 13933                           	
 13934  15B6                     l12240:	
 13935                           ;button.c: 26: key_code[i*4+j] = key_code[i*4+j] + 1;
 13936  15B6  0828               	movf	(scan_key_matrix@i),w
 13937  15B7  00A0               	movwf	(??_scan_key_matrix+0)+0
 13938  15B8  3002               	movlw	02h
 13939  15B9                     u7705:
 13940  15B9  1003               	clrc
 13941  15BA  0DA0               	rlf	(??_scan_key_matrix+0)+0,f
 13942  15BB  3EFF               	addlw	-1
 13943  15BC  1D03               	skipz
 13944  15BD  2DB9               	goto	u7705
 13945  15BE  082A               	movf	(scan_key_matrix@j),w
 13946  15BF  0720               	addwf	0+(??_scan_key_matrix+0)+0,w
 13947  15C0  00A1               	movwf	(??_scan_key_matrix+1)+0
 13948  15C1  0721               	addwf	(??_scan_key_matrix+1)+0,w
 13949  15C2  3EA0               	addlw	_key_code&0ffh
 13950  15C3  0084               	movwf	fsr0
 13951  15C4  0800               	movf	indf,w
 13952  15C5  00A2               	movwf	(??_scan_key_matrix+2)+0+0
 13953  15C6  0A84               	incf	fsr0,f
 13954  15C7  0800               	movf	indf,w
 13955  15C8  00A3               	movwf	(??_scan_key_matrix+2)+0+1
 13956  15C9  0822               	movf	0+(??_scan_key_matrix+2)+0,w
 13957  15CA  3E01               	addlw	low(01h)
 13958  15CB  00A4               	movwf	(??_scan_key_matrix+4)+0
 13959  15CC  0823               	movf	1+(??_scan_key_matrix+2)+0,w
 13960  15CD  1803               	skipnc
 13961  15CE  3E01               	addlw	1
 13962  15CF  3E00               	addlw	high(01h)
 13963  15D0  00A5               	movwf	1+(??_scan_key_matrix+4)+0
 13964  15D1  0828               	movf	(scan_key_matrix@i),w
 13965  15D2  00A6               	movwf	(??_scan_key_matrix+6)+0
 13966  15D3  3002               	movlw	02h
 13967  15D4                     u7715:
 13968  15D4  1003               	clrc
 13969  15D5  0DA6               	rlf	(??_scan_key_matrix+6)+0,f
 13970  15D6  3EFF               	addlw	-1
 13971  15D7  1D03               	skipz
 13972  15D8  2DD4               	goto	u7715
 13973  15D9  082A               	movf	(scan_key_matrix@j),w
 13974  15DA  0726               	addwf	0+(??_scan_key_matrix+6)+0,w
 13975  15DB  00A7               	movwf	(??_scan_key_matrix+7)+0
 13976  15DC  0727               	addwf	(??_scan_key_matrix+7)+0,w
 13977  15DD  3EA0               	addlw	_key_code&0ffh
 13978  15DE  0084               	movwf	fsr0
 13979  15DF  0824               	movf	0+(??_scan_key_matrix+4)+0,w
 13980  15E0  0080               	movwf	indf
 13981  15E1  0A84               	incf	fsr0,f
 13982  15E2  0825               	movf	1+(??_scan_key_matrix+4)+0,w
 13983  15E3  0080               	movwf	indf
 13984  15E4  2DF9               	goto	l12244
 13985                           	line	27
 13986                           	
 13987  15E5                     l3757:	
 13988                           	line	28
 13989                           	
 13990  15E5                     l12242:	
 13991                           ;button.c: 27: else
 13992                           ;button.c: 28: key_code[i*4+j] = 0;
 13993  15E5  0828               	movf	(scan_key_matrix@i),w
 13994  15E6  00A0               	movwf	(??_scan_key_matrix+0)+0
 13995  15E7  3002               	movlw	02h
 13996  15E8                     u7725:
 13997  15E8  1003               	clrc
 13998  15E9  0DA0               	rlf	(??_scan_key_matrix+0)+0,f
 13999  15EA  3EFF               	addlw	-1
 14000  15EB  1D03               	skipz
 14001  15EC  2DE8               	goto	u7725
 14002  15ED  082A               	movf	(scan_key_matrix@j),w
 14003  15EE  0720               	addwf	0+(??_scan_key_matrix+0)+0,w
 14004  15EF  00A1               	movwf	(??_scan_key_matrix+1)+0
 14005  15F0  0721               	addwf	(??_scan_key_matrix+1)+0,w
 14006  15F1  3EA0               	addlw	_key_code&0ffh
 14007  15F2  0084               	movwf	fsr0
 14008  15F3  3000               	movlw	low(0)
 14009  15F4  0080               	movwf	indf
 14010  15F5  0A84               	incf	fsr0,f
 14011  15F6  3000               	movlw	high(0)
 14012  15F7  0080               	movwf	indf
 14013  15F8  2DF9               	goto	l12244
 14014                           	
 14015  15F9                     l3758:	
 14016                           	line	23
 14017                           	
 14018  15F9                     l12244:	
 14019  15F9  3001               	movlw	low(01h)
 14020  15FA  07AA               	addwf	(scan_key_matrix@j),f
 14021  15FB  1803               	skipnc
 14022  15FC  0AAB               	incf	(scan_key_matrix@j+1),f
 14023  15FD  3000               	movlw	high(01h)
 14024  15FE  07AB               	addwf	(scan_key_matrix@j+1),f
 14025                           	
 14026  15FF                     l12246:	
 14027  15FF  082B               	movf	(scan_key_matrix@j+1),w
 14028  1600  3A80               	xorlw	80h
 14029  1601  00FF               	movwf	btemp+1
 14030  1602  3080               	movlw	(high(04h))^80h
 14031  1603  027F               	subwf	btemp+1,w
 14032  1604  1D03               	skipz
 14033  1605  2E08               	goto	u7735
 14034  1606  3004               	movlw	low(04h)
 14035  1607  022A               	subwf	(scan_key_matrix@j),w
 14036  1608                     u7735:
 14037                           
 14038  1608  1C03               	skipc
 14039  1609  2E0B               	goto	u7731
 14040  160A  2E0C               	goto	u7730
 14041  160B                     u7731:
 14042  160B  2DAA               	goto	l12238
 14043  160C                     u7730:
 14044  160C  2E0D               	goto	l12248
 14045                           	
 14046  160D                     l3756:	
 14047                           	line	20
 14048                           	
 14049  160D                     l12248:	
 14050  160D  3001               	movlw	low(01h)
 14051  160E  1283               	bcf	status, 5	;RP0=0, select bank0
 14052  160F  1303               	bcf	status, 6	;RP1=0, select bank0
 14053  1610  07A8               	addwf	(scan_key_matrix@i),f
 14054  1611  1803               	skipnc
 14055  1612  0AA9               	incf	(scan_key_matrix@i+1),f
 14056  1613  3000               	movlw	high(01h)
 14057  1614  07A9               	addwf	(scan_key_matrix@i+1),f
 14058                           	
 14059  1615                     l12250:	
 14060  1615  0829               	movf	(scan_key_matrix@i+1),w
 14061  1616  3A80               	xorlw	80h
 14062  1617  00FF               	movwf	btemp+1
 14063  1618  3080               	movlw	(high(04h))^80h
 14064  1619  027F               	subwf	btemp+1,w
 14065  161A  1D03               	skipz
 14066  161B  2E1E               	goto	u7745
 14067  161C  3004               	movlw	low(04h)
 14068  161D  0228               	subwf	(scan_key_matrix@i),w
 14069  161E                     u7745:
 14070                           
 14071  161E  1C03               	skipc
 14072  161F  2E21               	goto	u7741
 14073  1620  2E22               	goto	u7740
 14074  1621                     u7741:
 14075  1621  2D91               	goto	l12230
 14076  1622                     u7740:
 14077  1622  2E23               	goto	l3759
 14078                           	
 14079  1623                     l3754:	
 14080                           	line	31
 14081                           	
 14082  1623                     l3759:	
 14083  1623  0008               	return
 14084                           	opt stack 0
 14085                           GLOBAL	__end_of_scan_key_matrix
 14086  1624                     	__end_of_scan_key_matrix:
 14087 ;; =============== function _scan_key_matrix ends ============
 14088                           
 14089                           	signat	_scan_key_matrix,88
 14090                           	global	_system1
 14091                           psect	text1449,local,class=CODE,delta=2
 14092                           global __ptext1449
 14093  1E5E                     __ptext1449:
 14094                           
 14095 ;; *************** function _system1 *****************
 14096 ;; Defined at:
 14097 ;;		line 492 in file "main.c"
 14098 ;; Parameters:    Size  Location     Type
 14099 ;;		None
 14100 ;; Auto vars:     Size  Location     Type
 14101 ;;		None
 14102 ;; Return value:  Size  Location     Type
 14103 ;;		None               void
 14104 ;; Registers used:
 14105 ;;		wreg, status,2
 14106 ;; Tracked objects:
 14107 ;;		On entry : 0/0
 14108 ;;		On exit  : 0/0
 14109 ;;		Unchanged: 0/0
 14110 ;; Data sizes:     COMMON   BANK0   BANK1   BANK3   BANK2
 14111 ;;      Params:         0       0       0       0       0
 14112 ;;      Locals:         0       0       0       0       0
 14113 ;;      Temps:          0       0       0       0       0
 14114 ;;      Totals:         0       0       0       0       0
 14115 ;;Total ram usage:        0 bytes
 14116 ;; Hardware stack levels used:    1
 14117 ;; Hardware stack levels required when called:    1
 14118 ;; This function calls:
 14119 ;;		Nothing
 14120 ;; This function is called by:
 14121 ;;		_main
 14122 ;; This function uses a non-reentrant model
 14123 ;;
 14124                           psect	text1449
 14125                           	file	"main.c"
 14126                           	line	492
 14127                           	global	__size_of_system1
 14128  001B                     	__size_of_system1	equ	__end_of_system1-_system1
 14129                           	
 14130  1E5E                     _system1:	
 14131                           	opt	stack 6
 14132                           ; Regs used in _system1: [wreg+status,2]
 14133                           	line	493
 14134                           	
 14135  1E5E                     l12210:	
 14136                           ;main.c: 493: TRISD = 0x0f;
 14137  1E5E  300F               	movlw	(0Fh)
 14138  1E5F  1683               	bsf	status, 5	;RP0=1, select bank1
 14139  1E60  1303               	bcf	status, 6	;RP1=0, select bank1
 14140  1E61  0088               	movwf	(136)^080h	;volatile
 14141                           	line	494
 14142                           ;main.c: 494: PORTD = 0xff;
 14143  1E62  30FF               	movlw	(0FFh)
 14144  1E63  1283               	bcf	status, 5	;RP0=0, select bank0
 14145  1E64  1303               	bcf	status, 6	;RP1=0, select bank0
 14146  1E65  0088               	movwf	(8)	;volatile
 14147                           	line	495
 14148                           	
 14149  1E66                     l12212:	
 14150                           ;main.c: 495: TRISC = 0x00;
 14151  1E66  1683               	bsf	status, 5	;RP0=1, select bank1
 14152  1E67  1303               	bcf	status, 6	;RP1=0, select bank1
 14153  1E68  0187               	clrf	(135)^080h	;volatile
 14154                           	line	496
 14155                           	
 14156  1E69                     l12214:	
 14157                           ;main.c: 496: PORTC = 0x00;
 14158  1E69  1283               	bcf	status, 5	;RP0=0, select bank0
 14159  1E6A  1303               	bcf	status, 6	;RP1=0, select bank0
 14160  1E6B  0187               	clrf	(7)	;volatile
 14161                           	line	497
 14162                           	
 14163  1E6C                     l12216:	
 14164                           ;main.c: 497: TRISE1 = 0;
 14165  1E6C  1683               	bsf	status, 5	;RP0=1, select bank1
 14166  1E6D  1303               	bcf	status, 6	;RP1=0, select bank1
 14167  1E6E  1089               	bcf	(1097/8)^080h,(1097)&7
 14168                           	line	498
 14169                           	
 14170  1E6F                     l12218:	
 14171                           ;main.c: 498: TRISE2 = 0;
 14172  1E6F  1109               	bcf	(1098/8)^080h,(1098)&7
 14173                           	line	499
 14174                           ;main.c: 499: TRISB = 0b11100001;
 14175  1E70  30E1               	movlw	(0E1h)
 14176  1E71  0086               	movwf	(134)^080h	;volatile
 14177                           	line	500
 14178                           ;main.c: 500: PORTB = 0b11100001;
 14179  1E72  30E1               	movlw	(0E1h)
 14180  1E73  1283               	bcf	status, 5	;RP0=0, select bank0
 14181  1E74  1303               	bcf	status, 6	;RP1=0, select bank0
 14182  1E75  0086               	movwf	(6)	;volatile
 14183                           	line	501
 14184                           	
 14185  1E76                     l12220:	
 14186                           ;main.c: 501: RE1 = 0;
 14187  1E76  1089               	bcf	(73/8),(73)&7
 14188                           	line	502
 14189                           	
 14190  1E77                     l12222:	
 14191                           ;main.c: 502: RE2 = 0;
 14192  1E77  1109               	bcf	(74/8),(74)&7
 14193                           	line	503
 14194                           	
 14195  1E78                     l1237:	
 14196  1E78  0008               	return
 14197                           	opt stack 0
 14198                           GLOBAL	__end_of_system1
 14199  1E79                     	__end_of_system1:
 14200 ;; =============== function _system1 ends ============
 14201                           
 14202                           	signat	_system1,88
 14203                           	global	_isr
 14204                           psect	text1450,local,class=CODE,delta=2
 14205                           global __ptext1450
 14206  1F87                     __ptext1450:
 14207                           
 14208 ;; *************** function _isr *****************
 14209 ;; Defined at:
 14210 ;;		line 4 in file "interrup.c"
 14211 ;; Parameters:    Size  Location     Type
 14212 ;;		None
 14213 ;; Auto vars:     Size  Location     Type
 14214 ;;		None
 14215 ;; Return value:  Size  Location     Type
 14216 ;;		None               void
 14217 ;; Registers used:
 14218 ;;		status,2, status,0
 14219 ;; Tracked objects:
 14220 ;;		On entry : 0/0
 14221 ;;		On exit  : 0/0
 14222 ;;		Unchanged: 0/0
 14223 ;; Data sizes:     COMMON   BANK0   BANK1   BANK3   BANK2
 14224 ;;      Params:         0       0       0       0       0
 14225 ;;      Locals:         0       0       0       0       0
 14226 ;;      Temps:          4       0       0       0       0
 14227 ;;      Totals:         4       0       0       0       0
 14228 ;;Total ram usage:        4 bytes
 14229 ;; Hardware stack levels used:    1
 14230 ;; This function calls:
 14231 ;;		Nothing
 14232 ;; This function is called by:
 14233 ;;		Interrupt level 1
 14234 ;; This function uses a non-reentrant model
 14235 ;;
 14236                           psect	text1450
 14237                           	file	"interrup.c"
 14238                           	line	4
 14239                           	global	__size_of_isr
 14240  0023                     	__size_of_isr	equ	__end_of_isr-_isr
 14241                           	
 14242  1F87                     _isr:	
 14243                           	opt	stack 1
 14244                           ; Regs used in _isr: [status]
 14245                           psect	intentry,class=CODE,delta=2
 14246                           global __pintentry
 14247  0004                     __pintentry:
 14248                           global interrupt_function
 14249  0004                     interrupt_function:
 14250                           	global saved_w
 14251  007E                     	saved_w	set	btemp+0
 14252  0004  00FE               	movwf	saved_w
 14253  0005  0E03               	swapf	status,w
 14254  0006  00F0               	movwf	(??_isr+0)
 14255  0007  0804               	movf	fsr0,w
 14256  0008  00F1               	movwf	(??_isr+1)
 14257  0009  080A               	movf	pclath,w
 14258  000A  00F2               	movwf	(??_isr+2)
 14259  000B  1283               	bcf	status, 5	;RP0=0, select bank0
 14260  000C  1303               	bcf	status, 6	;RP1=0, select bank0
 14261  000D  087F               	movf	btemp+1,w
 14262  000E  00F3               	movwf	(??_isr+3)
 14263  000F  160A  158A  2F87   	ljmp	_isr
 14264                           psect	text1450
 14265                           	line	5
 14266                           	
 14267  1F87                     i1l10958:	
 14268                           ;interrup.c: 5: if(INTE && INTF)
 14269  1F87  1E0B               	btfss	(92/8),(92)&7
 14270  1F88  2F8A               	goto	u581_21
 14271  1F89  2F8B               	goto	u581_20
 14272  1F8A                     u581_21:
 14273  1F8A  2F9E               	goto	i1l5943
 14274  1F8B                     u581_20:
 14275                           	
 14276  1F8B                     i1l10960:	
 14277  1F8B  1C8B               	btfss	(89/8),(89)&7
 14278  1F8C  2F8E               	goto	u582_21
 14279  1F8D  2F8F               	goto	u582_20
 14280  1F8E                     u582_21:
 14281  1F8E  2F9E               	goto	i1l5943
 14282  1F8F                     u582_20:
 14283                           	line	7
 14284                           	
 14285  1F8F                     i1l10962:	
 14286                           ;interrup.c: 6: {
 14287                           ;interrup.c: 7: INTF = 0;
 14288  1F8F  108B               	bcf	(89/8),(89)&7
 14289                           	line	8
 14290                           	
 14291  1F90                     i1l10964:	
 14292                           ;interrup.c: 8: STOP = 1;
 14293  1F90  01DC               	clrf	(_STOP)	;volatile
 14294  1F91  1403               	bsf	status,0
 14295  1F92  0DDC               	rlf	(_STOP),f	;volatile
 14296                           	line	9
 14297                           	
 14298  1F93                     i1l10966:	
 14299                           ;interrup.c: 9: dk1 = 0;
 14300  1F93  1683               	bsf	status, 5	;RP0=1, select bank1
 14301  1F94  1303               	bcf	status, 6	;RP1=0, select bank1
 14302  1F95  01D3               	clrf	(_dk1)^080h
 14303                           	line	10
 14304                           	
 14305  1F96                     i1l10968:	
 14306                           ;interrup.c: 10: dk2 = 0;
 14307  1F96  01D4               	clrf	(_dk2)^080h
 14308                           	line	11
 14309                           	
 14310  1F97                     i1l10970:	
 14311                           ;interrup.c: 11: cb = 0;
 14312  1F97  01CD               	clrf	(_cb)^080h
 14313                           	line	12
 14314                           	
 14315  1F98                     i1l10972:	
 14316                           ;interrup.c: 12: biennho1 = 0;
 14317  1F98  01C6               	clrf	(_biennho1)^080h	;volatile
 14318  1F99  01C7               	clrf	(_biennho1+1)^080h	;volatile
 14319                           	line	13
 14320                           	
 14321  1F9A                     i1l10974:	
 14322                           ;interrup.c: 13: biennho2 = 0;
 14323  1F9A  01F8               	clrf	(_biennho2)	;volatile
 14324  1F9B  01F9               	clrf	(_biennho2+1)	;volatile
 14325                           	line	14
 14326                           	
 14327  1F9C                     i1l10976:	
 14328                           ;interrup.c: 14: demdao = 0;
 14329  1F9C  01D1               	clrf	(_demdao)^080h	;volatile
 14330  1F9D  2F9E               	goto	i1l5943
 14331                           	line	15
 14332                           	
 14333  1F9E                     i1l5942:	
 14334                           	line	16
 14335                           	
 14336  1F9E                     i1l5943:	
 14337  1F9E  0873               	movf	(??_isr+3),w
 14338  1F9F  1283               	bcf	status, 5	;RP0=0, select bank0
 14339  1FA0  00FF               	movwf	btemp+1
 14340  1FA1  0872               	movf	(??_isr+2),w
 14341  1FA2  008A               	movwf	pclath
 14342  1FA3  0871               	movf	(??_isr+1),w
 14343  1FA4  0084               	movwf	fsr0
 14344  1FA5  0E70               	swapf	(??_isr+0)^0FFFFFF80h,w
 14345  1FA6  0083               	movwf	status
 14346  1FA7  0EFE               	swapf	saved_w,f
 14347  1FA8  0E7E               	swapf	saved_w,w
 14348  1FA9  0009               	retfie
 14349                           	opt stack 0
 14350                           GLOBAL	__end_of_isr
 14351  1FAA                     	__end_of_isr:
 14352 ;; =============== function _isr ends ============
 14353                           
 14354                           	signat	_isr,88
 14355                           psect	text1451,local,class=CODE,delta=2
 14356                           global __ptext1451
 14357  0000                     __ptext1451:
 14358                           	global	btemp
 14359  007E                     	btemp set 07Eh
 14360                           
 14361                           	DABS	1,126,2	;btemp
 14362                           	global	wtemp0
 14363  007E                     	wtemp0 set btemp
 14364  07CC  120A  158A  2A99   


HI-TECH Software PICC Macro Assembler V9.83 build 10920 
Symbol Table                                                                                   Sat Jul 21 10:14:24 2018

                       pc 0002                        _RD 0C60                        _WR 0C61  
                      _Ra 1EE5              ___awdiv@sign 0025                        _cb 00CD  
                      fsr 0004       ___wmul@multiplicand 0022             ?_lcd_put_byte 0074  
                     ?_Ra 0070                       _GIE 005F                       _RA0 0028  
                     _RA1 0029                       _RA2 002A                       _RB1 0031  
                     _RA3 002B                       _RA4 002C                       _RC1 0039  
                     _RB3 0033                       _RA5 002D                       _RC2 003A  
                     _RC3 003B                       _RE0 0048                       _RC4 003C  
                     _RB6 0036                       _RE1 0049                       _RC5 003D  
                     _RB7 0037                       _RE2 004A                       _RC6 003E  
                     _RC7 003F                       _PS0 0408                       _PS1 0409  
                     _PS2 040A                       _PSA 040B          scan_key_matrix@i 0028  
        scan_key_matrix@j 002A                       _Len 1E94                       _cb1 00CE  
                     _cb2 00CF                       _Vao 1ECA                       _dk1 00D3  
                     _dk2 00D4                       _dk3 00D5                       _isr 1F87  
                     fsr0 0004                       indf 0000                      ??_Ra 0074  
             main@po_1980 01A2                      ?_Len 0070                      ?_Vao 0070  
                    l1200 0303                      l1201 0302                      l1210 04AB  
                    l1202 0328                      l1211 051E                      l1203 0329  
                    l1220 06E3                      l1212 060A                      l1204 03A2  
                    l1301 1EFC                      l1221 06DC                      l1213 062A  
                    l1205 03DB                      l1310 1EA7                      l1230 0785  
                    l1222 06E2                      l1214 062B                      l1206 041F  
                    l1311 1EAE                      l1303 1EF8                      l1231 07A9  
                    l1223 07A8                      l1215 0676                      l1207 041E  
                    l1312 1EAE                      l1304 1EFF                      l1240 1FC7  
                    l1400 0DEA                      l1232 07C8                      l1224 070D  
                    l1216 068F                      l1208 0444                      l1160 0B87  
                    l1305 1EFF                      l1241 1FB0                      l1401 0DF3  
                    l1233 07C9                      l1225 074E                      l1217 0690  
                    l1209 0445                      l1161 0B82                      l1322 1DDA  
                    l1242 1FD3                      l1410 0E44                      l1402 0E0E  
                    l1234 07C9                      l1226 0739                      l1218 06AE  
                    l1170 09A6                      l1162 0B85                      l1323 1DDD  
                    l1315 1EC6                      l1243 1FD3                      l1411 0E5F  
                    l1403 0DF8                      l1227 0731                      l1219 06B7  
                    l1171 099A                      l1163 0B9A                      l1324 1DDD  
                    l1308 1EAB                      l1252 1F68                      l1332 1DFC  
                    l1420 0EB6                      l1412 0E76                      l1404 0E07  
                    l1228 071C                      l1180 0A47                      l1172 0978  
                    l1164 0BBB                      l1237 1E78                      l1317 1EC2  
                    l1261 1F49                      l1333 1DFF                      l1421 0ED1  
                    l1413 0E80                      l1405 0E2F                      l1229 0737  
                    l1181 0A2B                      l1173 0992                      l1165 0BC9  
                    l1157 0A91                      l1318 1EC9                      l1270 1F35  
                    l1262 1F50                      l1254 1F64                      l1246 1122  
                    l1350 14A8                      l1342 144D                      l1334 1DFF  
                    l1430 0F4B                      l1422 0EFD                      l1414 0E98  
                    l1406 0E67                      l1158 07AB                      l1190 0102  
                    l1182 0A46                      l1174 09A5                      l1166 0908  
                    l1327 1DC9                      l1319 1EC9                      l1263 1F50  
                    l1255 1F6B                      l1247 114F                      l1351 14B5  
                    l1343 14DC                      l1431 0F36                      l1423 0EE8  
                    l1415 0E83                      l1407 0E35                      l1191 0103  
                    l1183 0049                      l1175 0A0B                      l1167 091B  
                    l1159 0A99                      l1328 1DCC                      l1256 1F6B  
                    l1248 1143                      l1352 14C2                      l1344 145A  
                    l1280 1F83                      l1360 1526                      l1440 0FCF  
                    l1432 0F51                      l1424 0EF7                      l1416 0E92  
                    l1408 0E61                      l1192 017B                      l1184 002D  
                    l1176 09FF                      l1168 092E                      l1329 1DCC  
                    l1337 1DEB                      l1273 1F17                      l1249 1151  
                    l1353 14CF                      l1345 1467                      l1361 157C  
                    l1441 0FF8                      l1433 0F68                      l1425 0F0C  
                    l1417 0EA7                      l1409 0E59                      l1193 01AC  
                    l1185 0048                      l1177 09DD                      l1169 0941  
                    l1338 1DEE                      l1290 1E93                      l1266 1F32  
                    l1354 14DC                      l1346 1474                      l1282 1F7F  
                    l1450 1E44                      l1362 1579                      l1442 0FE3  
                    l1434 0F85                      l1426 0F71                      l1418 0ED3  
                    l1370 0BF6                      l1186 07C7                      l1194 01EF  
                    l1178 09F7                      l1339 1DEE                      l1291 1E93  
                    l1275 1F13                      l1259 1F4D                      l1347 1481  
                    l1283 1F86                      l1363 157B                      l1443 0FFF  
                    l1435 0FC5                      l1427 0F59                      l1419 0ECB  
                    l1371 0C11                      l1195 01EE                      l1187 004A  
                    l1179 0A0A                      l1276 1F1A                      l1268 1F2E  
                    l1348 148E                      l1284 1F86                      l1460 12EF  
                    l1444 0FFF                      l1436 0FB1                      l1428 0F27  
                    l1380 0C7C                      l1372 0C27                      l1196 0212  
                    l1188 00B0                      l1277 1F1A                      l1269 1F35  
                    l1349 149B                      l1357 14F7                      l1453 1E5D  
                    l1461 130A                      l1437 0FA9                      l1429 0F53  
                    l1381 0CE4                      l1373 0C3B                      l1197 0213  
                    l1189 00E0                      l1294 1EE1                      l1358 157D  
                    l1470 12A1                      l1462 132C                      l1438 0F94  
                    l1390 0DDF                      l1382 0C81                      l1374 0C7B  
                    l1366 0C19                      l1198 028C                      l1287 1E90  
                    l1447 1E2B                      l1359 157D                      l1471 12BC  
                    l1463 1342                      l1439 0FAF                      l1391 0D0A  
                    l1383 0CDE                      l1375 0C67                      l1367 0BE7  
                    l1199 02BF                      l1296 1EDD                      l1472 12D3  
                    l1456 1313                      l1392 0D83                      l1384 0CD6  
                    l1376 0C5F                      l1368 0C13                      l1289 1E8C  
                    l1297 1EE4                      l1473 12D3                      l1457 12E0  
                    l1393 0D6D                      l1385 0CC1                      l1377 0C4A  
                    l1369 0C0B                      l1298 1EE4                      l1466 12C4  
                    l1458 130C                      l1394 0D7C                      l1386 0CDC  
                    l1378 0C65                      l1467 1292                      l1459 1304  
                    l1379 0FD6                      l1395 0D9B                      l1387 0CF6  
                    l1476 1214                      l1468 12BE                      l1396 0DD8  
                    l1388 0D00                      l1477 11FE                      l1469 12B6  
                    l1397 0DD0                      l1389 0FE0                      l1478 121F  
                    l1398 0DBB                      l1479 121F                      l1399 0DD6  
                    l7120 13A6                      l7112 1353                      l4800 1764  
                    l3753 1591                      l7121 13B1                      l7113 1361  
                    l4801 1763                      l3754 1623                      l7122 13B8  
                    l7114 13A7                      l4810 17AE                      l4802 176F  
                    l3755 15AA                      l7115 1379                      l4811 17BA  
                    l4803 177D                      l3756 160D                      l7116 136D  
                    l4820 17FF                      l4812 17C5                      l4804 177C  
                    l3757 15E5                      l7117 137E                      l4821 17FF  
                    l4813 17C4                      l4805 1788                      l3758 15F9  
                    l7118 137F                      l4814 17D0                      l4806 1796  
                    l3759 1623                      l7119 1398                      l4831 1636  
                    l4815 17DE                      l4807 1795                      l4832 16DF  
                    l4824 1118                      l4816 17DD                      l4808 17A1  
                    l4840 143F                      l4817 17E9                      l4809 17AF  
                    l4841 13D4                      l4818 17F4                      l4850 1414  
                    l4842 13E2            CuaStart@i_2061 004D                      l4819 17F3  
                    l4835 142F                      l4851 1422                      l4843 13E1  
          CuaStart@i_2062 0053                      l4860 1168                      l4852 1421  
                    l4844 13ED                      l4836 13BD                      l4861 1156  
                    l4853 142D                      l4845 13EE                      l4837 13C8  
          CuaStart@i_2048 0051                      l4862 1176                      l4846 13FA  
                    l4854 143F                      l4838 13C7                      l4863 1158  
                    l4847 1408                      l4839 13D3            CuaStart@i_2058 0047  
                    l4864 115D                      l4848 1407                      l4872 10DC  
                    l4865 1162                      l4849 1413                      l4873 10C9  
                    l4857 1DAB                      l4866 1187                      l4874 10E9  
                    l4867 1186                      l4875 10E9                      l4868 1192  
                    ?_isr 0070                      l4869 1192                      l5970 0825  
                    l5971 0826                      l5964 08E8                      l5980 089F  
                    l5972 083E                      l5981 08E7                      l5973 0827  
                    l5965 0815                      l5982 08FD                      l5974 0858  
                    l5966 0822                      l5975 0863                      l5967 0829  
                    l5983 08FE                      l5976 088B                      l5968 0824  
                    l5969 08FE                      l5977 0880                      l5978 0898  
                    l5979 08DA                      l6972 1FD7                      l6980 122E  
                    l6973 1FE3                      l6981 123F                      l6974 1FF8  
                    l6982 1240                      l6990 119F                      l6975 1FFF  
                    l6983 1259                      l6991 11B0                      l6984 1267  
                    l6992 11B1                      l6985 126F                      l6993 11C2  
                    l6978 1268                      l6994 11D0                      l6979 123A  
                    l6995 11D8                      l6988 11D1                      l6989 11AB  
                    STR_1 1034                      STR_2 1086                      STR_3 10BF  
                    STR_4 1069                      STR_5 10B9                      STR_6 10BF  
                    STR_7 1045                      STR_8 10BF                      STR_9 10A8  
                    _T0IE 005D                      _T0IF 005A                      _T0CS 040D  
                    _IOCB 0096                      _INTE 005C                      _INTF 0059  
                    _RBIE 005B                      u8000 1454                      _RBIF 0058  
                    u8001 1453                      u8010 1461                      u8011 1460  
                    u8100 14D6                      u8020 146E                      u8101 14D5  
                    u8021 146D                      u8030 147B                      u8110 1DF8  
                    u8031 147A                      u8111 1DF7                      u8040 1488  
                    u8120 1F75                      u9000 1663                      u8041 1487  
                    u8121 1F74                      u9001 165F                      u8050 1495  
                    u8130 1F7E                      u8051 1494                      u8131 1F7D  
                    u8060 14A2                      u9100 16BD                      u9020 1674  
                    u8061 14A1                      u9101 16B9                      u9021 1670  
                    u8070 14AF                      u9014 1666                      u8071 14AE  
                    u8080 14BC                      u9120 16CE                      u9040 1683  
                    u9200 17FE                      u8081 14BB                      u9121 16CA  
                    u9041 167F                      u9201 17FD                      u8090 14C9  
                    u9114 16C0                      u9034 1677                      u9210 1191  
                    u8091 14C8                      u9211 1190                      u9060 169F  
                    u9140 176E                      u9220 129F                      u9300 130A  
                    u9061 169B                      u9141 176D                      u9221 129E  
                    u9301 1309                      u9134 16D1                      u9054 1686  
                    u9150 1787                      u9230 12BC                      u9151 1786  
                    u9231 12BB                      u7800 1E9D                      u9080 16AD  
                    u9160 17A0                      u9240 12D2                      u9320 132C  
                    u9400 08E6                      u7705 15B9                      u7801 1E9C  
                    u9081 16A9                      u9161 179F                      u9241 12D1  
                    u9321 132B                      u9401 08E5                      u7730 160C  
                    u7810 1EA6                      u9074 16A2                      u9170 17B9  
                    u9250 13D2                      u9330 10E8                      u9410 08FC  
                    u7731 160B                      u7715 15D4                      u7811 1EA5  
                    u9171 17B8                      u9251 13D1                      u9315 1319  
                    u9331 10E7                      u9411 08FB                      u7740 1622  
                    u7820 1EB8                      u7900 1F24                      u9180 17CF  
                    u9260 13EC                      u9340 081B                      u9500 0CDC  
                    u9420 0BF4                      u7741 1621                      u7725 15E8  
                    u7821 1EB7                      u7901 1F23                      u9181 17CE  
                    u9245 12CE                      u9261 13EB                      u9325 1328  
                    u9341 081A                      u9501 0CDB                      u9421 0BF3  
                    u7670 158F                      u7750 1DC5                      u7830 1EC1  
                    u7910 1F2D                      u8710 123E                      u9094 16B0  
                    u9190 17E8                      u9270 1412                      u9350 084E  
                    u9510 0CF5                      u9430 0C11                      u7735 1608  
                    u7671 158E                      u7751 1DC4                      u7831 1EC0  
                    u7911 1F2C                      u8711 123D                      u9191 17E7  
                    u9271 1411                      u9351 084D                      u9511 0CF4  
                    u9431 0C10                      u7680 15A8                      u7760 1DD6  
                    u7840 1ED3                      u7920 1F3F                      u9280 142C  
                    u9360 0861                      u9600 0E05                      u9520 0CFE  
                    u9440 0C27                      u7745 161E                      u7681 15A7  
                    u7761 1DD5                      u7841 1ED2                      u7921 1F3E  
                    u8705 122F                      u9281 142B                      u9361 0860  
                    u9601 0E04                      u9521 0CFD                      u9441 0C26  
                    u7690 15B6                      u7770 1DE7                      u7850 1EDC  
                    u7930 1F48                      u8650 1FDD                      u8730 1251  
                    u8810 11CF                      u9290 12ED                      u9370 087E  
                    u9530 0D7A                      u9450 0C39                      u7691 15B5  
                    u7675 158B                      u7771 1DE6                      u7851 1EDB  
                    u7931 1F47                      u8651 1FDC                      u8731 1250  
                    u8811 11CE                      u9291 12EC                      u9371 087D  
                    u9531 0D79                      u9515 0CF1                      u9451 0C38  
                    u7780 1E82                      u7860 1EEE                      u7940 1F5A  
                    u8900 13A5                      u8820 134A                      u9380 088A  
                    u9700 0ED1                      u9620 0E2F                      u9460 0C48  
                    u7685 15A4                      u7781 1E81                      u7861 1EED  
                    u7941 1F59                      u8725 1241                      u8805 11C3  
                    u8901 13A4                      u8821 1349                      u9381 0889  
                    u9701 0ED0                      u9621 0E2E                      u9461 0C47  
                    u9445 0C23                      u7790 1E8B                      u7870 1EF7  
                    u7950 1F63                      u8750 1266                      u8910 13AB  
                    u8830 1357                      u9390 0891                      u9710 0EF5  
                    u9630 0E42                      u9550 0D9B                      u9470 0C65  
                    u7791 1E8A                      u7871 1EF6                      u7951 1F62  
                    u8751 1265                      u8735 124D                      u8831 1356  
                    u9391 0890                      u9375 087A                      u9711 0EF4  
                    u9631 0E41                      u9615 0E14                      u9551 0D9A  
                    u9471 0C64                      u9455 0C35                      u7880 1F09  
                    u7960 1120                      u8680 1FF7                      u8760 119B  
                    u8840 1369                      u8920 14E5                      u9800 0FC4  
                    u9720 0F0B                      u9640 0E5F                      u9560 0DB9  
                    u9480 0C7A                      u7881 1F08                      u7961 111F  
                    u8681 1FF6                      u8665 1FE4                      u8745 125A  
                    u8761 119A                      u8841 1368                      u8921 14E4  
                    u9801 0FC3                      u9721 0F0A                      u9641 0E5E  
                    u9625 0E2B                      u9561 0DB8                      u9545 0D88  
                    u9481 0C79                      u7890 1F12                      u7970 1136  
                    u8690 122A                      u8930 14FF                      u9810 0FCD  
                    u9730 0F22                      u9650 0E75                      u9570 0DD6  
                    u9490 0CBF                      u7891 1F11                      u7971 1135  
                    u8675 1FEB                      u8691 1229                      u8931 14FE  
                    u9811 0FCC                      u9731 0F21                      u9651 0E74  
                    u9571 0DD5                      u9555 0D97                      u9491 0CBE  
                    u7980 114E                      u8780 11AF                      u8860 137D  
                    u8940 152E                      u9820 0FE0                      u9740 0F34  
                    u9660 0E7E                      u9580 0DE9                      u9900 0912  
                    u7981 114D                      u8781 11AE                      u8861 137C  
                    u8941 152D                      u9821 0FDF                      u9805 0FC0  
                    u9741 0F33                      u9725 0F07                      u9661 0E7D  
                    u9581 0DE8                      u9485 0C76                      u9901 0911  
                    u7990 1449                      u8790 11BB                      u8950 1FD2  
                    u9830 0FFE                      u9750 0F51                      u9670 0E90  
                    u9590 0DF1                      u9910 0925                      u7991 1448  
                    u8791 11BA                      u8775 11A0                      u8855 136E  
                    u8951 1FD1                      u9831 0FFD                      u9751 0F50  
                    u9735 0F1E                      u9671 0E8F                      u9655 0E71  
                    u9591 0DF0                      u9911 0924                      u8880 1390  
                    u8960 121E                      u9760 0F67                      u9680 0EA6  
                    u9920 0938                      u9840 0B72                      u8881 138F  
                    u8961 121D                      u9761 0F66                      u9681 0EA5  
                    u9921 0937                      u9841 0B71                      u8970 1634  
                    u9770 0F83                      u9690 0EB4                      u9930 094B  
                    u9850 0B7E                      u8795 11B7                      u8875 1380  
                    u8955 1FCE                      u9771 0F82                      u9691 0EB3  
                    u9931 094A                      u9851 0B7D                      u8980 1653  
                    u9780 0F92                      u9940 0990                      u9860 0B91  
                    u8885 138C                      u8965 121A                      u8981 164F  
                    u9781 0F91                      u9765 0F63                      u9685 0EA2  
                    u9941 098F                      u9861 0B90                      u9790 0FAF  
                    u9950 09A4                      u9870 0BA4                      u8895 1399  
                    u9791 0FAE                      u9775 0F7F                      u9951 09A3  
                    u9871 0BA3                      u9960 09B0                      u9880 0BC5  
                    _TMR0 0001                      u9961 09AF                      u9881 0BC4  
                    u8994 1656                      u9970 09F5                      u9890 08FF  
                    u9971 09F4                      u9955 09A0                      u9891 0BD4  
                    u9980 0A09                      u9981 0A08                      u9990 0A15  
                    u9991 0A14                      u9985 0A05                      _STOP 005C  
                    _DoEp 005A                      _WREN 0C62                      _WPUB 0095  
                    _Luoi 00C8                      _main 0A55              lcd_busy@busy 0075  
                    btemp 007E                      start 0012               chuyenluoi@i 0030  
          ??_isButtonMode 0074            CuaStart@pulse1 0055            CuaStart@pulse3 004F  
          _ChuTrinhMaiTho 12D4                     ??_Len 0074                     ??_Vao 0074  
                   ??_isr 0070           __end_of_MotorON 1E94             ??_ButtonEnter 0074  
         __end_of_ServoOn 1DCD            ??_lcd_put_byte 0020                     l13000 152E  
                   l12210 1E5E                     l13002 1570                     l13010 1FB0  
                   l12220 1E76                     l12212 1E66                     l12300 1E92  
                   l13004 1577                     l13012 1E45                     l13020 11DF  
                   l13100 1788                     l12222 1E77                     l12214 1E69  
                   l12230 1591                     l12310 1EAA                     l12302 1E94  
                   l13006 1578                     l13014 1E48                     l13030 1204  
                   l13022 11E1                     l13110 17C5                     l13102 1796  
                   l12216 1E6C                     l12240 15B6                     l12232 1599  
                   l12224 157E                     l12312 1EAB                     l12304 1E9D  
                   l12320 1EC2                     l12400 1F51                     l13008 1FAD  
                   l13016 1E51                     l13024 11E3                     l13040 163A  
                   l13032 1627                     l13112 17D0                     l13104 17A1  
                   l13120 1155                     l13200 1304                     l14000 06BF  
                   l12218 1E6F                     l12250 1615                     l12242 15E5  
                   l12234 159B                     l12226 1582                     l12314 1EAD  
                   l12306 1EA7                     l12322 1EC4                     l12330 1ECA  
                   l12410 1F68                     l12402 1F5A                     l13026 11FB  
                   l13018 11D9                     l13050 1677                     l13042 1641  
                   l13034 1630                     l13114 17DE                     l13106 17AF  
                   l13122 1158                     l13130 1168                     l13202 130C  
                   l13210 10C8                     l14002 06C5                     l14010 06E3  
                   l12244 15F9                     l12236 15A9                     l12228 1590  
                   l12260 1DC9                     l12252 1DBC                     l12308 1EA9  
                   l12324 1EC5                     l12316 1EAF                     l12340 1EE1  
                   l12332 1ED3                     l12412 1F6A                     l12404 1F64  
                   l12420 1122                     l12500 14CE                     l13028 11FF  
                   l13060 16B0                     l13052 168A                     l13044 1648  
                   l13036 1634                     l13116 17E9                     l13108 17BA  
                   l13124 115D                     l13132 1176                     l13140 1276  
                   l13204 1313                     l13212 10C9                     l13220 0810  
                   l13300 0C48                     l14020 06FE                     l14012 06EB  
                   l14004 06C6                     l12246 15FF                     l12238 15AA  
                   l12262 1DCB                     l12254 1DC5                     l12270 1DD9  
                   l12326 1EC6                     l12318 1EB8                     l12342 1EE3  
                   l12334 1EDD                     l12350 1EFA                     l12406 1F66  
                   l12430 1148                     l12422 1136                     l12414 1119  
                   l12502 14CF                     l12510 1DF8                     l13062 16C0  
                   l13054 1691                     l13046 1656                     l13038 1636  
                   l13070 10F4                     l13118 17F4                     l13134 117A  
                   l13126 1162                     l13150 12A2                     l13142 128F  
                   l13206 132F                     l13214 10D5                     l13230 083E  
                   l13222 0815                     l13310 0C6D                     l13302 0C4B  
                   l14030 071D                     l14022 070C                     l14014 06F1  
                   l14006 06CF                     l12248 160D                     l12256 1DC7  
                   l12272 1DDA                     l12264 1DCD                     l12280 1DE9  
                   l12328 1EC8                     l12336 1EDF                     l12352 1EFB  
                   l12344 1EE5                     l12360 1F09                     l12408 1F67  
                   l12424 1140                     l12432 114F                     l12416 111A  
                   l12504 14D6                     l12440 144C                     l12512 1DFA  
                   l12520 1F6C                     l13064 16D5                     l13056 1694  
                   l13048 1666                     l13080 1118                     l13072 10F8  
                   l13136 1187                     l13128 1167                     l13152 12AA  
                   l13144 1292                     l13160 13BD                     l13208 133A  
                   l13216 10DC                     l13240 0858                     l13232 0846  
                   l13224 081B                     l13400 0E0E                     l13320 0CAF  
                   l13312 0C7C                     l13304 0C53                     l14040 0751  
                   l14032 0725                     l14024 070D                     l14016 06F7  
                   l14008 06DC                     l12258 1DC8                     l12274 1DDC  
                   l12266 1DD6                     l12282 1DEA                     l12290 1E82  
                   l12338 1EE0                     l12354 1EFC                     l12346 1EEE  
                   l12370 1F19                     l12362 1F13                     l12434 1151  
                   l12426 1142                     l12418 1121                     l12506 14DB  
                   l12450 1461                     l12442 144D                     l12514 1DFB  
                   l12530 1F83                     l12522 1F75                     l13066 16DC  
                   l13058 16A2                     l13074 1107                     l13090 171E  
                   l13082 16E0                     l13154 12B6                     l13146 1297  
                   l13138 1270                     l13170 13FA                     l13162 13C8  
                   l13218 1DA5                     l13250 0880                     l13242 085B  
                   l13234 084A                     l13226 0828                     l13410 0E45  
                   l13402 0E32                     l13330 0CD6                     l13322 0CB7  
                   l13314 0C81                     l13306 0C5F                     l14050 0788  
                   l14042 0767                     l14034 0731                     l14026 0712  
                   l14018 06FA                     l12268 1DD8                     l12284 1DEB  
                   l12276 1DDE                     l12292 1E8C                     l12356 1EFE  
                   l12348 1EF8                     l12364 1F15                     l12380 1F31  
                   l12372 1F1B                     l12428 1143                     l12460 1474  
                   l12452 1466                     l12444 1454                     l12436 1440  
                   l12516 1DFC                     l12508 1DEF                     l12532 1F85  
                   l12524 1F7F                     l13076 110C                     l13068 10EA  
                   l13092 1729                     l13084 16EE                     l13148 129F  
                   l13156 12BE                     l13172 1408                     l13164 13D4  
                   l13180 142F                     l13260 089F                     l13252 0884  
                   l13244 0862                     l13236 084E                     l13228 0829  
                   l13500 0F95                     l13420 0E7F                     l13412 0E4D  
                   l13404 0E35                     l13340 0D06                     l13324 0CBF  
                   l13332 0CDE                     l13316 0C99                     l13308 0C67  
                   l14060 0795                     l14052 0789                     l14044 0778  
                   l14028 071A                     l14036 0739                     l12286 1DED  
                   l12278 1DE7                     l12294 1E8E                     l12366 1F16  
                   l12358 1F00                     l12382 1F32                     l12374 1F24  
                   l12390 1F49                     l12470 148D                     l12462 147B  
                   l12454 1467                     l12446 1459                     l12438 1449  
                   l12518 1DFE                     l12526 1F81                     l13078 1113  
                   l13094 1764                     l13086 16FB                     l13174 1414  
                   l13166 13E2                     l13158 13BC                     l13190 12E0  
                   l13182 12D4                     l13262 08DA                     l13254 088B  
                   l13246 0863                     l13238 0852                     l13502 0F9D  
                   l13510 0FC5                     l13430 0E92                     l13422 0E80  
                   l13414 0E59                     l13406 0E3A                     l13350 0D44  
                   l13342 0D0A                     l13334 0CF6                     l13326 0CC2  
                   l13318 0CAA                     l13270 0BE2                     l14062 0799  
                   l14054 078A                     l14046 077F                     l14038 0741  
                   l14070 07AB                     l12296 1E8F                     l12288 1E79  
                   l12368 1F17                     l12384 1F34                     l12376 1F2E  
                   l12392 1F4B                     l12480 14A2                     l12472 148E  
                   l12464 1480                     l12456 146E                     l12448 145A  
                   l12528 1F82                     l13096 176F                     l13088 1707  
                   l13176 1422                     l13168 13EE                     l13192 12E5  
                   l13184 12D8                     l13256 0891                     l13248 087F  
                   l13264 08E8                     l13520 0FEC                     l13512 0FCE  
                   l13504 0FA9                     l13440 0EBF                     l13432 0EA7  
                   l13424 0E83                     l13408 0E42                     l13416 0E61  
                   l13360 0D72                     l13352 0D60                     l13344 0D22  
                   l13336 0CFF                     l13328 0CCA                     l13280 0BF4  
                   l13272 0BE3                     l14064 079C                     l14056 078D  
                   l14048 0785                     l13600 0BB2                     l12298 1E90  
                   l12378 1F30                     l12394 1F4C                     l12386 1F36  
                   l12490 14B5                     l12482 14A7                     l12474 1495  
                   l12466 1481                     l12458 1473                     l13098 177D  
                   l13178 142E                     l13194 12ED                     l13186 12DC  
                   l13258 0898                     l13522 0FF8                     l13514 0FCF  
                   l13506 0FB1                     l13450 0EDD                     l13442 0ECB  
                   l13434 0EAC                     l13426 0E88                     l13418 0E76  
                   l13370 0DA9                     l13362 0D7B                     l13354 0D63  
                   l13346 0D33                     l13338 0D00                     l13290 0C2A  
                   l13282 0BF7                     l13274 0BE4                     l13266 0BD7  
                   l14066 079F                     l14058 0793                     l13610 0902  
                   l13602 0BBB                     l13530 0A63                     l12396 1F4D  
                   l12388 1F3F                     l12492 14BC                     l12484 14A8  
                   l12476 149A                     l12468 1488                     l12900 1268  
                   l13196 12F0                     l13188 12DD                     l13508 0FB7  
                   l13460 0EED                     l13452 0EE0                     l13436 0EB4  
                   l13444 0ED3                     l13428 0E91                     l13380 0DD0  
                   l13372 0DB1                     l13364 0D7C                     l13356 0D6A  
                   l13348 0D3E                     l13516 0FD6                     l13292 0C2C  
                   l13284 0BFF                     l13276 0BE7                     l13268 0BE1  
                   l14068 07AA                     l13700 003A                     l13620 0925  
                   l13612 0908                     l13604 0BC5                     l13540 0A6B  
                   l13532 0A66                     l13524 0A55                     l12398 1F4F  
                   l12494 14C1                     l12486 14AF                     l12478 149B  
                   l12902 126F                     l12910 11A6                     l13198 12F8  
                   l13518 0FE4                     l13470 0F27                     l13462 0EF6  
                   l13454 0EE2                     l13446 0ED9                     l13438 0EB7  
                   l13390 0DF5                     l13374 0DB9                     l13382 0DD8  
                   l13358 0D6D                     l13366 0D83                     l13294 0C3A  
                   l13286 0C0B                     l13278 0BEC                     l13710 0087  
                   l13702 004B                     l13630 0941                     l13622 0928  
                   l13614 0912                     l13606 0BC9                     l13550 0A91  
                   l13542 0A6C                     l13534 0A68                     l13526 0A59  
                   l12496 14C2                     l12488 14B4                     l12920 11C9  
                   l12912 11AB                     l12904 1193                     l13480 0F4B  
                   l13472 0F2C                     l13464 0EF7                     l13456 0EE5  
                   l13448 0EDC                     l13392 0DF8                     l13376 0DBC  
                   l13368 0D9E                     l13384 0DDF                     l13296 0C3B  
                   l13288 0C13                     l13800 0281                     l13720 00C8  
                   l13712 009A                     l13704 0064                     l13640 0975  
                   l13632 094B                     l13624 092E                     l13616 0915  
                   l13608 08FF                     l13560 0AD2                     l13552 0A9C  
                   l13544 0A75                     l13536 0A69                     l13528 0A5E  
                   l12498 14C9                     l12914 11B1                     l12906 119B  
                   l12922 11D1                     l12930 1353                     l13490 0F76  
                   l13474 0F34                     l13482 0F53                     l13466 0F0C  
                   l13458 0EE8                     l13394 0DFD                     l13386 0DEA  
                   l13378 0DC4                     l13298 0C40                     l13810 02BF  
                   l13802 0298                     l13730 00F9                     l13722 00D2  
                   l13714 00A0                     l13706 006D                     l13642 097B  
                   l13634 0951                     l13650 09A6                     l13626 0938  
                   l13618 091B                     l13570 0B0E                     l13562 0ADD  
                   l13554 0AB2                     l13546 0A7B                     l13538 0A6A  
                   l12924 11D8                     l12916 11BB                     l12908 119F  
                   l12940 1369                     l12932 1357                     l13492 0F84  
                   l13484 0F68                     l13476 0F37                     l13468 0F22  
                   l13396 0E06                     l13388 0DF2                     l13900 0499  
                   l13820 02F9                     l13812 02C9                     l13804 02A7  
                   l13740 012D                     l13732 00FC                     l13724 00D7  
                   l13716 00A5                     l13708 007F                     l13660 09DA  
                   l13652 09B0                     l13644 0980                     l13636 0953  
                   l13628 093B                     l13580 0B7A                     l13572 0B1A  
                   l13564 0AE3                     l13556 0AC1                     l13548 0A8A  
                   l12870 1FDD                     l12918 11C2                     l12950 1390  
                   l12942 136D                     l12934 135C                     l12926 1343  
                   l13494 0F85                     l13478 0F3F                     l13486 0F71  
                   l13398 0E07                     l13910 04D4                     l13902 049E  
                   l13830 0323                     l13814 02D8                     l13822 0303  
                   l13806 02B1                     l13750 0169                     l13742 0136  
                   l13734 00FF                     l13726 00E0                     l13718 00B9  
                   l13662 09E0                     l13654 09B6                     l13670 0A0B  
                   l13646 0991                     l13638 0955                     l13590 0BA4  
                   l13582 0B7E                     l13574 0B59                     l13566 0AFC  
                   l13558 0ACC                     l12872 1FEA                     l12880 1224  
                   l12960 13AB                     l12952 1396                     l12944 1374  
                   l12936 1361                     l12928 134A                     l13496 0F8A  
                   l13488 0F74                     l13920 050A                     l13912 04DD  
                   l13904 04B4                     l13840 0371                     l13832 0324  
                   l13824 030D                     l13816 02E2                     l13808 02B6  
                   l13760 01A3                     l13752 016E                     l13744 0148  
                   l13736 0100                     l13728 00EA                     l13680 0A2B  
                   l13672 0A15                     l13664 09E5                     l13656 09B8  
                   l13648 0992                     l13592 0BAA                     l13584 0B87  
                   l13576 0B68                     l13568 0B08                     l12874 1FF8  
                   l12866 1FD4                     l12890 1240                     l12882 122A  
                   l12962 13B1                     l12954 1398                     l12946 1379  
                   l12938 1363                     l12970 1E1F                     l13498 0F92  
                   l13922 0510                     l13930 051E                     l13914 04E3  
                   l13906 04C5                     l13850 03AE                     l13842 0379  
                   l13834 0329                     l13826 031F                     l13818 02E7  
                   l13770 01D4                     l13762 01AC                     l13754 0186  
                   l13746 0150                     l13738 0103                     l13690 0018  
                   l13682 0A30                     l13674 0A18                     l13666 09F6  
                   l13658 09BA                     l13594 0BAD                     l13586 0B91  
                   l13578 0B72                     l12876 1FFF                     l12868 1FD7  
                   l12892 1251                     l12884 122E                     l12964 13B8  
                   l12956 139F                     l12948 137F                     l12972 1E2C  
                   l12980 14E5                     l13940 0566                     l13932 0528  
                   l13924 0513                     l13916 04ED                     l13908 04CE  
                   l13860 03D1                     l13852 03BD                     l13844 038C  
                   l13836 0356                     l13828 0322                     l13780 020D  
                   l13772 01E5                     l13764 01B6                     l13756 0194  
                   l13748 0163                     l13692 001C                     l13684 0A38  
                   l13676 0A1C                     l13668 09F7                     l13596 0BB0  
                   l13588 0B9A                     l12894 1257                     l12886 1235  
                   l12878 1220                     l12958 13A7                     l12966 1E13  
                   l12974 1E2F                     l12990 14FF                     l12982 14EE  
                   l13950 05A2                     l13942 0571                     l13934 0546  
                   l13926 0514                     l13918 0504                     l13870 03FE  
                   l13862 03D2                     l13854 03C7                     l13846 0392  
                   l13838 035F                     l13790 0249                     l13782 020E  
                   l13766 01C5                     l13774 01EF                     l13758 019E  
                   l13694 002C                     l13678 0A2A                     l13686 0A47  
                   l13598 0BB1                     l12896 1259                     l12888 123A  
                   l12968 1E16                     l12976 1E38                     l12992 151D  
                   l12984 14F5                     l13960 0600                     l13952 05AE  
                   l13944 0577                     l13936 0555                     l13928 0515  
                   l13880 043B                     l13872 0403                     l13856 03CD  
                   l13864 03DB                     l13848 0397                     l13792 025B  
                   l13784 020F                     l13776 01F9                     l13768 01CF  
                   l13696 002D                     l13688 0015                     l12898 1260  
                   l12994 1524                     l12986 14F6                     l12978 14DD  
                   l13970 0626                     l13962 0601                     l13954 05ED  
                   l13946 0590                     l13938 0560                     l13890 045D  
                   l13882 043E                     l13874 0415                     l13866 03E5  
                   l13858 03D0                     l13794 0263                     l13786 0213  
                   l13778 020A                     l13698 0032                     l12996 1525  
                   l12988 14F7                     l13980 0667                     l13972 0627  
                   l13956 05FC                     l13948 059C                     l13964 060A  
                   l13892 0466                     l13884 043F                     l13868 03F4  
                   l13876 041F                     l13796 0276                     l13788 0240  
                   l12998 1526                     l13990 0699                     l13982 066D  
                   l13974 0628                     l13966 0614                     l13958 05FF  
                   l13894 0478                     l13886 0440                     l13878 0429  
                   l13798 027C                     l13992 069A                     l13984 0676  
                   l13976 062B                     l13968 0623                     l13896 0480  
                   l13888 0445                     l13994 06A2                     l13986 0680  
                   l13978 065D                     l13898 0493                     l13996 06AE  
                   l13988 0686                     l13998 06B7                     ?_main 0070  
         __end_of___awdiv 13B9                     _EEADR 010D                     STR_10 10BC  
                   STR_11 10BF                     STR_20 10B3                     STR_12 10C2  
                   STR_21 10C2                     STR_13 10BF                     STR_30 10C2  
                   STR_22 10BF                     STR_14 10AF                     STR_23 10B3  
                   STR_15 10B3                     STR_31 10BF                     STR_24 10B1  
                   STR_16 10C2                     STR_40 1045                     STR_32 1098  
                   STR_25 10B3                     STR_41 10BF                     STR_17 10BF  
                   STR_33 10B5                     STR_18 10B3                     STR_26 10C2  
                   STR_42 10A8                     STR_50 10BF                     STR_34 105D  
                   STR_19 10B1                     STR_35 1086                     STR_51 1051  
                   STR_43 10BC                     STR_27 10BF                     STR_28 10B3  
                   STR_52 10BF                     STR_44 10BF                     STR_36 10BF  
                   STR_45 10B1                     STR_29 10B1                     STR_37 1069  
                   STR_53 10A0                     STR_38 10B9                     STR_54 10BF  
                   STR_46 1010                     STR_39 10BF                     STR_55 108F  
                   STR_47 1074                     STR_56 10BF                     STR_48 107D  
                   STR_49 1051                     STR_59 1023                     _CARRY 0018  
                   u10000 0A29                     u10001 0A28                     u10010 0A45  
                   _ANSEL 0188                     u10011 0A44                     u10100 012D  
                   u10020 0015                     u10101 012C                     u10021 0A52  
                   u10005 0A25                     u10110 0136                     u10030 0029  
                   u10111 0135                     u10031 0028                     u10015 0A41  
                   u10200 02B1                     u10120 0148                     u10040 0047  
                   u10201 02B0                     u10121 0147                     u10041 0046  
                   u10210 02C9                     u10130 019E                     u10050 0064  
                   u10211 02C8                     u10131 019D                     u10051 0063  
                   u10035 0025                     u10300 0429                     u10220 02E2  
                   u10140 01B6                     u10060 006D                     u10301 0428  
                   u10221 02E1                     u10141 01B5                     u10125 0144  
                   u10061 006C                     u10045 0043                     u10310 045D  
                   u10230 030D                     u10150 01CF                     u10070 007F  
                   u11007 16DA                     u10311 045C                     u10231 030C  
                   u10151 01CE                     u10071 007E                     u10400 06BF  
                   u10320 0466                     u10240 0356                     u10160 01F9  
                   u10080 00D2                     u11017 1201                     u10401 06BE  
                   u10321 0465                     u10241 0355                     u10161 01F8  
                   u10081 00D1                     u10410 06C5                     u10330 0478  
                   u10250 035F                     u10170 0240                     u10090 00EA  
                   u11027 1209                     u10411 06C4                     u10331 0477  
                   u10251 035E                     u10171 023F                     u10091 00E9  
                   u10075 007B                     u10420 06EB                     u10340 04ED  
                   u10260 0371                     u10180 0249                     u11037 1E4C  
                   u10421 06EA                     u10341 04EC                     u10261 0370  
                   u10181 0248                     u10430 06F1                     u10350 0528  
                   u10270 03C7                     u10190 025B                     u11047 1E58  
                   u10431 06F0                     u10351 0527                     u10335 0474  
                   u10271 03C6                     u10191 025A                     u10440 070B  
                   u10360 0614                     u10280 03E5                     u11057 1FB8  
                   u10441 070A                     u10361 0613                     u10281 03E4  
                   u10265 036D                     u10450 071A                     u10370 0667  
                   u10290 03FE                     u11067 1E33                     u10451 0719  
                   u10371 0666                     u10291 03FD                     u10195 0257  
                   u10507 097D                     u10460 0737                     u10380 0680  
         ___awdiv@divisor 0020                     u11077 1E3F                     u10461 0736  
                   u10445 0707                     u10381 067F                     u10517 0985  
                   u10470 074E                     u10390 0699                     u11087 1E1A  
                   u10471 074D                     u10607 06D6                     u10391 0698  
                   u10527 09E2                     u10480 077F                     u11097 1E26  
                   u10481 077E                     u10617 0721                     u10537 09EA  
                   u10707 0DCB                     u10475 074A                     u10627 072C  
                   u10547 01BE                     u10717 0E49                     u10637 0BFB  
                   u10557 02D1                     u10807 0FF3                     u10727 0E54  
                   u10647 0C06                     u10567 03ED                     u10817 12F4  
                   u10737 0EBB                     u10657 0C4F                     u10577 069E  
                   u10497 0A83                     u10907 175B                     u10827 12FF  
                   u10747 0EC6                     u10667 0C5A                     u10587 06A9  
                   u10917 10F6                     u10837 12A6                     u10757 0F3B  
                   u10677 0CC6                     u10597 06CA                     u10927 10FD  
                   u10847 12B1                     u10767 0F46                     u10687 0CD1  
                   u10937 110A                     u10857 16F4                     u10777 0F99  
                   u10697 0DC0                     u10947 1111                     u10867 170D  
                   u10787 0FA4                     u10957 1638                     u10877 1724  
                   u10797 0FE8                     u10967 163F                     u10887 173D  
                   u10977 1688                     u10897 174C                     u10987 168F  
                   u10997 16D3           __end_of___lwdiv 1270           __end_of___lwmod 11D9  
         ___awdiv@counter 0024                     _PORTB 0006                     _PORTC 0007  
                   _PORTD 0008                     _TRISB 0086                     _TRISC 0087  
                   _TRISD 0088                     _Delay 1FAA                     _SoLan 00CB  
                   _nRBPU 040F                     _Xuong 1EAF                     _press 00D8  
                   _putch 1DA2                     main@i 019A                     _xung1 00E1  
            maidao@domaix 0028              maidao@domaiy 0026                     pclath 000A  
                   status 0003                     wtemp0 007E           __end_of_system1 1E79  
           _statusMachine 00E3             _indexOfNumber 00D6          __end_of_CuaStart 1000  
  __end_of_ChuTrinhMaiTho 1343          ??_Cap2kXungXuong 0074             lcd_gotoxy@col 0026  
           lcd_gotoxy@row 0024                    ??_main 0057                    ?_Delay 0070  
     __end_of_ButtonEnter 1DEF                    ?_Xuong 0070                    _EEDATA 010C  
                  _EECON1 018C                    _EECON2 018D          ___awdiv@dividend 0022  
                  ?_putch 0070                    _ANSELH 0189                    Delay@i 0024  
                  _INTEDG 040E                    i1l5942 1F9E                    i1l5943 1F9E  
                  u581_20 1F8B                    u581_21 1F8A                    u582_20 1F8F  
                  u582_21 1F8E                    _TMR2IE 0461                    _TMR2IF 0061  
                  _TRISA0 0428                    _TRISA1 0429                    _TRISA2 042A  
                  _TRISA3 042B                    _TRISA4 042C                    _TRISA5 042D  
                  _TRISE0 0448                    _TRISE1 0449                    _TRISE2 044A  
                  _GiaTri 00C0                    _LanMai 005B                    _MaiTho 00C9  
           ??_MotorEpTruc 0074                _TinhGiaTri 14DD                    _SoLuoi 005D  
         ?_ChuTrinhMaiTho 0070                 ??_MotorON 0074                    _Number 1440  
               ??_ServoOn 0074          __end_of_lcd_busy 1119          __end_of_lcd_init 1800  
        __end_of_lcd_putc 1440          __end_of_lcd_puts 10EA                    ___wmul 1FD4  
               ??___awdiv 0074                    _demdao 00D1                 ??___lwdiv 0074  
               ??___lwmod 0075                    _maidao 1270          ___awdiv@quotient 0026  
                  _motorX 1E13                    _motorY 1E2C                    _printf 080D  
                  main@po 01A0                    clrloop 1D9B             lcd_put_byte@b 0074  
           main@tong_1976 0194                    saved_w 007E      __end_of_isButtonMode 1DDE  
                  putch@c 002A          ??_isButtonCancel 0074                 ??_system1 0074  
        ??_isButtonNumber 0020      __end_of_lcd_put_byte 16E0             __end_of_Delay 1FD4  
          __pcstackCOMMON 0070              __pidataBANK1 0802              __pidataBANK3 1DAC  
           __end_of_Xuong 1ECA             __end_of_putch 1DAC       __end_of_MotorEpTruc 1E5E  
             _ButtonEnter 1DDE                __end_of_Ra 1F00                   ??_Delay 0020  
       lcd_gotoxy@address 0027                 ?_CuaStart 0070                   ??_Xuong 0074  
                 ??_putch 0076                __pbssBANK0 005A                __pbssBANK1 00A0  
__size_of_scan_key_matrix 00A6               ?_TinhGiaTri 0024                __pmaintext 0A55  
                 ?_Number 0074                   ?___wmul 0020                __pintentry 0004  
                 ?_maidao 0070                __ptext1411 0BD7                __ptext1420 10EA  
              __ptext1412 080D                __ptext1421 1624                __ptext1413 1DA2  
              __ptext1430 1220                __ptext1422 11D9                __ptext1414 10C5  
              __ptext1431 1FD4                __ptext1423 1E45                __ptext1415 12D4  
              __ptext1440 1EE5                __ptext1432 1F6C                __ptext1424 1FAA  
              __ptext1416 13B9                __ptext1441 1ECA                __ptext1433 1DEF  
              __ptext1425 14DD                __ptext1417 1270                __ptext1450 1F87  
              __ptext1442 1EAF                __ptext1434 1440                __ptext1426 1E2C  
              __ptext1418 1152                __ptext1451 0000                __ptext1443 1E94  
              __ptext1435 1119                __ptext1427 1E13                __ptext1419 16E0  
              __ptext1444 1E79                __ptext1436 1F51                __ptext1428 1343  
              __ptext1445 1DDE                __ptext1437 1F36                __ptext1429 1193  
              __ptext1446 1DCD                __ptext1438 1F1B                __ptext1447 1DBC  
              __ptext1439 1F00                __ptext1448 157E                __ptext1449 1E5E  
          main@count_1977 0196                   ?_motorX 0070                   ?_motorY 0070  
                 ?_printf 002C                   i1l10960 1F8B                   i1l10970 1F97  
                 i1l10962 1F8F                   i1l10972 1F98                   i1l10964 1F90  
                 i1l10974 1F9A                   i1l10966 1F93                   i1l10958 1F87  
                 i1l10976 1F9C                   i1l10968 1F96                _isButtonUp 1F6C  
              _lcd_gotoxy 1152                ??_CuaStart 003A           ChuTrinhMaiTho@i 0033  
 __size_of_ChuyenLuoiPhai 001B                _chuyenluoi 11D9   __size_of_ChuyenLuoiTrai 001B  
               ?_lcd_busy 0070                 ?_lcd_init 0070                   _DoEpDao 00C4  
               ?_lcd_putc 0070                 ?_lcd_puts 0070               _MotorEpTruc 1E45  
                 _MotorON 1E79                   _ServoOn 1DBC           __size_of_Number 009D  
                 ___awdiv 1343           __size_of___wmul 002C                   ___lwdiv 1220  
                 ___lwmod 1193           __size_of_maidao 0064          _arrayMapOfNumber 01A6  
   __size_of_isButtonMode 0011           __size_of_motorX 0019           __size_of_motorY 0019  
         __size_of_printf 00F2                   _countSV 00D0              __size_of_Len 001B  
                 _dpowers 1006              __size_of_Vao 001B              __size_of_isr 0023  
     __size_of_TinhGiaTri 00A1     __size_of_lcd_put_byte 00BC                   maidao@i 002A  
              ??_lcd_busy 0074                ??_lcd_init 0024                ??_lcd_putc 0028  
              ??_lcd_puts 002A      end_of_initialization 07FC                 Delay@time 0023  
                 _system1 1E5E            lcd_put_byte@rs 0022          ??_ChuTrinhMaiTho 002C  
                 init_ram 1E04            main@pulse_1975 019C              _isButtonMode 1DCD  
                 printf@c 0039             ?_Cap2kXungLen 0070                   printf@f 0033  
               CuaStart@i 003F                 CuaStart@j 0041                 CuaStart@k 0043  
       ??_scan_key_matrix 0020            chuyenluoi@tong 002A              _lcd_put_byte 1624  
             ?_isButtonUp 0070               ?_lcd_gotoxy 0024                main@i_2018 01A4  
             ?_chuyenluoi 0070                main@i_1978 019E            ??_Cap2kXungLen 0074  
          __end_of_Number 14DD            __end_of___wmul 2000              ?_ButtonEnter 0070  
          __end_of_maidao 12D4            __end_of_motorX 1E2C            __end_of_motorY 1E45  
          __end_of_printf 08FF   __size_of_Cap2kXungXuong 001B       start_initialization 07CF  
             __end_of_Len 1EAF               __end_of_Vao 1EE5               __end_of_isr 1FAA  
          _ChuyenLuoiPhai 1F1B            _ChuyenLuoiTrai 1F00           isButtonNumber@i 0074  
       __size_of_CuaStart 0429              _SoLanMaiTinh 00CC              ??_TinhGiaTri 0026  
                ??_Number 0076       __size_of_isButtonUp 001B       __size_of_lcd_gotoxy 0041  
                ??___wmul 0074                  ??_maidao 0024               __pdataBANK1 00D9  
             __pdataBANK3 01A6       __size_of_chuyenluoi 0047                  ??_motorX 0074  
                ??_motorY 0074                  ??_printf 002E    __end_of_ChuyenLuoiPhai 1F36  
             __pbssCOMMON 0076    __end_of_ChuyenLuoiTrai 1F1B             __pcstackBANK0 0020  
           __pcstackBANK3 0190        __end_of_TinhGiaTri 157E         __size_of_lcd_busy 002F  
       __size_of_lcd_init 0120         __size_of_lcd_putc 0087         __size_of_lcd_puts 0025  
            ?_MotorEpTruc 0070          ___lwdiv@dividend 0022                 _demgiatri 00D2  
                ?_MotorON 0070   __size_of_isButtonCancel 0011                  ?_ServoOn 0070  
                ?___awdiv 0020                  ?___lwdiv 0020                  ?___lwmod 0027  
 __size_of_isButtonNumber 0039                 __pstrings 1000           ?_ChuyenLuoiPhai 0070  
          __size_of_Delay 002A           ?_ChuyenLuoiTrai 0070      __end_of_Cap2kXungLen 1F6C  
          __size_of_Xuong 001B          ___lwdiv@quotient 0025            __size_of_putch 000A  
                ?_system1 0070               __size_of_Ra 001B           _scan_key_matrix 157E  
       interrupt_function 0004            ___wmul@product 0074      _arrayMaskOutputOfKey 00DD  
                _SLMaiTho 00CA               __stringbase 1005         ___wmul@multiplier 0020  
    __size_of_ButtonEnter 0011                printf@_val 0035                printf@flag 0032  
          _Cap2kXungXuong 1F36                printf@prec 0034                 main@count 0192  
               lcd_putc@c 0029                  _ChieuDai 0076                 lcd_puts@s 002B  
               main@pulse 0198              ??_isButtonUp 0074              ??_lcd_gotoxy 0025  
                _CuaStart 0BD7              ??_chuyenluoi 0028       _arrayMaskInputOfKey 00D9  
        lcd_put_byte@temp 0023                 init_fetch 1E00          __size_of_MotorON 001B  
        __size_of_ServoOn 0011        __end_of_isButtonUp 1F87        __end_of_lcd_gotoxy 1193  
        __size_of___awdiv 0076          __size_of___lwdiv 0050        __end_of_chuyenluoi 1220  
        __size_of___lwmod 0046    __end_of_Cap2kXungXuong 1F51                  _biennho1 00C6  
                _biennho2 0078   __end_of_scan_key_matrix 1624           ___lwdiv@divisor 0020  
         ___lwdiv@counter 0024            TinhGiaTri@Tong 002E                  _lcd_busy 10EA  
                _lcd_init 16E0                  _lcd_putc 13B9                  _lcd_puts 10C5  
        __size_of_system1 001B      ChuTrinhMaiTho@pulse2 0031                  _key_code 00A0  
           __size_of_main F5AB                  clear_ram 1D9A            _isButtonCancel 1DEF  
    __size_of_MotorEpTruc 0019            _isButtonNumber 1119   __size_of_ChuTrinhMaiTho 006F  
                main@tong 0190           ?_Cap2kXungXuong 0070     __size_of_Cap2kXungLen 001B  
                intlevel1 0000          ___lwmod@dividend 0029    __end_of_isButtonCancel 1E00  
     ChuTrinhMaiTho@tong2 002F                 stringcode 1000    __end_of_isButtonNumber 1152  
            _Cap2kXungLen 1F51                  printf@ap 0031                CuaStart@i1 0049  
              CuaStart@i2 004B                CuaStart@k1 0045          ??_ChuyenLuoiPhai 0074  
        ??_ChuyenLuoiTrai 0074               _numberValue 00D7           chuyenluoi@count 002C  
         ___lwmod@divisor 0027           chuyenluoi@pulse 002E           ___lwmod@counter 002B  
                stringdir 1000                  stringtab 1000          ?_scan_key_matrix 0070  
         ?_isButtonCancel 0070             ?_isButtonMode 0070           ?_isButtonNumber 0070  
